ARM GAS  /tmp/ccPfsSwR.s 			page 1


   1              		.cpu cortex-m7
   2              		.eabi_attribute 27, 1	@ Tag_ABI_HardFP_use
   3              		.eabi_attribute 28, 1	@ Tag_ABI_VFP_args
   4              		.eabi_attribute 20, 1	@ Tag_ABI_FP_denormal
   5              		.eabi_attribute 21, 1	@ Tag_ABI_FP_exceptions
   6              		.eabi_attribute 23, 3	@ Tag_ABI_FP_number_model
   7              		.eabi_attribute 24, 1	@ Tag_ABI_align8_needed
   8              		.eabi_attribute 25, 1	@ Tag_ABI_align8_preserved
   9              		.eabi_attribute 26, 1	@ Tag_ABI_enum_size
  10              		.eabi_attribute 30, 2	@ Tag_ABI_optimization_goals
  11              		.eabi_attribute 34, 1	@ Tag_CPU_unaligned_access
  12              		.eabi_attribute 18, 4	@ Tag_ABI_PCS_wchar_t
  13              		.file	"b2d_lite.c"
  14              	@ GNU C17 (15:9-2019-q4-0ubuntu1) version 9.2.1 20191025 (release) [ARM/arm-9-branch revision 27759
  15              	@	compiled by GNU C version 9.2.1 20200306, GMP version 6.2.0, MPFR version 4.0.2, MPC version 1.1.
  16              	
  17              	@ GGC heuristics: --param ggc-min-expand=100 --param ggc-min-heapsize=131072
  18              	@ options passed:  -I . -I .
  19              	@ -I /home/george/projects/PlaydateSDK-1.11.1//C_API
  20              	@ -imultilib thumb/v7e-m+fp/hard -MD build/src/b2d_lite.d
  21              	@ -MF build/dep/b2d_lite.o.d -MP -MQ build/src/b2d_lite.o
  22              	@ -D__USES_INITFINI__ -D __FPU_USED=1 -D TARGET_PLAYDATE=1
  23              	@ -D TARGET_EXTENSION=1 src/b2d_lite.c -mthumb -mcpu=cortex-m7
  24              	@ -mfloat-abi=hard -mfpu=fpv5-sp-d16 -march=armv7e-m+fpv5
  25              	@ -auxbase-strip build/src/b2d_lite.o -g -gdwarf-2 -O2 -Wall -Wno-unused
  26              	@ -Wstrict-prototypes -Wno-unknown-pragmas -Wdouble-promotion
  27              	@ -falign-functions=16 -fomit-frame-pointer -fverbose-asm
  28              	@ -ffunction-sections -fdata-sections
  29              	@ options enabled:  -faggressive-loop-optimizations -falign-functions
  30              	@ -falign-jumps -falign-labels -falign-loops -fassume-phsa -fauto-inc-dec
  31              	@ -fbranch-count-reg -fcaller-saves -fcombine-stack-adjustments -fcommon
  32              	@ -fcompare-elim -fcprop-registers -fcrossjumping -fcse-follow-jumps
  33              	@ -fdata-sections -fdefer-pop -fdelete-null-pointer-checks -fdevirtualize
  34              	@ -fdevirtualize-speculatively -fdwarf2-cfi-asm -fearly-inlining
  35              	@ -feliminate-unused-debug-types -fexpensive-optimizations
  36              	@ -fforward-propagate -ffp-int-builtin-inexact -ffunction-cse
  37              	@ -ffunction-sections -fgcse -fgcse-lm -fgnu-runtime -fgnu-unique
  38              	@ -fguess-branch-probability -fhoist-adjacent-loads -fident -fif-conversion
  39              	@ -fif-conversion2 -findirect-inlining -finline -finline-atomics
  40              	@ -finline-functions-called-once -finline-small-functions -fipa-bit-cp
  41              	@ -fipa-cp -fipa-icf -fipa-icf-functions -fipa-icf-variables -fipa-profile
  42              	@ -fipa-pure-const -fipa-ra -fipa-reference -fipa-reference-addressable
  43              	@ -fipa-sra -fipa-stack-alignment -fipa-vrp -fira-hoist-pressure
  44              	@ -fira-share-save-slots -fira-share-spill-slots
  45              	@ -fisolate-erroneous-paths-dereference -fivopts -fkeep-static-consts
  46              	@ -fleading-underscore -flifetime-dse -flra-remat -flto-odr-type-merging
  47              	@ -fmath-errno -fmerge-constants -fmerge-debug-strings
  48              	@ -fmove-loop-invariants -fomit-frame-pointer -foptimize-sibling-calls
  49              	@ -foptimize-strlen -fpartial-inlining -fpeephole -fpeephole2 -fplt
  50              	@ -fprefetch-loop-arrays -freg-struct-return -freorder-blocks
  51              	@ -freorder-functions -frerun-cse-after-loop
  52              	@ -fsched-critical-path-heuristic -fsched-dep-count-heuristic
  53              	@ -fsched-group-heuristic -fsched-interblock -fsched-last-insn-heuristic
  54              	@ -fsched-pressure -fsched-rank-heuristic -fsched-spec
  55              	@ -fsched-spec-insn-heuristic -fsched-stalled-insns-dep -fschedule-insns
  56              	@ -fschedule-insns2 -fsection-anchors -fsemantic-interposition
  57              	@ -fshow-column -fshrink-wrap -fshrink-wrap-separate -fsigned-zeros
ARM GAS  /tmp/ccPfsSwR.s 			page 2


  58              	@ -fsplit-ivs-in-unroller -fsplit-wide-types -fssa-backprop -fssa-phiopt
  59              	@ -fstdarg-opt -fstore-merging -fstrict-aliasing
  60              	@ -fstrict-volatile-bitfields -fsync-libcalls -fthread-jumps
  61              	@ -ftoplevel-reorder -ftrapping-math -ftree-bit-ccp -ftree-builtin-call-dce
  62              	@ -ftree-ccp -ftree-ch -ftree-coalesce-vars -ftree-copy-prop -ftree-cselim
  63              	@ -ftree-dce -ftree-dominator-opts -ftree-dse -ftree-forwprop -ftree-fre
  64              	@ -ftree-loop-if-convert -ftree-loop-im -ftree-loop-ivcanon
  65              	@ -ftree-loop-optimize -ftree-parallelize-loops= -ftree-phiprop -ftree-pre
  66              	@ -ftree-pta -ftree-reassoc -ftree-scev-cprop -ftree-sink -ftree-slsr
  67              	@ -ftree-sra -ftree-switch-conversion -ftree-tail-merge -ftree-ter
  68              	@ -ftree-vrp -funit-at-a-time -fvar-tracking -fvar-tracking-assignments
  69              	@ -fverbose-asm -fzero-initialized-in-bss -masm-syntax-unified -mbe32
  70              	@ -mlittle-endian -mpic-data-is-text-relative -msched-prolog -mthumb
  71              	@ -munaligned-access -mvectorize-with-neon-quad
  72              	
  73              		.text
  74              	.Ltext0:
  75              		.cfi_sections	.debug_frame
  76              		.section	.text.findArbiter,"ax",%progbits
  77              		.align	1
  78              		.p2align 4,,15
  79              		.global	findArbiter
  80              		.arch armv7e-m
  81              		.syntax unified
  82              		.thumb
  83              		.thumb_func
  84              		.fpu fpv5-sp-d16
  85              		.type	findArbiter, %function
  86              	findArbiter:
  87              	.LFB3:
  88              		.file 1 "src/b2d_lite.c"
   1:src/b2d_lite.c **** /*
   2:src/b2d_lite.c **** * Copyright (c) 2006-2007 Erin Catto http://www.gphysics.com
   3:src/b2d_lite.c **** *
   4:src/b2d_lite.c **** * Permission to use, copy, modify, distribute and sell this software
   5:src/b2d_lite.c **** * and its documentation for any purpose is hereby granted without fee,
   6:src/b2d_lite.c **** * provided that the above copyright notice appear in all copies.
   7:src/b2d_lite.c **** * Erin Catto makes no representations about the suitability 
   8:src/b2d_lite.c **** * of this software for any purpose.  
   9:src/b2d_lite.c **** * It is provided "as is" without express or implied warranty.
  10:src/b2d_lite.c **** */
  11:src/b2d_lite.c **** 
  12:src/b2d_lite.c **** #include <stdio.h>
  13:src/b2d_lite.c **** #include <float.h>
  14:src/b2d_lite.c **** #include <math.h>
  15:src/b2d_lite.c **** #include <stdlib.h>
  16:src/b2d_lite.c **** 
  17:src/b2d_lite.c **** #include "mathutils.h"
  18:src/b2d_lite.c **** #include "collide.h"
  19:src/b2d_lite.c **** 
  20:src/b2d_lite.c **** struct Arbiter
  21:src/b2d_lite.c **** {
  22:src/b2d_lite.c **** 	struct Contact contacts[2];
  23:src/b2d_lite.c **** 	int numContacts;
  24:src/b2d_lite.c **** 
  25:src/b2d_lite.c **** 	struct Body* body1;
  26:src/b2d_lite.c **** 	struct Body* body2;
ARM GAS  /tmp/ccPfsSwR.s 			page 3


  27:src/b2d_lite.c **** 
  28:src/b2d_lite.c **** 	// Combined friction
  29:src/b2d_lite.c **** 	float friction;
  30:src/b2d_lite.c **** };
  31:src/b2d_lite.c **** 
  32:src/b2d_lite.c **** struct ArbiterKey
  33:src/b2d_lite.c **** {
  34:src/b2d_lite.c **** 	struct Body* body1;
  35:src/b2d_lite.c **** 	struct Body* body2;
  36:src/b2d_lite.c **** };
  37:src/b2d_lite.c **** 
  38:src/b2d_lite.c **** // was in World
  39:src/b2d_lite.c **** 
  40:src/b2d_lite.c **** struct Body *g_bodies[100];
  41:src/b2d_lite.c **** int g_numBodies;
  42:src/b2d_lite.c **** 
  43:src/b2d_lite.c **** struct Arbiter g_arbiters[100];
  44:src/b2d_lite.c **** struct ArbiterKey g_arbiterKeys[100];
  45:src/b2d_lite.c **** int g_numArbiters;
  46:src/b2d_lite.c **** 
  47:src/b2d_lite.c **** struct Vec2 gravity;
  48:src/b2d_lite.c **** int iterations;
  49:src/b2d_lite.c **** int accumulateImpulses = 1;
  50:src/b2d_lite.c **** int warmStarting = 1;
  51:src/b2d_lite.c **** int positionCorrection = 1;
  52:src/b2d_lite.c **** 
  53:src/b2d_lite.c **** struct Arbiter* findArbiter(struct ArbiterKey key)
  54:src/b2d_lite.c **** {
  89              		.loc 1 54 1 view -0
  90              		.cfi_startproc
  91              		@ args = 0, pretend = 0, frame = 8
  92              		@ frame_needed = 0, uses_anonymous_args = 0
  93              		@ link register save eliminated.
  55:src/b2d_lite.c ****     for (int i=0; i<g_numArbiters; i++)
  94              		.loc 1 55 5 view .LVU1
  95              	.LBB26:
  96              		.loc 1 55 10 view .LVU2
  97              	.LVL0:
  98              		.loc 1 55 19 view .LVU3
  99              	@ src/b2d_lite.c:55:     for (int i=0; i<g_numArbiters; i++)
 100              		.loc 1 55 20 is_stmt 0 view .LVU4
 101 0000 124B     		ldr	r3, .L9	@ tmp120,
 102              	.LBE26:
 103              	@ src/b2d_lite.c:54: {
  54:src/b2d_lite.c ****     for (int i=0; i<g_numArbiters; i++)
 104              		.loc 1 54 1 view .LVU5
 105 0002 F0B4     		push	{r4, r5, r6, r7}	@
 106              	.LCFI0:
 107              		.cfi_def_cfa_offset 16
 108              		.cfi_offset 4, -16
 109              		.cfi_offset 5, -12
 110              		.cfi_offset 6, -8
 111              		.cfi_offset 7, -4
 112              	.LBB27:
 113              	@ src/b2d_lite.c:55:     for (int i=0; i<g_numArbiters; i++)
 114              		.loc 1 55 20 view .LVU6
 115 0004 1C68     		ldr	r4, [r3]	@ g_numArbiters.0_12, g_numArbiters
ARM GAS  /tmp/ccPfsSwR.s 			page 4


 116              	.LBE27:
 117              	@ src/b2d_lite.c:54: {
  54:src/b2d_lite.c ****     for (int i=0; i<g_numArbiters; i++)
 118              		.loc 1 54 1 view .LVU7
 119 0006 82B0     		sub	sp, sp, #8	@,,
 120              	.LCFI1:
 121              		.cfi_def_cfa_offset 24
 122              	.LBB28:
 123              	@ src/b2d_lite.c:55:     for (int i=0; i<g_numArbiters; i++)
 124              		.loc 1 55 5 view .LVU8
 125 0008 002C     		cmp	r4, #0	@ g_numArbiters.0_12,
 126              	.LBE28:
 127              	@ src/b2d_lite.c:54: {
  54:src/b2d_lite.c ****     for (int i=0; i<g_numArbiters; i++)
 128              		.loc 1 54 1 view .LVU9
 129 000a 02AB     		add	r3, sp, #8	@ tmp138,,
 130 000c 03E90300 		stmdb	r3, {r0, r1}	@ tmp138,,
 131              	.LBB29:
 132              	@ src/b2d_lite.c:55:     for (int i=0; i<g_numArbiters; i++)
 133              		.loc 1 55 5 view .LVU10
 134 0010 18DD     		ble	.L5		@,
 135 0012 0F49     		ldr	r1, .L9+4	@ tmp135,
 136              	@ src/b2d_lite.c:55:     for (int i=0; i<g_numArbiters; i++)
 137              		.loc 1 55 14 view .LVU11
 138 0014 0023     		movs	r3, #0	@ i,
 139              	@ src/b2d_lite.c:57:         if (g_arbiterKeys[i].body1 == key.body1 && 
  56:src/b2d_lite.c ****     {    
  57:src/b2d_lite.c ****         if (g_arbiterKeys[i].body1 == key.body1 && 
 140              		.loc 1 57 42 view .LVU12
 141 0016 0098     		ldr	r0, [sp]	@ _2, key.body1
 142              	@ src/b2d_lite.c:58:             g_arbiterKeys[i].body2 == key.body2)
  58:src/b2d_lite.c ****             g_arbiterKeys[i].body2 == key.body2)
 143              		.loc 1 58 29 view .LVU13
 144 0018 0F1D     		adds	r7, r1, #4	@ tmp136, tmp135,
 145              	@ src/b2d_lite.c:58:             g_arbiterKeys[i].body2 == key.body2)
 146              		.loc 1 58 42 view .LVU14
 147 001a 019E     		ldr	r6, [sp, #4]	@ _4, key.body2
 148 001c 02E0     		b	.L4		@
 149              	.LVL1:
 150              	.L3:
 151              	@ src/b2d_lite.c:55:     for (int i=0; i<g_numArbiters; i++)
  55:src/b2d_lite.c ****     {    
 152              		.loc 1 55 37 discriminator 2 view .LVU15
 153 001e 0133     		adds	r3, r3, #1	@ i, i,
 154              	.LVL2:
  55:src/b2d_lite.c ****     {    
 155              		.loc 1 55 19 is_stmt 1 discriminator 2 view .LVU16
 156              	@ src/b2d_lite.c:55:     for (int i=0; i<g_numArbiters; i++)
  55:src/b2d_lite.c ****     {    
 157              		.loc 1 55 5 is_stmt 0 discriminator 2 view .LVU17
 158 0020 A342     		cmp	r3, r4	@ i, g_numArbiters.0_12
 159 0022 0FD0     		beq	.L5		@,
 160              	.LVL3:
 161              	.L4:
  57:src/b2d_lite.c ****             g_arbiterKeys[i].body2 == key.body2)
 162              		.loc 1 57 9 is_stmt 1 view .LVU18
  55:src/b2d_lite.c ****     {    
ARM GAS  /tmp/ccPfsSwR.s 			page 5


 163              		.loc 1 55 36 view .LVU19
 164              	@ src/b2d_lite.c:57:         if (g_arbiterKeys[i].body1 == key.body1 && 
  57:src/b2d_lite.c ****             g_arbiterKeys[i].body2 == key.body2)
 165              		.loc 1 57 12 is_stmt 0 view .LVU20
 166 0024 51F83320 		ldr	r2, [r1, r3, lsl #3]	@ MEM[symbol: g_arbiterKeys, index: _8, step: 8, offset: 0B], MEM[symbol:
 167              	@ src/b2d_lite.c:57:         if (g_arbiterKeys[i].body1 == key.body1 && 
  57:src/b2d_lite.c ****             g_arbiterKeys[i].body2 == key.body2)
 168              		.loc 1 57 29 view .LVU21
 169 0028 DD00     		lsls	r5, r3, #3	@ tmp121, i,
 170              	@ src/b2d_lite.c:57:         if (g_arbiterKeys[i].body1 == key.body1 && 
  57:src/b2d_lite.c ****             g_arbiterKeys[i].body2 == key.body2)
 171              		.loc 1 57 12 view .LVU22
 172 002a 8242     		cmp	r2, r0	@ MEM[symbol: g_arbiterKeys, index: _8, step: 8, offset: 0B], _2
 173 002c F7D1     		bne	.L3		@,
 174              	@ src/b2d_lite.c:57:         if (g_arbiterKeys[i].body1 == key.body1 && 
  57:src/b2d_lite.c ****             g_arbiterKeys[i].body2 == key.body2)
 175              		.loc 1 57 49 discriminator 1 view .LVU23
 176 002e 57F83320 		ldr	r2, [r7, r3, lsl #3]	@ MEM[symbol: g_arbiterKeys, index: _8, step: 8, offset: 4B], MEM[symbol:
 177 0032 B242     		cmp	r2, r6	@ MEM[symbol: g_arbiterKeys, index: _8, step: 8, offset: 4B], _4
 178 0034 F3D1     		bne	.L3		@,
  59:src/b2d_lite.c ****            return &g_arbiters[i];
 179              		.loc 1 59 12 is_stmt 1 view .LVU24
 180              	@ src/b2d_lite.c:59:            return &g_arbiters[i];
 181              		.loc 1 59 19 is_stmt 0 view .LVU25
 182 0036 2B44     		add	r3, r3, r5	@ tmp131, tmp121
 183              	.LVL4:
 184              		.loc 1 59 19 view .LVU26
 185 0038 0648     		ldr	r0, .L9+8	@ tmp133,
 186 003a 00EB0310 		add	r0, r0, r3, lsl #4	@ <retval>, tmp133, tmp131,
 187              	.LBE29:
 188              	@ src/b2d_lite.c:63: }
  60:src/b2d_lite.c ****     }
  61:src/b2d_lite.c **** 
  62:src/b2d_lite.c ****     return NULL;
  63:src/b2d_lite.c **** }
 189              		.loc 1 63 1 view .LVU27
 190 003e 02B0     		add	sp, sp, #8	@,,
 191              	.LCFI2:
 192              		.cfi_remember_state
 193              		.cfi_def_cfa_offset 16
 194              		@ sp needed	@
 195 0040 F0BC     		pop	{r4, r5, r6, r7}	@
 196              	.LCFI3:
 197              		.cfi_restore 7
 198              		.cfi_restore 6
 199              		.cfi_restore 5
 200              		.cfi_restore 4
 201              		.cfi_def_cfa_offset 0
 202 0042 7047     		bx	lr	@
 203              	.L5:
 204              	.LCFI4:
 205              		.cfi_restore_state
 206              	@ src/b2d_lite.c:62:     return NULL;
  62:src/b2d_lite.c **** }
 207              		.loc 1 62 12 view .LVU28
 208 0044 0020     		movs	r0, #0	@ <retval>,
 209              	@ src/b2d_lite.c:63: }
ARM GAS  /tmp/ccPfsSwR.s 			page 6


 210              		.loc 1 63 1 view .LVU29
 211 0046 02B0     		add	sp, sp, #8	@,,
 212              	.LCFI5:
 213              		.cfi_def_cfa_offset 16
 214              		@ sp needed	@
 215 0048 F0BC     		pop	{r4, r5, r6, r7}	@
 216              	.LCFI6:
 217              		.cfi_restore 7
 218              		.cfi_restore 6
 219              		.cfi_restore 5
 220              		.cfi_restore 4
 221              		.cfi_def_cfa_offset 0
 222 004a 7047     		bx	lr	@
 223              	.L10:
 224              		.align	2
 225              	.L9:
 226 004c 00000000 		.word	g_numArbiters
 227 0050 00000000 		.word	g_arbiterKeys
 228 0054 00000000 		.word	g_arbiters
 229              		.cfi_endproc
 230              	.LFE3:
 231              		.size	findArbiter, .-findArbiter
 232              		.section	.text.insertArbiter,"ax",%progbits
 233              		.align	1
 234              		.p2align 4,,15
 235              		.global	insertArbiter
 236              		.syntax unified
 237              		.thumb
 238              		.thumb_func
 239              		.fpu fpv5-sp-d16
 240              		.type	insertArbiter, %function
 241              	insertArbiter:
 242              	.LFB4:
  64:src/b2d_lite.c **** 
  65:src/b2d_lite.c **** void insertArbiter(struct ArbiterKey key, struct Arbiter value)
  66:src/b2d_lite.c **** {
 243              		.loc 1 66 1 is_stmt 1 view -0
 244              		.cfi_startproc
 245              		@ args = 144, pretend = 8, frame = 8
 246              		@ frame_needed = 0, uses_anonymous_args = 0
  67:src/b2d_lite.c ****     if (g_numArbiters >= 100)    
 247              		.loc 1 67 5 view .LVU31
 248              	@ src/b2d_lite.c:66: {
  66:src/b2d_lite.c ****     if (g_numArbiters >= 100)    
 249              		.loc 1 66 1 is_stmt 0 view .LVU32
 250 0000 82B0     		sub	sp, sp, #8	@,,
 251              	.LCFI7:
 252              		.cfi_def_cfa_offset 8
 253              	@ src/b2d_lite.c:74:     g_arbiters[g_numArbiters]=value;
  68:src/b2d_lite.c ****     {
  69:src/b2d_lite.c ****         // printf("Exceeded max number of arbiters!\n");
  70:src/b2d_lite.c ****         // exit(1);
  71:src/b2d_lite.c ****     }
  72:src/b2d_lite.c ****     
  73:src/b2d_lite.c ****     g_arbiterKeys[g_numArbiters]=key;
  74:src/b2d_lite.c ****     g_arbiters[g_numArbiters]=value;
 254              		.loc 1 74 30 view .LVU33
ARM GAS  /tmp/ccPfsSwR.s 			page 7


 255 0002 DFF84CC0 		ldr	ip, .L13+8	@ tmp118,
 256              	@ src/b2d_lite.c:66: {
  66:src/b2d_lite.c ****     if (g_numArbiters >= 100)    
 257              		.loc 1 66 1 view .LVU34
 258 0006 F0B5     		push	{r4, r5, r6, r7, lr}	@
 259              	.LCFI8:
 260              		.cfi_def_cfa_offset 28
 261              		.cfi_offset 4, -28
 262              		.cfi_offset 5, -24
 263              		.cfi_offset 6, -20
 264              		.cfi_offset 7, -16
 265              		.cfi_offset 14, -12
 266 0008 83B0     		sub	sp, sp, #12	@,,
 267              	.LCFI9:
 268              		.cfi_def_cfa_offset 40
 269              	@ src/b2d_lite.c:67:     if (g_numArbiters >= 100)    
  67:src/b2d_lite.c ****     {
 270              		.loc 1 67 23 view .LVU35
 271 000a 0F4F     		ldr	r7, .L13	@ tmp113,
 272              	@ src/b2d_lite.c:73:     g_arbiterKeys[g_numArbiters]=key;
  73:src/b2d_lite.c ****     g_arbiters[g_numArbiters]=value;
 273              		.loc 1 73 33 view .LVU36
 274 000c 0F4D     		ldr	r5, .L13+4	@ tmp114,
 275              	@ src/b2d_lite.c:66: {
  66:src/b2d_lite.c ****     if (g_numArbiters >= 100)    
 276              		.loc 1 66 1 view .LVU37
 277 000e 6E46     		mov	r6, sp	@ tmp112,
 278              	@ src/b2d_lite.c:67:     if (g_numArbiters >= 100)    
  67:src/b2d_lite.c ****     {
 279              		.loc 1 67 23 view .LVU38
 280 0010 3C68     		ldr	r4, [r7]	@ g_numArbiters.1_1, g_numArbiters
  71:src/b2d_lite.c ****     
 281              		.loc 1 71 5 is_stmt 1 view .LVU39
  73:src/b2d_lite.c ****     g_arbiters[g_numArbiters]=value;
 282              		.loc 1 73 5 view .LVU40
 283              	@ src/b2d_lite.c:66: {
  66:src/b2d_lite.c ****     if (g_numArbiters >= 100)    
 284              		.loc 1 66 1 is_stmt 0 view .LVU41
 285 0012 86E80300 		stm	r6, {r0, r1}	@ tmp112,,
 286 0016 08A9     		add	r1, sp, #32	@ tmp130,,
 287              	@ src/b2d_lite.c:73:     g_arbiterKeys[g_numArbiters]=key;
  73:src/b2d_lite.c ****     g_arbiters[g_numArbiters]=value;
 288              		.loc 1 73 33 view .LVU42
 289 0018 05EBC405 		add	r5, r5, r4, lsl #3	@ tmp115, tmp114, g_numArbiters.1_1,
 290              	@ src/b2d_lite.c:74:     g_arbiters[g_numArbiters]=value;
 291              		.loc 1 74 30 view .LVU43
 292 001c 04EBC40E 		add	lr, r4, r4, lsl #3	@ tmp121, g_numArbiters.1_1, g_numArbiters.1_1,
 293              	@ src/b2d_lite.c:75:     g_numArbiters++;
  75:src/b2d_lite.c ****     g_numArbiters++;
 294              		.loc 1 75 18 view .LVU44
 295 0020 0134     		adds	r4, r4, #1	@ tmp129, g_numArbiters.1_1,
 296              	@ src/b2d_lite.c:66: {
  66:src/b2d_lite.c ****     if (g_numArbiters >= 100)    
 297              		.loc 1 66 1 view .LVU45
 298 0022 81E80C00 		stm	r1, {r2, r3}	@ tmp130,,
 299              	@ src/b2d_lite.c:73:     g_arbiterKeys[g_numArbiters]=key;
  73:src/b2d_lite.c ****     g_arbiters[g_numArbiters]=value;
ARM GAS  /tmp/ccPfsSwR.s 			page 8


 300              		.loc 1 73 33 view .LVU46
 301 0026 96E80300 		ldm	r6, {r0, r1}	@ tmp112,,
 302              	@ src/b2d_lite.c:74:     g_arbiters[g_numArbiters]=value;
  74:src/b2d_lite.c ****     g_numArbiters++;
 303              		.loc 1 74 30 view .LVU47
 304 002a 9022     		movs	r2, #144	@,
 305              	@ src/b2d_lite.c:73:     g_arbiterKeys[g_numArbiters]=key;
  73:src/b2d_lite.c ****     g_arbiters[g_numArbiters]=value;
 306              		.loc 1 73 33 view .LVU48
 307 002c 85E80300 		stm	r5, {r0, r1}	@ tmp115,,
  74:src/b2d_lite.c ****     g_numArbiters++;
 308              		.loc 1 74 5 is_stmt 1 view .LVU49
 309              	@ src/b2d_lite.c:74:     g_arbiters[g_numArbiters]=value;
  74:src/b2d_lite.c ****     g_numArbiters++;
 310              		.loc 1 74 30 is_stmt 0 view .LVU50
 311 0030 08A9     		add	r1, sp, #32	@,,
 312 0032 0CEB0E10 		add	r0, ip, lr, lsl #4	@, tmp118, tmp121,
 313 0036 FFF7FEFF 		bl	memcpy		@
 314              	.LVL5:
 315              		.loc 1 75 5 is_stmt 1 view .LVU51
 316              	@ src/b2d_lite.c:75:     g_numArbiters++;
 317              		.loc 1 75 18 is_stmt 0 view .LVU52
 318 003a 3C60     		str	r4, [r7]	@ tmp129, g_numArbiters
 319              	@ src/b2d_lite.c:76: }
  76:src/b2d_lite.c **** }
 320              		.loc 1 76 1 view .LVU53
 321 003c 03B0     		add	sp, sp, #12	@,,
 322              	.LCFI10:
 323              		.cfi_def_cfa_offset 28
 324              		@ sp needed	@
 325 003e BDE8F040 		pop	{r4, r5, r6, r7, lr}	@
 326              	.LCFI11:
 327              		.cfi_restore 14
 328              		.cfi_restore 7
 329              		.cfi_restore 6
 330              		.cfi_restore 5
 331              		.cfi_restore 4
 332              		.cfi_def_cfa_offset 8
 333 0042 02B0     		add	sp, sp, #8	@,,
 334              	.LCFI12:
 335              		.cfi_def_cfa_offset 0
 336 0044 7047     		bx	lr	@
 337              	.L14:
 338 0046 00BF     		.align	2
 339              	.L13:
 340 0048 00000000 		.word	g_numArbiters
 341 004c 00000000 		.word	g_arbiterKeys
 342 0050 00000000 		.word	g_arbiters
 343              		.cfi_endproc
 344              	.LFE4:
 345              		.size	insertArbiter, .-insertArbiter
 346              		.section	.text.eraseArbiter,"ax",%progbits
 347              		.align	1
 348              		.p2align 4,,15
 349              		.global	eraseArbiter
 350              		.syntax unified
 351              		.thumb
ARM GAS  /tmp/ccPfsSwR.s 			page 9


 352              		.thumb_func
 353              		.fpu fpv5-sp-d16
 354              		.type	eraseArbiter, %function
 355              	eraseArbiter:
 356              	.LFB5:
  77:src/b2d_lite.c **** 
  78:src/b2d_lite.c **** void eraseArbiter(struct ArbiterKey key)
  79:src/b2d_lite.c **** {
 357              		.loc 1 79 1 is_stmt 1 view -0
 358              		.cfi_startproc
 359              		@ args = 0, pretend = 0, frame = 16
 360              		@ frame_needed = 0, uses_anonymous_args = 0
  80:src/b2d_lite.c ****     for (int i=0; i < g_numArbiters; i++)
 361              		.loc 1 80 5 view .LVU55
 362              	.LBB30:
 363              		.loc 1 80 10 view .LVU56
 364              	.LVL6:
 365              		.loc 1 80 19 view .LVU57
 366              	.LBE30:
 367              	@ src/b2d_lite.c:79: {
  79:src/b2d_lite.c ****     for (int i=0; i < g_numArbiters; i++)
 368              		.loc 1 79 1 is_stmt 0 view .LVU58
 369 0000 2DE9F04F 		push	{r4, r5, r6, r7, r8, r9, r10, fp, lr}	@
 370              	.LCFI13:
 371              		.cfi_def_cfa_offset 36
 372              		.cfi_offset 4, -36
 373              		.cfi_offset 5, -32
 374              		.cfi_offset 6, -28
 375              		.cfi_offset 7, -24
 376              		.cfi_offset 8, -20
 377              		.cfi_offset 9, -16
 378              		.cfi_offset 10, -12
 379              		.cfi_offset 11, -8
 380              		.cfi_offset 14, -4
 381              	.LBB33:
 382              	@ src/b2d_lite.c:80:     for (int i=0; i < g_numArbiters; i++)
 383              		.loc 1 80 21 view .LVU59
 384 0004 DFF89880 		ldr	r8, .L28+12	@ tmp158,
 385              	.LBE33:
 386              	@ src/b2d_lite.c:79: {
  79:src/b2d_lite.c ****     for (int i=0; i < g_numArbiters; i++)
 387              		.loc 1 79 1 view .LVU60
 388 0008 85B0     		sub	sp, sp, #20	@,,
 389              	.LCFI14:
 390              		.cfi_def_cfa_offset 56
 391              	.LBB34:
 392              	@ src/b2d_lite.c:80:     for (int i=0; i < g_numArbiters; i++)
 393              		.loc 1 80 21 view .LVU61
 394 000a D8F80050 		ldr	r5, [r8]	@ prephitmp_8, g_numArbiters
 395              	.LBE34:
 396              	@ src/b2d_lite.c:79: {
  79:src/b2d_lite.c ****     for (int i=0; i < g_numArbiters; i++)
 397              		.loc 1 79 1 view .LVU62
 398 000e 04AB     		add	r3, sp, #16	@ tmp171,,
 399              	.LBB35:
 400              	@ src/b2d_lite.c:80:     for (int i=0; i < g_numArbiters; i++)
 401              		.loc 1 80 5 view .LVU63
ARM GAS  /tmp/ccPfsSwR.s 			page 10


 402 0010 002D     		cmp	r5, #0	@ prephitmp_8,
 403              	.LBE35:
 404              	@ src/b2d_lite.c:79: {
  79:src/b2d_lite.c ****     for (int i=0; i < g_numArbiters; i++)
 405              		.loc 1 79 1 view .LVU64
 406 0012 03E90300 		stmdb	r3, {r0, r1}	@ tmp171,,
 407              	.LBB36:
 408              	@ src/b2d_lite.c:80:     for (int i=0; i < g_numArbiters; i++)
 409              		.loc 1 80 5 view .LVU65
 410 0016 3ADD     		ble	.L15		@,
 411 0018 1E4E     		ldr	r6, .L28	@ tmp157,
 412              	@ src/b2d_lite.c:80:     for (int i=0; i < g_numArbiters; i++)
 413              		.loc 1 80 14 view .LVU66
 414 001a 0024     		movs	r4, #0	@ i,
 415 001c DDF80890 		ldr	r9, [sp, #8]	@ pretmp_21, key.body1
 416              	@ src/b2d_lite.c:83:             g_arbiterKeys[i].body2 == key.body2)
  81:src/b2d_lite.c ****     {    
  82:src/b2d_lite.c ****         if (g_arbiterKeys[i].body1 == key.body1 && 
  83:src/b2d_lite.c ****             g_arbiterKeys[i].body2 == key.body2)
 417              		.loc 1 83 29 view .LVU67
 418 0020 06F1040B 		add	fp, r6, #4	@ tmp160, tmp157,
 419 0024 04E0     		b	.L23		@
 420              	.LVL7:
 421              	.L19:
 422              		.loc 1 83 29 view .LVU68
 423 0026 D8F80050 		ldr	r5, [r8]	@ prephitmp_8, g_numArbiters
  80:src/b2d_lite.c ****     {    
 424              		.loc 1 80 38 is_stmt 1 view .LVU69
 425              	@ src/b2d_lite.c:80:     for (int i=0; i < g_numArbiters; i++)
  80:src/b2d_lite.c ****     {    
 426              		.loc 1 80 39 is_stmt 0 view .LVU70
 427 002a 0134     		adds	r4, r4, #1	@ i, i,
 428              	.LVL8:
  80:src/b2d_lite.c ****     {    
 429              		.loc 1 80 19 is_stmt 1 view .LVU71
 430              	@ src/b2d_lite.c:80:     for (int i=0; i < g_numArbiters; i++)
  80:src/b2d_lite.c ****     {    
 431              		.loc 1 80 5 is_stmt 0 view .LVU72
 432 002c A542     		cmp	r5, r4	@ prephitmp_8, i
 433 002e 2EDD     		ble	.L15		@,
 434              	.LVL9:
 435              	.L23:
  82:src/b2d_lite.c ****             g_arbiterKeys[i].body2 == key.body2)
 436              		.loc 1 82 9 is_stmt 1 view .LVU73
 437              	@ src/b2d_lite.c:82:         if (g_arbiterKeys[i].body1 == key.body1 && 
  82:src/b2d_lite.c ****             g_arbiterKeys[i].body2 == key.body2)
 438              		.loc 1 82 12 is_stmt 0 view .LVU74
 439 0030 56F83410 		ldr	r1, [r6, r4, lsl #3]	@ MEM[symbol: g_arbiterKeys, index: _44, step: 8, offset: 0B], MEM[symbol
 440              	@ src/b2d_lite.c:82:         if (g_arbiterKeys[i].body1 == key.body1 && 
  82:src/b2d_lite.c ****             g_arbiterKeys[i].body2 == key.body2)
 441              		.loc 1 82 29 view .LVU75
 442 0034 E300     		lsls	r3, r4, #3	@ tmp132, i,
 443 0036 06EBC402 		add	r2, r6, r4, lsl #3	@ tmp133, tmp157, i,
 444              	@ src/b2d_lite.c:82:         if (g_arbiterKeys[i].body1 == key.body1 && 
  82:src/b2d_lite.c ****             g_arbiterKeys[i].body2 == key.body2)
 445              		.loc 1 82 12 view .LVU76
 446 003a 4945     		cmp	r1, r9	@ MEM[symbol: g_arbiterKeys, index: _44, step: 8, offset: 0B], pretmp_21
ARM GAS  /tmp/ccPfsSwR.s 			page 11


 447 003c F3D1     		bne	.L19		@,
 448              	@ src/b2d_lite.c:82:         if (g_arbiterKeys[i].body1 == key.body1 && 
  82:src/b2d_lite.c ****             g_arbiterKeys[i].body2 == key.body2)
 449              		.loc 1 82 49 discriminator 1 view .LVU77
 450 003e 5BF83400 		ldr	r0, [fp, r4, lsl #3]	@ MEM[symbol: g_arbiterKeys, index: _44, step: 8, offset: 4B], MEM[symbol
 451 0042 0399     		ldr	r1, [sp, #12]	@ key.body2, key.body2
 452 0044 8842     		cmp	r0, r1	@ MEM[symbol: g_arbiterKeys, index: _44, step: 8, offset: 4B], key.body2
 453 0046 EED1     		bne	.L19		@,
 454              	.LVL10:
 455              	.LBB31:
  84:src/b2d_lite.c ****         {
  85:src/b2d_lite.c ****             for (int j=i; j < g_numArbiters-1; j++)
 456              		.loc 1 85 27 is_stmt 1 view .LVU78
 457              	@ src/b2d_lite.c:85:             for (int j=i; j < g_numArbiters-1; j++)
 458              		.loc 1 85 44 is_stmt 0 view .LVU79
 459 0048 691E     		subs	r1, r5, #1	@ _23, prephitmp_8,
 460              	@ src/b2d_lite.c:85:             for (int j=i; j < g_numArbiters-1; j++)
 461              		.loc 1 85 13 view .LVU80
 462 004a A142     		cmp	r1, r4	@ _23, i
 463              	@ src/b2d_lite.c:85:             for (int j=i; j < g_numArbiters-1; j++)
 464              		.loc 1 85 44 view .LVU81
 465 004c 0191     		str	r1, [sp, #4]	@ _23, %sfp
 466              	@ src/b2d_lite.c:85:             for (int j=i; j < g_numArbiters-1; j++)
 467              		.loc 1 85 13 view .LVU82
 468 004e 17DD     		ble	.L22		@,
 469 0050 1149     		ldr	r1, .L28+4	@ tmp177,
 470 0052 2344     		add	r3, r3, r4	@ tmp146, i
 471 0054 01EBC505 		add	r5, r1, r5, lsl #3	@ _41, tmp177, prephitmp_8,
 472 0058 1049     		ldr	r1, .L28+8	@ tmp178,
 473 005a 01EB031C 		add	ip, r1, r3, lsl #4	@ ivtmp.68, tmp178, tmp146,
 474              	.LVL11:
 475              	.L21:
  86:src/b2d_lite.c ****             {
  87:src/b2d_lite.c ****                 g_arbiterKeys[j]=g_arbiterKeys[j+1];
 476              		.loc 1 87 17 is_stmt 1 discriminator 3 view .LVU83
 477              	@ src/b2d_lite.c:87:                 g_arbiterKeys[j]=g_arbiterKeys[j+1];
 478              		.loc 1 87 33 is_stmt 0 discriminator 3 view .LVU84
 479 005e 02F10807 		add	r7, r2, #8	@ tmp152, ivtmp.67,
 480              	@ src/b2d_lite.c:88:                 g_arbiters[j]=g_arbiters[j+1];
  88:src/b2d_lite.c ****                 g_arbiters[j]=g_arbiters[j+1];
 481              		.loc 1 88 30 discriminator 3 view .LVU85
 482 0062 0CF1900A 		add	r10, ip, #144	@ tmp154, ivtmp.68,
 483              	@ src/b2d_lite.c:87:                 g_arbiterKeys[j]=g_arbiterKeys[j+1];
  87:src/b2d_lite.c ****                 g_arbiters[j]=g_arbiters[j+1];
 484              		.loc 1 87 33 discriminator 3 view .LVU86
 485 0066 97E80300 		ldm	r7, {r0, r1}	@ tmp152,,
 486 006a 82E80300 		stm	r2, {r0, r1}	@ ivtmp.67,,
 487              		.loc 1 88 17 is_stmt 1 discriminator 3 view .LVU87
 488              	@ src/b2d_lite.c:88:                 g_arbiters[j]=g_arbiters[j+1];
 489              		.loc 1 88 30 is_stmt 0 discriminator 3 view .LVU88
 490 006e 9022     		movs	r2, #144	@,
 491 0070 6046     		mov	r0, ip	@, ivtmp.68
 492 0072 5146     		mov	r1, r10	@, tmp154
 493 0074 FFF7FEFF 		bl	memcpy		@
 494              	.LVL12:
  85:src/b2d_lite.c ****             {
 495              		.loc 1 85 48 is_stmt 1 discriminator 3 view .LVU89
ARM GAS  /tmp/ccPfsSwR.s 			page 12


  85:src/b2d_lite.c ****             {
 496              		.loc 1 85 27 discriminator 3 view .LVU90
 497              	@ src/b2d_lite.c:85:             for (int j=i; j < g_numArbiters-1; j++)
  85:src/b2d_lite.c ****             {
 498              		.loc 1 85 13 is_stmt 0 discriminator 3 view .LVU91
 499 0078 AF42     		cmp	r7, r5	@ ivtmp.67, _41
 500 007a 3A46     		mov	r2, r7	@ ivtmp.67, tmp152
 501 007c D446     		mov	ip, r10	@ ivtmp.68, tmp154
 502 007e EED1     		bne	.L21		@,
 503              	.L22:
 504              	.LBE31:
  89:src/b2d_lite.c ****             }
  90:src/b2d_lite.c ****             g_numArbiters--;
 505              		.loc 1 90 13 is_stmt 1 view .LVU92
 506              	@ src/b2d_lite.c:90:             g_numArbiters--;
 507              		.loc 1 90 26 is_stmt 0 view .LVU93
 508 0080 019B     		ldr	r3, [sp, #4]	@ _23, %sfp
 509              	@ src/b2d_lite.c:80:     for (int i=0; i < g_numArbiters; i++)
  80:src/b2d_lite.c ****     {    
 510              		.loc 1 80 39 view .LVU94
 511 0082 0134     		adds	r4, r4, #1	@ i, i,
 512              	.LVL13:
 513              	.LBB32:
 514              	@ src/b2d_lite.c:85:             for (int j=i; j < g_numArbiters-1; j++)
  85:src/b2d_lite.c ****             {
 515              		.loc 1 85 44 view .LVU95
 516 0084 1D46     		mov	r5, r3	@ prephitmp_8, _23
 517              	.LBE32:
  80:src/b2d_lite.c ****     {    
 518              		.loc 1 80 38 is_stmt 1 view .LVU96
 519              	.LVL14:
  80:src/b2d_lite.c ****     {    
 520              		.loc 1 80 19 view .LVU97
 521              	@ src/b2d_lite.c:90:             g_numArbiters--;
 522              		.loc 1 90 26 is_stmt 0 view .LVU98
 523 0086 C8F80030 		str	r3, [r8]	@ _23, g_numArbiters
 524              	@ src/b2d_lite.c:80:     for (int i=0; i < g_numArbiters; i++)
  80:src/b2d_lite.c ****     {    
 525              		.loc 1 80 5 view .LVU99
 526 008a A542     		cmp	r5, r4	@ prephitmp_8, i
 527 008c D0DC     		bgt	.L23		@,
 528              	.LVL15:
 529              	.L15:
  80:src/b2d_lite.c ****     {    
 530              		.loc 1 80 5 view .LVU100
 531              	.LBE36:
 532              	@ src/b2d_lite.c:93: }
  91:src/b2d_lite.c ****         }
  92:src/b2d_lite.c ****     }                                        
  93:src/b2d_lite.c **** }
 533              		.loc 1 93 1 view .LVU101
 534 008e 05B0     		add	sp, sp, #20	@,,
 535              	.LCFI15:
 536              		.cfi_def_cfa_offset 36
 537              		@ sp needed	@
 538 0090 BDE8F08F 		pop	{r4, r5, r6, r7, r8, r9, r10, fp, pc}	@
 539              	.L29:
ARM GAS  /tmp/ccPfsSwR.s 			page 13


 540              		.align	2
 541              	.L28:
 542 0094 00000000 		.word	g_arbiterKeys
 543 0098 F8FFFFFF 		.word	g_arbiterKeys-8
 544 009c 00000000 		.word	g_arbiters
 545 00a0 00000000 		.word	g_numArbiters
 546              		.cfi_endproc
 547              	.LFE5:
 548              		.size	eraseArbiter, .-eraseArbiter
 549              		.section	.text.initContact,"ax",%progbits
 550              		.align	1
 551              		.p2align 4,,15
 552              		.global	initContact
 553              		.syntax unified
 554              		.thumb
 555              		.thumb_func
 556              		.fpu fpv5-sp-d16
 557              		.type	initContact, %function
 558              	initContact:
 559              	.LVL16:
 560              	.LFB6:
  94:src/b2d_lite.c **** 
  95:src/b2d_lite.c **** void initContact(struct Contact *c)
  96:src/b2d_lite.c **** {
 561              		.loc 1 96 1 is_stmt 1 view -0
 562              		.cfi_startproc
 563              		@ args = 0, pretend = 0, frame = 0
 564              		@ frame_needed = 0, uses_anonymous_args = 0
 565              		@ link register save eliminated.
  97:src/b2d_lite.c ****     c->Pn=0.0f;
 566              		.loc 1 97 5 view .LVU103
 567              	@ src/b2d_lite.c:97:     c->Pn=0.0f;
 568              		.loc 1 97 10 is_stmt 0 view .LVU104
 569 0000 0023     		movs	r3, #0	@ tmp111,
 570 0002 4362     		str	r3, [r0, #36]	@ float	@ tmp111, c_2(D)->Pn
  98:src/b2d_lite.c ****     c->Pt=0.0f;
 571              		.loc 1 98 5 is_stmt 1 view .LVU105
 572              	@ src/b2d_lite.c:98:     c->Pt=0.0f;
 573              		.loc 1 98 10 is_stmt 0 view .LVU106
 574 0004 8362     		str	r3, [r0, #40]	@ float	@ tmp111, c_2(D)->Pt
  99:src/b2d_lite.c ****     c->Pnb=0.0f;
 575              		.loc 1 99 5 is_stmt 1 view .LVU107
 576              	@ src/b2d_lite.c:99:     c->Pnb=0.0f;
 577              		.loc 1 99 11 is_stmt 0 view .LVU108
 578 0006 C362     		str	r3, [r0, #44]	@ float	@ tmp111, c_2(D)->Pnb
 579              	@ src/b2d_lite.c:100: }
 100:src/b2d_lite.c **** }
 580              		.loc 1 100 1 view .LVU109
 581 0008 7047     		bx	lr	@
 582              		.cfi_endproc
 583              	.LFE6:
 584              		.size	initContact, .-initContact
 585 000a 00BF     		.section	.text.UpdateArbiter,"ax",%progbits
 586              		.align	1
 587              		.p2align 4,,15
 588              		.global	UpdateArbiter
 589              		.syntax unified
ARM GAS  /tmp/ccPfsSwR.s 			page 14


 590              		.thumb
 591              		.thumb_func
 592              		.fpu fpv5-sp-d16
 593              		.type	UpdateArbiter, %function
 594              	UpdateArbiter:
 595              	.LVL17:
 596              	.LFB7:
 101:src/b2d_lite.c **** 
 102:src/b2d_lite.c **** void UpdateArbiter(struct Arbiter *a, struct Contact* newContacts, int numNewContacts)
 103:src/b2d_lite.c **** {
 597              		.loc 1 103 1 is_stmt 1 view -0
 598              		.cfi_startproc
 599              		@ args = 0, pretend = 0, frame = 136
 600              		@ frame_needed = 0, uses_anonymous_args = 0
 601              		.loc 1 103 1 is_stmt 0 view .LVU111
 602 0000 2DE9F04F 		push	{r4, r5, r6, r7, r8, r9, r10, fp, lr}	@
 603              	.LCFI16:
 604              		.cfi_def_cfa_offset 36
 605              		.cfi_offset 4, -36
 606              		.cfi_offset 5, -32
 607              		.cfi_offset 6, -28
 608              		.cfi_offset 7, -24
 609              		.cfi_offset 8, -20
 610              		.cfi_offset 9, -16
 611              		.cfi_offset 10, -12
 612              		.cfi_offset 11, -8
 613              		.cfi_offset 14, -4
 614              	.LBB37:
 615              	.LBB38:
 616              	@ src/b2d_lite.c:97:     c->Pn=0.0f;
  97:src/b2d_lite.c ****     c->Pt=0.0f;
 617              		.loc 1 97 10 view .LVU112
 618 0004 0023     		movs	r3, #0	@ tmp133,
 619              	.LBE38:
 620              	.LBE37:
 621              	@ src/b2d_lite.c:103: {
 622              		.loc 1 103 1 view .LVU113
 623 0006 A3B0     		sub	sp, sp, #140	@,,
 624              	.LCFI17:
 625              		.cfi_def_cfa_offset 176
 626              	.LBB40:
 627              	@ src/b2d_lite.c:108: 	for (int i = 0; i < numNewContacts; ++i)
 104:src/b2d_lite.c **** 	struct Contact mergedContacts[2];
 105:src/b2d_lite.c ****     initContact(&mergedContacts[0]);
 106:src/b2d_lite.c ****     initContact(&mergedContacts[1]);
 107:src/b2d_lite.c **** 
 108:src/b2d_lite.c **** 	for (int i = 0; i < numNewContacts; ++i)
 628              		.loc 1 108 2 view .LVU114
 629 0008 B2F10009 		subs	r9, r2, #0	@ numNewContacts, tmp161
 630              	.LBE40:
 631              	@ src/b2d_lite.c:103: {
 103:src/b2d_lite.c **** 	struct Contact mergedContacts[2];
 632              		.loc 1 103 1 view .LVU115
 633 000c 8046     		mov	r8, r0	@ a, tmp159
 104:src/b2d_lite.c **** 	struct Contact mergedContacts[2];
 634              		.loc 1 104 2 is_stmt 1 view .LVU116
 105:src/b2d_lite.c ****     initContact(&mergedContacts[1]);
ARM GAS  /tmp/ccPfsSwR.s 			page 15


 635              		.loc 1 105 5 view .LVU117
 636              	.LVL18:
 637              	.LBB51:
 638              	.LBI37:
  95:src/b2d_lite.c **** {
 639              		.loc 1 95 6 view .LVU118
 640              	.LBB39:
  97:src/b2d_lite.c ****     c->Pt=0.0f;
 641              		.loc 1 97 5 view .LVU119
 642              	@ src/b2d_lite.c:97:     c->Pn=0.0f;
  97:src/b2d_lite.c ****     c->Pt=0.0f;
 643              		.loc 1 97 10 is_stmt 0 view .LVU120
 644 000e 0B93     		str	r3, [sp, #44]	@ float	@ tmp133, MEM[(struct Contact *)&mergedContacts].Pn
  98:src/b2d_lite.c ****     c->Pnb=0.0f;
 645              		.loc 1 98 5 is_stmt 1 view .LVU121
 646              	@ src/b2d_lite.c:98:     c->Pt=0.0f;
  98:src/b2d_lite.c ****     c->Pnb=0.0f;
 647              		.loc 1 98 10 is_stmt 0 view .LVU122
 648 0010 0C93     		str	r3, [sp, #48]	@ float	@ tmp133, MEM[(struct Contact *)&mergedContacts].Pt
  99:src/b2d_lite.c **** }
 649              		.loc 1 99 5 is_stmt 1 view .LVU123
 650              	@ src/b2d_lite.c:99:     c->Pnb=0.0f;
  99:src/b2d_lite.c **** }
 651              		.loc 1 99 11 is_stmt 0 view .LVU124
 652 0012 0D93     		str	r3, [sp, #52]	@ float	@ tmp133, MEM[(struct Contact *)&mergedContacts].Pnb
 653              	.LVL19:
  99:src/b2d_lite.c **** }
 654              		.loc 1 99 11 view .LVU125
 655              	.LBE39:
 656              	.LBE51:
 106:src/b2d_lite.c **** 
 657              		.loc 1 106 5 is_stmt 1 view .LVU126
 658              	.LBB52:
 659              	.LBI52:
  95:src/b2d_lite.c **** {
 660              		.loc 1 95 6 view .LVU127
 661              	.LBB53:
  97:src/b2d_lite.c ****     c->Pt=0.0f;
 662              		.loc 1 97 5 view .LVU128
 663              	@ src/b2d_lite.c:97:     c->Pn=0.0f;
  97:src/b2d_lite.c ****     c->Pt=0.0f;
 664              		.loc 1 97 10 is_stmt 0 view .LVU129
 665 0014 1B93     		str	r3, [sp, #108]	@ float	@ tmp133, MEM[(struct Contact *)&mergedContacts + 64B].Pn
  98:src/b2d_lite.c ****     c->Pnb=0.0f;
 666              		.loc 1 98 5 is_stmt 1 view .LVU130
 667              	@ src/b2d_lite.c:98:     c->Pt=0.0f;
  98:src/b2d_lite.c ****     c->Pnb=0.0f;
 668              		.loc 1 98 10 is_stmt 0 view .LVU131
 669 0016 1C93     		str	r3, [sp, #112]	@ float	@ tmp133, MEM[(struct Contact *)&mergedContacts + 64B].Pt
  99:src/b2d_lite.c **** }
 670              		.loc 1 99 5 is_stmt 1 view .LVU132
 671              	@ src/b2d_lite.c:99:     c->Pnb=0.0f;
  99:src/b2d_lite.c **** }
 672              		.loc 1 99 11 is_stmt 0 view .LVU133
 673 0018 1D93     		str	r3, [sp, #116]	@ float	@ tmp133, MEM[(struct Contact *)&mergedContacts + 64B].Pnb
 674              	.LVL20:
  99:src/b2d_lite.c **** }
ARM GAS  /tmp/ccPfsSwR.s 			page 16


 675              		.loc 1 99 11 view .LVU134
 676              	.LBE53:
 677              	.LBE52:
 678              		.loc 1 108 2 is_stmt 1 view .LVU135
 679              	.LBB54:
 680              		.loc 1 108 7 view .LVU136
 681              		.loc 1 108 18 view .LVU137
 682              	@ src/b2d_lite.c:108: 	for (int i = 0; i < numNewContacts; ++i)
 683              		.loc 1 108 2 is_stmt 0 view .LVU138
 684 001a 4EDD     		ble	.L39		@,
 685              	.LBB41:
 686              	.LBB42:
 687              	@ src/b2d_lite.c:135: 				c->Pn = 0.0f;
 109:src/b2d_lite.c **** 	{
 110:src/b2d_lite.c **** 		struct Contact* cNew = newContacts + i;
 111:src/b2d_lite.c **** 		int k = -1;
 112:src/b2d_lite.c **** 		for (int j = 0; j < a->numContacts; ++j)
 113:src/b2d_lite.c **** 		{
 114:src/b2d_lite.c **** 			struct Contact* cOld = a->contacts + j;
 115:src/b2d_lite.c **** 			if (cNew->feature.value == cOld->feature.value)
 116:src/b2d_lite.c **** 			{
 117:src/b2d_lite.c **** 				k = j;
 118:src/b2d_lite.c **** 				break;
 119:src/b2d_lite.c **** 			}
 120:src/b2d_lite.c **** 		}
 121:src/b2d_lite.c **** 
 122:src/b2d_lite.c **** 		if (k > -1)
 123:src/b2d_lite.c **** 		{
 124:src/b2d_lite.c **** 			struct Contact* c = mergedContacts + i;
 125:src/b2d_lite.c **** 			struct Contact* cOld = a->contacts + k;
 126:src/b2d_lite.c **** 			*c = *cNew;
 127:src/b2d_lite.c **** 			if (warmStarting)
 128:src/b2d_lite.c **** 			{
 129:src/b2d_lite.c **** 				c->Pn = cOld->Pn;
 130:src/b2d_lite.c **** 				c->Pt = cOld->Pt;
 131:src/b2d_lite.c **** 				c->Pnb = cOld->Pnb;
 132:src/b2d_lite.c **** 			}
 133:src/b2d_lite.c **** 			else
 134:src/b2d_lite.c **** 			{
 135:src/b2d_lite.c **** 				c->Pn = 0.0f;
 688              		.loc 1 135 11 view .LVU139
 689 001c 07EE903A 		vmov	s15, r3	@ tmp157, tmp133
 690 0020 8C46     		mov	ip, r1	@ ivtmp.101, newContacts
 691 0022 4FEA8913 		lsl	r3, r9, #6	@ _56, numNewContacts,
 692 0026 D0F88070 		ldr	r7, [r0, #128]	@ pretmp_54, a_25(D)->numContacts
 693 002a 01EB891A 		add	r10, r1, r9, lsl #6	@ _65, ivtmp.101, numNewContacts,
 694 002e 0DF1080E 		add	lr, sp, #8	@ ivtmp.100,,
 695              	@ src/b2d_lite.c:127: 			if (warmStarting)
 127:src/b2d_lite.c **** 			{
 696              		.loc 1 127 8 view .LVU140
 697 0032 DFF8B8B0 		ldr	fp, .L50	@ tmp156,
 698 0036 0193     		str	r3, [sp, #4]	@ _56, %sfp
 699              	.LVL21:
 700              	.L37:
 127:src/b2d_lite.c **** 			{
 701              		.loc 1 127 8 view .LVU141
 702              	.LBE42:
ARM GAS  /tmp/ccPfsSwR.s 			page 17


 110:src/b2d_lite.c **** 		int k = -1;
 703              		.loc 1 110 3 is_stmt 1 view .LVU142
 111:src/b2d_lite.c **** 		for (int j = 0; j < a->numContacts; ++j)
 704              		.loc 1 111 3 view .LVU143
 112:src/b2d_lite.c **** 		{
 705              		.loc 1 112 3 view .LVU144
 706              	.LBB43:
 112:src/b2d_lite.c **** 		{
 707              		.loc 1 112 8 view .LVU145
 112:src/b2d_lite.c **** 		{
 708              		.loc 1 112 19 view .LVU146
 709              	@ src/b2d_lite.c:112: 		for (int j = 0; j < a->numContacts; ++j)
 112:src/b2d_lite.c **** 		{
 710              		.loc 1 112 3 is_stmt 0 view .LVU147
 711 0038 002F     		cmp	r7, #0	@ pretmp_54,
 712 003a 43DD     		ble	.L33		@,
 713              	.LBB44:
 714              	@ src/b2d_lite.c:115: 			if (cNew->feature.value == cOld->feature.value)
 115:src/b2d_lite.c **** 			{
 715              		.loc 1 115 21 view .LVU148
 716 003c DCF83C10 		ldr	r1, [ip, #60]	@ _6, MEM[base: _76, offset: 60B]
 717 0040 4446     		mov	r4, r8	@ ivtmp.95, a
 718              	.LBE44:
 719              	@ src/b2d_lite.c:112: 		for (int j = 0; j < a->numContacts; ++j)
 112:src/b2d_lite.c **** 		{
 720              		.loc 1 112 12 view .LVU149
 721 0042 0023     		movs	r3, #0	@ j,
 722 0044 03E0     		b	.L35		@
 723              	.LVL22:
 724              	.L48:
 725              	@ src/b2d_lite.c:112: 		for (int j = 0; j < a->numContacts; ++j)
 112:src/b2d_lite.c **** 		{
 726              		.loc 1 112 3 discriminator 2 view .LVU150
 727 0046 BB42     		cmp	r3, r7	@ j, pretmp_54
 728 0048 04F14004 		add	r4, r4, #64	@ ivtmp.95, ivtmp.95,
 729              	.LVL23:
 112:src/b2d_lite.c **** 		{
 730              		.loc 1 112 3 discriminator 2 view .LVU151
 731 004c 3AD0     		beq	.L33		@,
 732              	.LVL24:
 733              	.L35:
 734              	.LBB45:
 114:src/b2d_lite.c **** 			if (cNew->feature.value == cOld->feature.value)
 735              		.loc 1 114 4 is_stmt 1 view .LVU152
 115:src/b2d_lite.c **** 			{
 736              		.loc 1 115 4 view .LVU153
 737              	.LBE45:
 112:src/b2d_lite.c **** 		{
 738              		.loc 1 112 39 view .LVU154
 739              	.LBB46:
 740              	@ src/b2d_lite.c:115: 			if (cNew->feature.value == cOld->feature.value)
 115:src/b2d_lite.c **** 			{
 741              		.loc 1 115 7 is_stmt 0 view .LVU155
 742 004e E26B     		ldr	r2, [r4, #60]	@ MEM[base: cOld_32, offset: 60B], MEM[base: cOld_32, offset: 60B]
 743              	.LBE46:
 744              	@ src/b2d_lite.c:112: 		for (int j = 0; j < a->numContacts; ++j)
 112:src/b2d_lite.c **** 		{
ARM GAS  /tmp/ccPfsSwR.s 			page 18


 745              		.loc 1 112 39 view .LVU156
 746 0050 0133     		adds	r3, r3, #1	@ j, j,
 747              	.LVL25:
 112:src/b2d_lite.c **** 		{
 748              		.loc 1 112 19 is_stmt 1 view .LVU157
 749              	.LBB47:
 750              	@ src/b2d_lite.c:115: 			if (cNew->feature.value == cOld->feature.value)
 115:src/b2d_lite.c **** 			{
 751              		.loc 1 115 7 is_stmt 0 view .LVU158
 752 0052 9142     		cmp	r1, r2	@ _6, MEM[base: cOld_32, offset: 60B]
 753 0054 F7D1     		bne	.L48		@,
 754              	.LVL26:
 115:src/b2d_lite.c **** 			{
 755              		.loc 1 115 7 view .LVU159
 756              	.LBE47:
 757              	.LBE43:
 122:src/b2d_lite.c **** 		{
 758              		.loc 1 122 3 is_stmt 1 view .LVU160
 759              	.LBB48:
 124:src/b2d_lite.c **** 			struct Contact* cOld = a->contacts + k;
 760              		.loc 1 124 4 view .LVU161
 125:src/b2d_lite.c **** 			*c = *cNew;
 761              		.loc 1 125 4 view .LVU162
 126:src/b2d_lite.c **** 			if (warmStarting)
 762              		.loc 1 126 4 view .LVU163
 763              	@ src/b2d_lite.c:126: 			*c = *cNew;
 126:src/b2d_lite.c **** 			if (warmStarting)
 764              		.loc 1 126 7 is_stmt 0 view .LVU164
 765 0056 6646     		mov	r6, ip	@ _76, ivtmp.101
 766 0058 7546     		mov	r5, lr	@ _67, ivtmp.100
 767 005a 0FCE     		ldmia	r6!, {r0, r1, r2, r3}	@ _76,,,,
 768              	.LVL27:
 126:src/b2d_lite.c **** 			if (warmStarting)
 769              		.loc 1 126 7 view .LVU165
 770 005c 0FC5     		stmia	r5!, {r0, r1, r2, r3}	@ _67,,,,
 771 005e 0FCE     		ldmia	r6!, {r0, r1, r2, r3}	@ _76,,,,
 772 0060 0FC5     		stmia	r5!, {r0, r1, r2, r3}	@ _67,,,,
 773 0062 0FCE     		ldmia	r6!, {r0, r1, r2, r3}	@ _76,,,,
 774 0064 0FC5     		stmia	r5!, {r0, r1, r2, r3}	@ _67,,,,
 775 0066 96E80F00 		ldm	r6, {r0, r1, r2, r3}	@ _76,,,,
 776 006a 85E80F00 		stm	r5, {r0, r1, r2, r3}	@ _67,,,,
 127:src/b2d_lite.c **** 			{
 777              		.loc 1 127 4 is_stmt 1 view .LVU166
 778              	@ src/b2d_lite.c:127: 			if (warmStarting)
 127:src/b2d_lite.c **** 			{
 779              		.loc 1 127 7 is_stmt 0 view .LVU167
 780 006e DBF80030 		ldr	r3, [fp]	@ warmStarting, warmStarting
 781 0072 002B     		cmp	r3, #0	@ warmStarting
 782 0074 33D0     		beq	.L49	@
 129:src/b2d_lite.c **** 				c->Pt = cOld->Pt;
 783              		.loc 1 129 5 is_stmt 1 view .LVU168
 784              	@ src/b2d_lite.c:129: 				c->Pn = cOld->Pn;
 129:src/b2d_lite.c **** 				c->Pt = cOld->Pt;
 785              		.loc 1 129 11 is_stmt 0 view .LVU169
 786 0076 616A     		ldr	r1, [r4, #36]	@ float	@ cOld_32->Pn, cOld_32->Pn
 787              	@ src/b2d_lite.c:130: 				c->Pt = cOld->Pt;
 130:src/b2d_lite.c **** 				c->Pnb = cOld->Pnb;
ARM GAS  /tmp/ccPfsSwR.s 			page 19


 788              		.loc 1 130 11 view .LVU170
 789 0078 A26A     		ldr	r2, [r4, #40]	@ float	@ cOld_32->Pt, cOld_32->Pt
 790              	@ src/b2d_lite.c:131: 				c->Pnb = cOld->Pnb;
 131:src/b2d_lite.c **** 			}
 791              		.loc 1 131 12 view .LVU171
 792 007a E36A     		ldr	r3, [r4, #44]	@ float	@ cOld_32->Pnb, cOld_32->Pnb
 793              	@ src/b2d_lite.c:129: 				c->Pn = cOld->Pn;
 129:src/b2d_lite.c **** 				c->Pt = cOld->Pt;
 794              		.loc 1 129 11 view .LVU172
 795 007c CEF82410 		str	r1, [lr, #36]	@ float	@ cOld_32->Pn, MEM[base: _67, offset: 36B]
 130:src/b2d_lite.c **** 				c->Pnb = cOld->Pnb;
 796              		.loc 1 130 5 is_stmt 1 view .LVU173
 797              	@ src/b2d_lite.c:130: 				c->Pt = cOld->Pt;
 130:src/b2d_lite.c **** 				c->Pnb = cOld->Pnb;
 798              		.loc 1 130 11 is_stmt 0 view .LVU174
 799 0080 CEF82820 		str	r2, [lr, #40]	@ float	@ cOld_32->Pt, MEM[base: _67, offset: 40B]
 131:src/b2d_lite.c **** 			}
 800              		.loc 1 131 5 is_stmt 1 view .LVU175
 801              	@ src/b2d_lite.c:131: 				c->Pnb = cOld->Pnb;
 131:src/b2d_lite.c **** 			}
 802              		.loc 1 131 12 is_stmt 0 view .LVU176
 803 0084 CEF82C30 		str	r3, [lr, #44]	@ float	@ cOld_32->Pnb, MEM[base: _67, offset: 44B]
 804              	.LVL28:
 805              	.L36:
 131:src/b2d_lite.c **** 			}
 806              		.loc 1 131 12 view .LVU177
 807              	.LBE48:
 808              	.LBE41:
 108:src/b2d_lite.c **** 	{
 809              		.loc 1 108 38 is_stmt 1 discriminator 2 view .LVU178
 108:src/b2d_lite.c **** 	{
 810              		.loc 1 108 18 discriminator 2 view .LVU179
 811 0088 0CF1400C 		add	ip, ip, #64	@ ivtmp.101, ivtmp.101,
 812              	.LVL29:
 108:src/b2d_lite.c **** 	{
 813              		.loc 1 108 18 is_stmt 0 discriminator 2 view .LVU180
 814 008c 0EF1400E 		add	lr, lr, #64	@ ivtmp.100, ivtmp.100,
 815              	@ src/b2d_lite.c:108: 	for (int i = 0; i < numNewContacts; ++i)
 108:src/b2d_lite.c **** 	{
 816              		.loc 1 108 2 discriminator 2 view .LVU181
 817 0090 D445     		cmp	ip, r10	@ ivtmp.101, _65
 818 0092 D1D1     		bne	.L37		@,
 819 0094 0026     		movs	r6, #0	@ ivtmp.92,
 820 0096 019F     		ldr	r7, [sp, #4]	@ _56, %sfp
 821              	.L38:
 822              	.LBE54:
 823              	.LBB55:
 136:src/b2d_lite.c **** 				c->Pt = 0.0f;
 137:src/b2d_lite.c **** 				c->Pnb = 0.0f;
 138:src/b2d_lite.c **** 			}
 139:src/b2d_lite.c **** 		}
 140:src/b2d_lite.c **** 		else
 141:src/b2d_lite.c **** 		{
 142:src/b2d_lite.c **** 			mergedContacts[i] = newContacts[i];
 143:src/b2d_lite.c **** 		}
 144:src/b2d_lite.c **** 	}
 145:src/b2d_lite.c **** 
ARM GAS  /tmp/ccPfsSwR.s 			page 20


 146:src/b2d_lite.c **** 	for (int i = 0; i < numNewContacts; ++i)
 147:src/b2d_lite.c **** 		a->contacts[i] = mergedContacts[i];
 824              		.loc 1 147 3 is_stmt 1 discriminator 3 view .LVU182
 825              	@ src/b2d_lite.c:147: 		a->contacts[i] = mergedContacts[i];
 826              		.loc 1 147 18 is_stmt 0 discriminator 3 view .LVU183
 827 0098 02AB     		add	r3, sp, #8	@ tmp183,,
 828 009a 08EB0604 		add	r4, r8, r6	@ tmp147, a, ivtmp.92
 829 009e 9D19     		adds	r5, r3, r6	@ tmp148, tmp183, ivtmp.92
 830 00a0 4036     		adds	r6, r6, #64	@ ivtmp.92, ivtmp.92,
 831 00a2 0FCD     		ldmia	r5!, {r0, r1, r2, r3}	@ tmp148,,,,
 832 00a4 0FC4     		stmia	r4!, {r0, r1, r2, r3}	@ tmp147,,,,
 833 00a6 0FCD     		ldmia	r5!, {r0, r1, r2, r3}	@ tmp148,,,,
 834 00a8 0FC4     		stmia	r4!, {r0, r1, r2, r3}	@ tmp147,,,,
 835 00aa 0FCD     		ldmia	r5!, {r0, r1, r2, r3}	@ tmp148,,,,
 836              	@ src/b2d_lite.c:146: 	for (int i = 0; i < numNewContacts; ++i)
 146:src/b2d_lite.c **** 		a->contacts[i] = mergedContacts[i];
 837              		.loc 1 146 2 discriminator 3 view .LVU184
 838 00ac BE42     		cmp	r6, r7	@ ivtmp.92, _56
 839              	@ src/b2d_lite.c:147: 		a->contacts[i] = mergedContacts[i];
 840              		.loc 1 147 18 discriminator 3 view .LVU185
 841 00ae 0FC4     		stmia	r4!, {r0, r1, r2, r3}	@ tmp147,,,,
 842 00b0 95E80F00 		ldm	r5, {r0, r1, r2, r3}	@ tmp148,,,,
 843 00b4 84E80F00 		stm	r4, {r0, r1, r2, r3}	@ tmp147,,,,
 146:src/b2d_lite.c **** 		a->contacts[i] = mergedContacts[i];
 844              		.loc 1 146 38 is_stmt 1 discriminator 3 view .LVU186
 146:src/b2d_lite.c **** 		a->contacts[i] = mergedContacts[i];
 845              		.loc 1 146 18 discriminator 3 view .LVU187
 846              	@ src/b2d_lite.c:146: 	for (int i = 0; i < numNewContacts; ++i)
 146:src/b2d_lite.c **** 		a->contacts[i] = mergedContacts[i];
 847              		.loc 1 146 2 is_stmt 0 discriminator 3 view .LVU188
 848 00b8 EED1     		bne	.L38		@,
 849              	.LVL30:
 850              	.L39:
 146:src/b2d_lite.c **** 		a->contacts[i] = mergedContacts[i];
 851              		.loc 1 146 2 discriminator 3 view .LVU189
 852              	.LBE55:
 148:src/b2d_lite.c **** 
 149:src/b2d_lite.c **** 	a->numContacts = numNewContacts;
 853              		.loc 1 149 2 is_stmt 1 view .LVU190
 854              	@ src/b2d_lite.c:149: 	a->numContacts = numNewContacts;
 855              		.loc 1 149 17 is_stmt 0 view .LVU191
 856 00ba C8F88090 		str	r9, [r8, #128]	@ numNewContacts, a_25(D)->numContacts
 857              	@ src/b2d_lite.c:150: }
 150:src/b2d_lite.c **** }
 858              		.loc 1 150 1 view .LVU192
 859 00be 23B0     		add	sp, sp, #140	@,,
 860              	.LCFI18:
 861              		.cfi_remember_state
 862              		.cfi_def_cfa_offset 36
 863              		@ sp needed	@
 864 00c0 BDE8F08F 		pop	{r4, r5, r6, r7, r8, r9, r10, fp, pc}	@
 865              	.LVL31:
 866              	.L33:
 867              	.LCFI19:
 868              		.cfi_restore_state
 869              	.LBB56:
 870              	.LBB50:
ARM GAS  /tmp/ccPfsSwR.s 			page 21


 122:src/b2d_lite.c **** 		{
 871              		.loc 1 122 3 is_stmt 1 view .LVU193
 142:src/b2d_lite.c **** 		}
 872              		.loc 1 142 4 view .LVU194
 873              	@ src/b2d_lite.c:142: 			mergedContacts[i] = newContacts[i];
 142:src/b2d_lite.c **** 		}
 874              		.loc 1 142 22 is_stmt 0 view .LVU195
 875 00c4 6546     		mov	r5, ip	@ ivtmp.101, ivtmp.101
 876 00c6 7446     		mov	r4, lr	@ ivtmp.100, ivtmp.100
 877 00c8 0FCD     		ldmia	r5!, {r0, r1, r2, r3}	@ ivtmp.101,,,,
 878 00ca 0FC4     		stmia	r4!, {r0, r1, r2, r3}	@ ivtmp.100,,,,
 879 00cc 0FCD     		ldmia	r5!, {r0, r1, r2, r3}	@ ivtmp.101,,,,
 880 00ce 0FC4     		stmia	r4!, {r0, r1, r2, r3}	@ ivtmp.100,,,,
 881 00d0 0FCD     		ldmia	r5!, {r0, r1, r2, r3}	@ ivtmp.101,,,,
 882 00d2 0FC4     		stmia	r4!, {r0, r1, r2, r3}	@ ivtmp.100,,,,
 883 00d4 95E80F00 		ldm	r5, {r0, r1, r2, r3}	@ ivtmp.101,,,,
 884 00d8 84E80F00 		stm	r4, {r0, r1, r2, r3}	@ ivtmp.100,,,,
 885 00dc D4E7     		b	.L36		@
 886              	.LVL32:
 887              	.L49:
 888              	.LBB49:
 135:src/b2d_lite.c **** 				c->Pt = 0.0f;
 889              		.loc 1 135 5 is_stmt 1 view .LVU196
 890              	@ src/b2d_lite.c:135: 				c->Pn = 0.0f;
 135:src/b2d_lite.c **** 				c->Pt = 0.0f;
 891              		.loc 1 135 11 is_stmt 0 view .LVU197
 892 00de CEED097A 		vstr.32	s15, [lr, #36]	@ tmp157, MEM[base: _67, offset: 36B]
 136:src/b2d_lite.c **** 				c->Pnb = 0.0f;
 893              		.loc 1 136 5 is_stmt 1 view .LVU198
 894              	@ src/b2d_lite.c:136: 				c->Pt = 0.0f;
 136:src/b2d_lite.c **** 				c->Pnb = 0.0f;
 895              		.loc 1 136 11 is_stmt 0 view .LVU199
 896 00e2 CEED0A7A 		vstr.32	s15, [lr, #40]	@ tmp157, MEM[base: _67, offset: 40B]
 137:src/b2d_lite.c **** 			}
 897              		.loc 1 137 5 is_stmt 1 view .LVU200
 898              	@ src/b2d_lite.c:137: 				c->Pnb = 0.0f;
 137:src/b2d_lite.c **** 			}
 899              		.loc 1 137 12 is_stmt 0 view .LVU201
 900 00e6 CEED0B7A 		vstr.32	s15, [lr, #44]	@ tmp157, MEM[base: _67, offset: 44B]
 901 00ea CDE7     		b	.L36		@
 902              	.L51:
 903              		.align	2
 904              	.L50:
 905 00ec 00000000 		.word	.LANCHOR0
 906              	.LBE49:
 907              	.LBE50:
 908              	.LBE56:
 909              		.cfi_endproc
 910              	.LFE7:
 911              		.size	UpdateArbiter, .-UpdateArbiter
 912              		.section	.text.BroadPhase,"ax",%progbits
 913              		.align	1
 914              		.p2align 4,,15
 915              		.global	BroadPhase
 916              		.syntax unified
 917              		.thumb
 918              		.thumb_func
ARM GAS  /tmp/ccPfsSwR.s 			page 22


 919              		.fpu fpv5-sp-d16
 920              		.type	BroadPhase, %function
 921              	BroadPhase:
 922              	.LFB8:
 151:src/b2d_lite.c **** 
 152:src/b2d_lite.c **** 
 153:src/b2d_lite.c **** void BroadPhase()
 154:src/b2d_lite.c **** {
 923              		.loc 1 154 1 is_stmt 1 view -0
 924              		.cfi_startproc
 925              		@ args = 0, pretend = 0, frame = 312
 926              		@ frame_needed = 0, uses_anonymous_args = 0
 155:src/b2d_lite.c ****     for (int i=0; i< g_numBodies; i++)
 927              		.loc 1 155 5 view .LVU203
 928              	.LBB57:
 929              		.loc 1 155 10 view .LVU204
 930              	.LVL33:
 931              		.loc 1 155 19 view .LVU205
 932              	@ src/b2d_lite.c:155:     for (int i=0; i< g_numBodies; i++)
 933              		.loc 1 155 20 is_stmt 0 view .LVU206
 934 0000 594B     		ldr	r3, .L80	@ tmp259,
 935 0002 1B68     		ldr	r3, [r3]	@ g_numBodies.14_13, g_numBodies
 936              	@ src/b2d_lite.c:155:     for (int i=0; i< g_numBodies; i++)
 937              		.loc 1 155 5 view .LVU207
 938 0004 002B     		cmp	r3, #0	@ g_numBodies.14_13,
 939 0006 40F3A980 		ble	.L75		@,
 940 000a 584A     		ldr	r2, .L80+4	@ ivtmp.127,
 941              	.LBE57:
 942              	@ src/b2d_lite.c:154: {
 154:src/b2d_lite.c ****     for (int i=0; i< g_numBodies; i++)
 943              		.loc 1 154 1 view .LVU208
 944 000c 2DE9F04F 		push	{r4, r5, r6, r7, r8, r9, r10, fp, lr}	@
 945              	.LCFI20:
 946              		.cfi_def_cfa_offset 36
 947              		.cfi_offset 4, -36
 948              		.cfi_offset 5, -32
 949              		.cfi_offset 6, -28
 950              		.cfi_offset 7, -24
 951              		.cfi_offset 8, -20
 952              		.cfi_offset 9, -16
 953              		.cfi_offset 10, -12
 954              		.cfi_offset 11, -8
 955              		.cfi_offset 14, -4
 956 0010 2DED028B 		vpush.64	{d8}	@
 957              	.LCFI21:
 958              		.cfi_def_cfa_offset 44
 959              		.cfi_offset 80, -44
 960              		.cfi_offset 81, -40
 961 0014 CFB0     		sub	sp, sp, #316	@,,
 962              	.LCFI22:
 963              		.cfi_def_cfa_offset 360
 964              	.LBB90:
 965              	.LBB58:
 966              	.LBB59:
 967              	.LBB60:
 968              	.LBB61:
 969              	.LBB62:
ARM GAS  /tmp/ccPfsSwR.s 			page 23


 970              	@ src/b2d_lite.c:97:     c->Pn=0.0f;
  97:src/b2d_lite.c ****     c->Pt=0.0f;
 971              		.loc 1 97 10 view .LVU209
 972 0016 9FED568A 		vldr.32	s16, .L80+8	@ tmp238,
 973              	.LBE62:
 974              	.LBE61:
 975              	.LBB65:
 976              	.LBB66:
 977              	.LBB67:
 978              	@ src/b2d_lite.c:58:             g_arbiterKeys[i].body2 == key.body2)
  58:src/b2d_lite.c ****            return &g_arbiters[i];
 979              		.loc 1 58 29 view .LVU210
 980 001a DFF864B1 		ldr	fp, .L80+24	@ tmp239,
 981 001e 0392     		str	r2, [sp, #12]	@ ivtmp.127, %sfp
 982              	.LBE67:
 983              	.LBE66:
 984              	.LBE65:
 985              	.LBE60:
 986              	.LBE59:
 987              	.LBE58:
 988              	@ src/b2d_lite.c:155:     for (int i=0; i< g_numBodies; i++)
 989              		.loc 1 155 14 view .LVU211
 990 0020 0022     		movs	r2, #0	@ i,
 991 0022 0292     		str	r2, [sp, #8]	@ i, %sfp
 992              	.LVL34:
 993              	.L66:
 994              	.LBB88:
 156:src/b2d_lite.c ****     {
 157:src/b2d_lite.c ****         struct Body* bi = g_bodies[i];
 995              		.loc 1 157 9 is_stmt 1 view .LVU212
 996              	.LBB83:
 997              	@ src/b2d_lite.c:159:         for (int j=i+1; j < g_numBodies; j++)
 158:src/b2d_lite.c ****         
 159:src/b2d_lite.c ****         for (int j=i+1; j < g_numBodies; j++)
 998              		.loc 1 159 18 is_stmt 0 view .LVU213
 999 0024 029A     		ldr	r2, [sp, #8]	@ i, %sfp
 1000              	.LBE83:
 1001              	@ src/b2d_lite.c:157:         struct Body* bi = g_bodies[i];
 157:src/b2d_lite.c ****         
 1002              		.loc 1 157 22 view .LVU214
 1003 0026 0398     		ldr	r0, [sp, #12]	@ ivtmp.127, %sfp
 1004              	.LBB84:
 1005              	@ src/b2d_lite.c:159:         for (int j=i+1; j < g_numBodies; j++)
 1006              		.loc 1 159 18 view .LVU215
 1007 0028 0132     		adds	r2, r2, #1	@ i, i,
 1008              	.LBE84:
 1009              	@ src/b2d_lite.c:157:         struct Body* bi = g_bodies[i];
 157:src/b2d_lite.c ****         
 1010              		.loc 1 157 22 view .LVU216
 1011 002a 50F8049B 		ldr	r9, [r0], #4	@ bi, MEM[base: _71, offset: 0B]
 1012              	.LBB85:
 1013              	@ src/b2d_lite.c:159:         for (int j=i+1; j < g_numBodies; j++)
 1014              		.loc 1 159 9 view .LVU217
 1015 002e 9342     		cmp	r3, r2	@ g_numBodies.14_13, i
 1016              	@ src/b2d_lite.c:159:         for (int j=i+1; j < g_numBodies; j++)
 1017              		.loc 1 159 18 view .LVU218
 1018 0030 0292     		str	r2, [sp, #8]	@ i, %sfp
ARM GAS  /tmp/ccPfsSwR.s 			page 24


 1019              	.LVL35:
 1020              		.loc 1 159 18 view .LVU219
 1021              	.LBE85:
 1022              	@ src/b2d_lite.c:157:         struct Body* bi = g_bodies[i];
 157:src/b2d_lite.c ****         
 1023              		.loc 1 157 22 view .LVU220
 1024 0032 0390     		str	r0, [sp, #12]	@ ivtmp.127, %sfp
 1025              	.LVL36:
 1026              		.loc 1 159 9 is_stmt 1 view .LVU221
 1027              	.LBB86:
 1028              		.loc 1 159 14 view .LVU222
 1029              		.loc 1 159 25 view .LVU223
 1030              	@ src/b2d_lite.c:159:         for (int j=i+1; j < g_numBodies; j++)
 1031              		.loc 1 159 9 is_stmt 0 view .LVU224
 1032 0034 68DD     		ble	.L52		@,
 1033 0036 9246     		mov	r10, r2	@ j, i
 1034 0038 0190     		str	r0, [sp, #4]	@ ivtmp.127, %sfp
 1035              	.LVL37:
 1036              	.L56:
 1037              	.LBB81:
 160:src/b2d_lite.c ****         {
 161:src/b2d_lite.c ****             struct Body* bj = g_bodies[j];
 1038              		.loc 1 161 13 is_stmt 1 view .LVU225
 1039              	@ src/b2d_lite.c:163:             if (bi->invMass == 0.0f && bj->invMass == 0.0f)
 162:src/b2d_lite.c **** 
 163:src/b2d_lite.c ****             if (bi->invMass == 0.0f && bj->invMass == 0.0f)
 1040              		.loc 1 163 16 is_stmt 0 view .LVU226
 1041 003a D9ED0D7A 		vldr.32	s15, [r9, #52]	@ bi_24->invMass, bi_24->invMass
 1042              	@ src/b2d_lite.c:161:             struct Body* bj = g_bodies[j];
 161:src/b2d_lite.c **** 
 1043              		.loc 1 161 26 view .LVU227
 1044 003e 019B     		ldr	r3, [sp, #4]	@ ivtmp.121, %sfp
 1045              	@ src/b2d_lite.c:163:             if (bi->invMass == 0.0f && bj->invMass == 0.0f)
 1046              		.loc 1 163 16 view .LVU228
 1047 0040 F5EE407A 		vcmp.f32	s15, #0	@ bi_24->invMass
 1048              	@ src/b2d_lite.c:161:             struct Body* bj = g_bodies[j];
 161:src/b2d_lite.c **** 
 1049              		.loc 1 161 26 view .LVU229
 1050 0044 53F8045B 		ldr	r5, [r3], #4	@ key$body1, MEM[base: _76, offset: 0B]
 1051              	@ src/b2d_lite.c:163:             if (bi->invMass == 0.0f && bj->invMass == 0.0f)
 1052              		.loc 1 163 16 view .LVU230
 1053 0048 F1EE10FA 		vmrs	APSR_nzcv, FPSCR
 1054              	@ src/b2d_lite.c:161:             struct Body* bj = g_bodies[j];
 161:src/b2d_lite.c **** 
 1055              		.loc 1 161 26 view .LVU231
 1056 004c 0193     		str	r3, [sp, #4]	@ ivtmp.121, %sfp
 1057              	.LVL38:
 1058              		.loc 1 163 13 is_stmt 1 view .LVU232
 1059              	@ src/b2d_lite.c:163:             if (bi->invMass == 0.0f && bj->invMass == 0.0f)
 1060              		.loc 1 163 16 is_stmt 0 view .LVU233
 1061 004e 06D1     		bne	.L55		@,
 1062              	@ src/b2d_lite.c:163:             if (bi->invMass == 0.0f && bj->invMass == 0.0f)
 1063              		.loc 1 163 37 discriminator 1 view .LVU234
 1064 0050 D5ED0D7A 		vldr.32	s15, [r5, #52]	@ bj_27->invMass, bj_27->invMass
 1065 0054 F5EE407A 		vcmp.f32	s15, #0	@ bj_27->invMass
 1066 0058 F1EE10FA 		vmrs	APSR_nzcv, FPSCR
 1067 005c 4AD0     		beq	.L64		@,
ARM GAS  /tmp/ccPfsSwR.s 			page 25


 1068              	.L55:
 164:src/b2d_lite.c ****                 continue;
 165:src/b2d_lite.c **** 
 166:src/b2d_lite.c ****             struct Arbiter newArb;
 1069              		.loc 1 166 13 is_stmt 1 view .LVU235
 167:src/b2d_lite.c ****             struct ArbiterKey key;
 1070              		.loc 1 167 13 view .LVU236
 168:src/b2d_lite.c **** 
 169:src/b2d_lite.c ****             if (bi<bj)
 1071              		.loc 1 169 13 view .LVU237
 1072              	@ src/b2d_lite.c:169:             if (bi<bj)
 1073              		.loc 1 169 16 is_stmt 0 view .LVU238
 1074 005e A945     		cmp	r9, r5	@ bi, key$body1
 1075              	@ src/b2d_lite.c:171:                 newArb.body1=bi;
 170:src/b2d_lite.c ****             {
 171:src/b2d_lite.c ****                 newArb.body1=bi;
 1076              		.loc 1 171 29 view .LVU239
 1077 0060 06AC     		add	r4, sp, #24	@ tmp233,,
 1078              	@ src/b2d_lite.c:169:             if (bi<bj)
 169:src/b2d_lite.c ****             {
 1079              		.loc 1 169 16 view .LVU240
 1080 0062 56D2     		bcs	.L58		@,
 1081              		.loc 1 171 17 is_stmt 1 view .LVU241
 1082 0064 A846     		mov	r8, r5	@ key$body2, key$body1
 1083              	@ src/b2d_lite.c:172:                 newArb.body2=bj;
 172:src/b2d_lite.c ****                 newArb.body2=bj;
 1084              		.loc 1 172 29 is_stmt 0 view .LVU242
 1085 0066 C4F88850 		str	r5, [r4, #136]	@ key$body1, newArb.body2
 1086 006a 4D46     		mov	r5, r9	@ key$body1, bi
 1087              	.LVL39:
 1088              	@ src/b2d_lite.c:171:                 newArb.body1=bi;
 171:src/b2d_lite.c ****                 newArb.body2=bj;
 1089              		.loc 1 171 29 view .LVU243
 1090 006c C4F88490 		str	r9, [r4, #132]	@ bi, newArb.body1
 1091              		.loc 1 172 17 is_stmt 1 view .LVU244
 173:src/b2d_lite.c ****                 key.body1=bi;
 1092              		.loc 1 173 17 view .LVU245
 1093              	.LVL40:
 174:src/b2d_lite.c ****                 key.body2=bj;    
 1094              		.loc 1 174 17 view .LVU246
 1095              	.L59:
 175:src/b2d_lite.c ****             }
 176:src/b2d_lite.c ****             else
 177:src/b2d_lite.c ****             {
 178:src/b2d_lite.c ****                 newArb.body1=bj;
 179:src/b2d_lite.c ****                 newArb.body2=bi;
 180:src/b2d_lite.c ****                 key.body1=bj;
 181:src/b2d_lite.c ****                 key.body2=bi;
 182:src/b2d_lite.c ****             }
 183:src/b2d_lite.c **** 
 184:src/b2d_lite.c ****             initContact(&newArb.contacts[0]);
 1096              		.loc 1 184 13 view .LVU247
 1097              	.LBB75:
 1098              	.LBI61:
  95:src/b2d_lite.c **** {
 1099              		.loc 1 95 6 view .LVU248
 1100              	.LBB63:
ARM GAS  /tmp/ccPfsSwR.s 			page 26


  97:src/b2d_lite.c ****     c->Pt=0.0f;
 1101              		.loc 1 97 5 view .LVU249
 1102              	.LBE63:
 1103              	.LBE75:
 1104              	@ src/b2d_lite.c:187:             newArb.numContacts = Collide(newArb.contacts, newArb.body1, newAr
 185:src/b2d_lite.c ****             initContact(&newArb.contacts[1]);
 186:src/b2d_lite.c ****             
 187:src/b2d_lite.c ****             newArb.numContacts = Collide(newArb.contacts, newArb.body1, newArb.body2);  
 1105              		.loc 1 187 34 is_stmt 0 view .LVU250
 1106 0070 4246     		mov	r2, r8	@, key$body2
 1107 0072 2946     		mov	r1, r5	@, key$body1
 1108 0074 2046     		mov	r0, r4	@, tmp233
 1109              	.LBB76:
 1110              	.LBB64:
 1111              	@ src/b2d_lite.c:97:     c->Pn=0.0f;
  97:src/b2d_lite.c ****     c->Pt=0.0f;
 1112              		.loc 1 97 10 view .LVU251
 1113 0076 84ED098A 		vstr.32	s16, [r4, #36]	@ tmp238, MEM[(struct Contact *)&newArb].Pn
  98:src/b2d_lite.c ****     c->Pnb=0.0f;
 1114              		.loc 1 98 5 is_stmt 1 view .LVU252
 1115              	@ src/b2d_lite.c:98:     c->Pt=0.0f;
  98:src/b2d_lite.c ****     c->Pnb=0.0f;
 1116              		.loc 1 98 10 is_stmt 0 view .LVU253
 1117 007a 84ED0A8A 		vstr.32	s16, [r4, #40]	@ tmp238, MEM[(struct Contact *)&newArb].Pt
  99:src/b2d_lite.c **** }
 1118              		.loc 1 99 5 is_stmt 1 view .LVU254
 1119              	@ src/b2d_lite.c:99:     c->Pnb=0.0f;
  99:src/b2d_lite.c **** }
 1120              		.loc 1 99 11 is_stmt 0 view .LVU255
 1121 007e 84ED0B8A 		vstr.32	s16, [r4, #44]	@ tmp238, MEM[(struct Contact *)&newArb].Pnb
 1122              	.LVL41:
  99:src/b2d_lite.c **** }
 1123              		.loc 1 99 11 view .LVU256
 1124              	.LBE64:
 1125              	.LBE76:
 185:src/b2d_lite.c ****             initContact(&newArb.contacts[1]);
 1126              		.loc 1 185 13 is_stmt 1 view .LVU257
 1127              	.LBB77:
 1128              	.LBI77:
  95:src/b2d_lite.c **** {
 1129              		.loc 1 95 6 view .LVU258
 1130              	.LBB78:
  97:src/b2d_lite.c ****     c->Pt=0.0f;
 1131              		.loc 1 97 5 view .LVU259
 1132              	@ src/b2d_lite.c:97:     c->Pn=0.0f;
  97:src/b2d_lite.c ****     c->Pt=0.0f;
 1133              		.loc 1 97 10 is_stmt 0 view .LVU260
 1134 0082 84ED198A 		vstr.32	s16, [r4, #100]	@ tmp238, MEM[(struct Contact *)&newArb + 64B].Pn
  98:src/b2d_lite.c ****     c->Pnb=0.0f;
 1135              		.loc 1 98 5 is_stmt 1 view .LVU261
 1136              	@ src/b2d_lite.c:98:     c->Pt=0.0f;
  98:src/b2d_lite.c ****     c->Pnb=0.0f;
 1137              		.loc 1 98 10 is_stmt 0 view .LVU262
 1138 0086 84ED1A8A 		vstr.32	s16, [r4, #104]	@ tmp238, MEM[(struct Contact *)&newArb + 64B].Pt
  99:src/b2d_lite.c **** }
 1139              		.loc 1 99 5 is_stmt 1 view .LVU263
 1140              	@ src/b2d_lite.c:99:     c->Pnb=0.0f;
ARM GAS  /tmp/ccPfsSwR.s 			page 27


  99:src/b2d_lite.c **** }
 1141              		.loc 1 99 11 is_stmt 0 view .LVU264
 1142 008a 84ED1B8A 		vstr.32	s16, [r4, #108]	@ tmp238, MEM[(struct Contact *)&newArb + 64B].Pnb
 1143              	.LVL42:
  99:src/b2d_lite.c **** }
 1144              		.loc 1 99 11 view .LVU265
 1145              	.LBE78:
 1146              	.LBE77:
 1147              		.loc 1 187 13 is_stmt 1 view .LVU266
 1148              	@ src/b2d_lite.c:187:             newArb.numContacts = Collide(newArb.contacts, newArb.body1, newAr
 1149              		.loc 1 187 34 is_stmt 0 view .LVU267
 1150 008e FFF7FEFF 		bl	Collide		@
 1151              	.LVL43:
 1152              	@ src/b2d_lite.c:188:             newArb.friction = sqrtf(newArb.body1->friction * newArb.body2->fr
 188:src/b2d_lite.c ****             newArb.friction = sqrtf(newArb.body1->friction * newArb.body2->friction);
 1153              		.loc 1 188 74 view .LVU268
 1154 0092 D4E92121 		ldrd	r2, r1, [r4, #132]	@ newArb.body1, newArb.body2, tmp233,
 1155              	@ src/b2d_lite.c:188:             newArb.friction = sqrtf(newArb.body1->friction * newArb.body2->fr
 1156              		.loc 1 188 31 view .LVU269
 1157 0096 92ED0B0A 		vldr.32	s0, [r2, #44]	@ _6->friction, _6->friction
 1158 009a D1ED0B7A 		vldr.32	s15, [r1, #44]	@ _8->friction, _8->friction
 1159              	@ src/b2d_lite.c:187:             newArb.numContacts = Collide(newArb.contacts, newArb.body1, newAr
 187:src/b2d_lite.c ****             newArb.friction = sqrtf(newArb.body1->friction * newArb.body2->friction);
 1160              		.loc 1 187 32 view .LVU270
 1161 009e C4F88000 		str	r0, [r4, #128]	@ _5, newArb.numContacts
 1162              		.loc 1 188 13 is_stmt 1 view .LVU271
 1163              	@ src/b2d_lite.c:188:             newArb.friction = sqrtf(newArb.body1->friction * newArb.body2->fr
 1164              		.loc 1 188 31 is_stmt 0 view .LVU272
 1165 00a2 20EE270A 		vmul.f32	s0, s0, s15	@ _10, _6->friction, _8->friction
 1166 00a6 B5EE400A 		vcmp.f32	s0, #0	@ _10
 1167 00aa F1EEC08A 		vsqrt.f32	s17, s0	@ _11, _10
 1168 00ae F1EE10FA 		vmrs	APSR_nzcv, FPSCR
 1169 00b2 54D4     		bmi	.L78		@,
 1170              	.L60:
 1171              	@ src/b2d_lite.c:190:             if (newArb.numContacts > 0)
 189:src/b2d_lite.c ****             
 190:src/b2d_lite.c ****             if (newArb.numContacts > 0)
 1172              		.loc 1 190 16 view .LVU273
 1173 00b4 0028     		cmp	r0, #0	@ _5,
 1174              	@ src/b2d_lite.c:188:             newArb.friction = sqrtf(newArb.body1->friction * newArb.body2->fr
 188:src/b2d_lite.c ****             
 1175              		.loc 1 188 29 view .LVU274
 1176 00b6 C4ED238A 		vstr.32	s17, [r4, #140]	@ _11, newArb.friction
 1177              		.loc 1 190 13 is_stmt 1 view .LVU275
 1178              	@ src/b2d_lite.c:190:             if (newArb.numContacts > 0)
 1179              		.loc 1 190 16 is_stmt 0 view .LVU276
 1180 00ba 2EDD     		ble	.L61		@,
 1181              	.LVL44:
 1182              	.LBB79:
 1183              	.LBB70:
 1184              	.LBB68:
  55:src/b2d_lite.c ****     {    
 1185              		.loc 1 55 19 is_stmt 1 view .LVU277
 1186              	@ src/b2d_lite.c:55:     for (int i=0; i<g_numArbiters; i++)
  55:src/b2d_lite.c ****     {    
 1187              		.loc 1 55 20 is_stmt 0 view .LVU278
 1188 00bc 2D4B     		ldr	r3, .L80+12	@ tmp232,
ARM GAS  /tmp/ccPfsSwR.s 			page 28


 1189 00be 1E68     		ldr	r6, [r3]	@ g_numArbiters.0_72, g_numArbiters
 1190              	@ src/b2d_lite.c:55:     for (int i=0; i<g_numArbiters; i++)
  55:src/b2d_lite.c ****     {    
 1191              		.loc 1 55 5 view .LVU279
 1192 00c0 002E     		cmp	r6, #0	@ g_numArbiters.0_72,
 1193 00c2 32DD     		ble	.L79		@,
 1194              	@ src/b2d_lite.c:55:     for (int i=0; i<g_numArbiters; i++)
  55:src/b2d_lite.c ****     {    
 1195              		.loc 1 55 14 view .LVU280
 1196 00c4 0021     		movs	r1, #0	@ i,
 1197 00c6 2C4F     		ldr	r7, .L80+16	@ tmp231,
 1198 00c8 02E0     		b	.L65		@
 1199              	.LVL45:
 1200              	.L63:
 1201              	@ src/b2d_lite.c:55:     for (int i=0; i<g_numArbiters; i++)
  55:src/b2d_lite.c ****     {    
 1202              		.loc 1 55 37 view .LVU281
 1203 00ca 0131     		adds	r1, r1, #1	@ i, i,
 1204              	.LVL46:
  55:src/b2d_lite.c ****     {    
 1205              		.loc 1 55 19 is_stmt 1 view .LVU282
 1206              	@ src/b2d_lite.c:55:     for (int i=0; i<g_numArbiters; i++)
  55:src/b2d_lite.c ****     {    
 1207              		.loc 1 55 5 is_stmt 0 view .LVU283
 1208 00cc B142     		cmp	r1, r6	@ i, g_numArbiters.0_72
 1209 00ce 2DD0     		beq	.L62		@,
 1210              	.LVL47:
 1211              	.L65:
  57:src/b2d_lite.c ****             g_arbiterKeys[i].body2 == key.body2)
 1212              		.loc 1 57 9 is_stmt 1 view .LVU284
  55:src/b2d_lite.c ****     {    
 1213              		.loc 1 55 36 view .LVU285
 1214              	@ src/b2d_lite.c:57:         if (g_arbiterKeys[i].body1 == key.body1 && 
  57:src/b2d_lite.c ****             g_arbiterKeys[i].body2 == key.body2)
 1215              		.loc 1 57 12 is_stmt 0 view .LVU286
 1216 00d0 57F83120 		ldr	r2, [r7, r1, lsl #3]	@ MEM[symbol: g_arbiterKeys, index: _74, step: 8, offset: 0B], MEM[symbol
 1217              	@ src/b2d_lite.c:57:         if (g_arbiterKeys[i].body1 == key.body1 && 
  57:src/b2d_lite.c ****             g_arbiterKeys[i].body2 == key.body2)
 1218              		.loc 1 57 29 view .LVU287
 1219 00d4 4FEAC10C 		lsl	ip, r1, #3	@ tmp189, i,
 1220              	@ src/b2d_lite.c:57:         if (g_arbiterKeys[i].body1 == key.body1 && 
  57:src/b2d_lite.c ****             g_arbiterKeys[i].body2 == key.body2)
 1221              		.loc 1 57 12 view .LVU288
 1222 00d8 9542     		cmp	r5, r2	@ key$body1, MEM[symbol: g_arbiterKeys, index: _74, step: 8, offset: 0B]
 1223 00da F6D1     		bne	.L63		@,
 1224              	@ src/b2d_lite.c:57:         if (g_arbiterKeys[i].body1 == key.body1 && 
  57:src/b2d_lite.c ****             g_arbiterKeys[i].body2 == key.body2)
 1225              		.loc 1 57 49 view .LVU289
 1226 00dc 5BF83120 		ldr	r2, [fp, r1, lsl #3]	@ MEM[symbol: g_arbiterKeys, index: _74, step: 8, offset: 4B], MEM[symbol
 1227 00e0 9045     		cmp	r8, r2	@ key$body2, MEM[symbol: g_arbiterKeys, index: _74, step: 8, offset: 4B]
 1228 00e2 F2D1     		bne	.L63		@,
  59:src/b2d_lite.c ****     }
 1229              		.loc 1 59 12 is_stmt 1 view .LVU290
 1230              	.LVL48:
  59:src/b2d_lite.c ****     }
 1231              		.loc 1 59 12 is_stmt 0 view .LVU291
 1232              	.LBE68:
ARM GAS  /tmp/ccPfsSwR.s 			page 29


 1233              	.LBE70:
 191:src/b2d_lite.c ****             {
 192:src/b2d_lite.c ****                 struct Arbiter *a = findArbiter(key);
 193:src/b2d_lite.c ****                 if (a == NULL)
 1234              		.loc 1 193 17 is_stmt 1 view .LVU292
 194:src/b2d_lite.c ****                 {
 195:src/b2d_lite.c ****                     insertArbiter(key, newArb);
 196:src/b2d_lite.c ****                 }
 197:src/b2d_lite.c ****                 else
 198:src/b2d_lite.c ****                 {
 199:src/b2d_lite.c ****                     UpdateArbiter(a, newArb.contacts, newArb.numContacts);
 1235              		.loc 1 199 21 view .LVU293
 1236              	.LBB71:
 1237              	.LBB69:
 1238              	@ src/b2d_lite.c:59:            return &g_arbiters[i];
  59:src/b2d_lite.c ****     }
 1239              		.loc 1 59 19 is_stmt 0 view .LVU294
 1240 00e4 8C44     		add	ip, ip, r1	@ tmp200, i
 1241 00e6 254D     		ldr	r5, .L80+20	@ tmp203,
 1242              	.LVL49:
  59:src/b2d_lite.c ****     }
 1243              		.loc 1 59 19 view .LVU295
 1244              	.LBE69:
 1245              	.LBE71:
 1246              	@ src/b2d_lite.c:199:                     UpdateArbiter(a, newArb.contacts, newArb.numContacts);
 1247              		.loc 1 199 21 view .LVU296
 1248 00e8 0246     		mov	r2, r0	@, _5
 1249 00ea 2146     		mov	r1, r4	@, tmp233
 1250              	.LVL50:
 1251              		.loc 1 199 21 view .LVU297
 1252 00ec 05EB0C10 		add	r0, r5, ip, lsl #4	@, tmp203, tmp200,
 1253 00f0 FFF7FEFF 		bl	UpdateArbiter		@
 1254              	.LVL51:
 1255              	.L64:
 1256              		.loc 1 199 21 view .LVU298
 1257              	.LBE79:
 164:src/b2d_lite.c **** 
 1258              		.loc 1 164 17 is_stmt 1 view .LVU299
 164:src/b2d_lite.c **** 
 1259              		.loc 1 164 17 is_stmt 0 view .LVU300
 1260              	.LBE81:
 159:src/b2d_lite.c ****         {
 1261              		.loc 1 159 42 is_stmt 1 view .LVU301
 1262              	@ src/b2d_lite.c:159:         for (int j=i+1; j < g_numBodies; j++)
 159:src/b2d_lite.c ****         {
 1263              		.loc 1 159 27 is_stmt 0 view .LVU302
 1264 00f4 1C4B     		ldr	r3, .L80	@ tmp273,
 1265              	@ src/b2d_lite.c:159:         for (int j=i+1; j < g_numBodies; j++)
 159:src/b2d_lite.c ****         {
 1266              		.loc 1 159 43 view .LVU303
 1267 00f6 0AF1010A 		add	r10, r10, #1	@ j, j,
 1268              	.LVL52:
 159:src/b2d_lite.c ****         {
 1269              		.loc 1 159 25 is_stmt 1 view .LVU304
 1270              	@ src/b2d_lite.c:159:         for (int j=i+1; j < g_numBodies; j++)
 159:src/b2d_lite.c ****         {
 1271              		.loc 1 159 27 is_stmt 0 view .LVU305
ARM GAS  /tmp/ccPfsSwR.s 			page 30


 1272 00fa 1A68     		ldr	r2, [r3]	@ g_numBodies.14_13, g_numBodies
 1273              	@ src/b2d_lite.c:159:         for (int j=i+1; j < g_numBodies; j++)
 159:src/b2d_lite.c ****         {
 1274              		.loc 1 159 9 view .LVU306
 1275 00fc 5245     		cmp	r2, r10	@ g_numBodies.14_13, j
 1276 00fe 9CDC     		bgt	.L56		@,
 1277 0100 1346     		mov	r3, r2	@ g_numBodies.14_13, g_numBodies.14_13
 1278              	.LVL53:
 159:src/b2d_lite.c ****         {
 1279              		.loc 1 159 9 view .LVU307
 1280              	.LBE86:
 1281              	.LBE88:
 155:src/b2d_lite.c ****     {
 1282              		.loc 1 155 19 is_stmt 1 view .LVU308
 1283              	@ src/b2d_lite.c:155:     for (int i=0; i< g_numBodies; i++)
 155:src/b2d_lite.c ****     {
 1284              		.loc 1 155 5 is_stmt 0 view .LVU309
 1285 0102 029A     		ldr	r2, [sp, #8]	@ i, %sfp
 1286 0104 9342     		cmp	r3, r2	@ g_numBodies.14_13, i
 1287 0106 8DDC     		bgt	.L66		@,
 1288              	.LVL54:
 1289              	.L52:
 155:src/b2d_lite.c ****     {
 1290              		.loc 1 155 5 view .LVU310
 1291              	.LBE90:
 1292              	@ src/b2d_lite.c:208: }
 200:src/b2d_lite.c ****                 }
 201:src/b2d_lite.c ****             }
 202:src/b2d_lite.c ****             else
 203:src/b2d_lite.c ****             {
 204:src/b2d_lite.c ****                 eraseArbiter(key);
 205:src/b2d_lite.c ****             }
 206:src/b2d_lite.c ****         }
 207:src/b2d_lite.c ****     }      
 208:src/b2d_lite.c **** }
 1293              		.loc 1 208 1 view .LVU311
 1294 0108 4FB0     		add	sp, sp, #316	@,,
 1295              	.LCFI23:
 1296              		.cfi_remember_state
 1297              		.cfi_def_cfa_offset 44
 1298              		@ sp needed	@
 1299 010a BDEC028B 		vldm	sp!, {d8}	@
 1300              	.LCFI24:
 1301              		.cfi_restore 80
 1302              		.cfi_restore 81
 1303              		.cfi_def_cfa_offset 36
 1304 010e BDE8F08F 		pop	{r4, r5, r6, r7, r8, r9, r10, fp, pc}	@
 1305              	.LVL55:
 1306              	.L58:
 1307              	.LCFI25:
 1308              		.cfi_restore_state
 1309              	.LBB91:
 1310              	.LBB89:
 1311              	.LBB87:
 1312              	.LBB82:
 178:src/b2d_lite.c ****                 newArb.body2=bi;
 1313              		.loc 1 178 17 is_stmt 1 view .LVU312
ARM GAS  /tmp/ccPfsSwR.s 			page 31


 1314              	@ src/b2d_lite.c:179:                 newArb.body2=bi;
 179:src/b2d_lite.c ****                 key.body1=bj;
 1315              		.loc 1 179 29 is_stmt 0 view .LVU313
 1316 0112 C846     		mov	r8, r9	@ key$body2, bi
 1317 0114 C4E92159 		strd	r5, r9, [r4, #132]	@ key$body1, bi, tmp233,
 180:src/b2d_lite.c ****                 key.body2=bi;
 1318              		.loc 1 180 17 is_stmt 1 view .LVU314
 1319              	.LVL56:
 181:src/b2d_lite.c ****             }
 1320              		.loc 1 181 17 view .LVU315
 181:src/b2d_lite.c ****             }
 1321              		.loc 1 181 17 is_stmt 0 view .LVU316
 1322 0118 AAE7     		b	.L59		@
 1323              	.LVL57:
 1324              	.L61:
 204:src/b2d_lite.c ****             }
 1325              		.loc 1 204 17 is_stmt 1 view .LVU317
 1326 011a 04AA     		add	r2, sp, #16	@ tmp205,,
 1327 011c CDE90458 		strd	r5, r8, [sp, #16]	@ key$body1, key$body2,,
 1328 0120 92E80300 		ldm	r2, {r0, r1}	@ tmp205,,
 1329 0124 FFF7FEFF 		bl	eraseArbiter		@
 1330              	.LVL58:
 1331 0128 E4E7     		b	.L64		@
 1332              	.LVL59:
 1333              	.L79:
 204:src/b2d_lite.c ****             }
 1334              		.loc 1 204 17 is_stmt 0 view .LVU318
 1335 012a 134F     		ldr	r7, .L80+16	@ tmp231,
 1336              	.LVL60:
 1337              	.L62:
 1338              	.LBB80:
 193:src/b2d_lite.c ****                 {
 1339              		.loc 1 193 17 is_stmt 1 view .LVU319
 195:src/b2d_lite.c ****                 }
 1340              		.loc 1 195 21 view .LVU320
 195:src/b2d_lite.c ****                 }
 1341              		.loc 1 195 21 is_stmt 0 view .LVU321
 1342 012c 2146     		mov	r1, r4	@, tmp233
 1343 012e 9022     		movs	r2, #144	@,
 1344 0130 2AA8     		add	r0, sp, #168	@ tmp276,,
 1345              	.LBB72:
 1346              	.LBB73:
 1347              	@ src/b2d_lite.c:73:     g_arbiterKeys[g_numArbiters]=key;
  73:src/b2d_lite.c ****     g_arbiters[g_numArbiters]=value;
 1348              		.loc 1 73 33 view .LVU322
 1349 0132 07EBC604 		add	r4, r7, r6, lsl #3	@ _22, tmp231, g_numArbiters.0_72,
 1350 0136 FFF7FEFF 		bl	memcpy		@
 1351              	.LVL61:
 1352              	.LBE73:
 1353              	.LBI72:
  65:src/b2d_lite.c **** {
 1354              		.loc 1 65 6 is_stmt 1 view .LVU323
 1355              	.LBB74:
  67:src/b2d_lite.c ****     {
 1356              		.loc 1 67 5 view .LVU324
  71:src/b2d_lite.c ****     
 1357              		.loc 1 71 5 view .LVU325
ARM GAS  /tmp/ccPfsSwR.s 			page 32


  73:src/b2d_lite.c ****     g_arbiters[g_numArbiters]=value;
 1358              		.loc 1 73 5 view .LVU326
 1359              	@ src/b2d_lite.c:74:     g_arbiters[g_numArbiters]=value;
  74:src/b2d_lite.c ****     g_numArbiters++;
 1360              		.loc 1 74 30 is_stmt 0 view .LVU327
 1361 013a 1048     		ldr	r0, .L80+20	@ tmp218,
 1362 013c 06EBC60C 		add	ip, r6, r6, lsl #3	@ tmp221, g_numArbiters.0_72, g_numArbiters.0_72,
 1363              	@ src/b2d_lite.c:73:     g_arbiterKeys[g_numArbiters]=key;
  73:src/b2d_lite.c ****     g_arbiters[g_numArbiters]=value;
 1364              		.loc 1 73 33 view .LVU328
 1365 0140 47F83650 		str	r5, [r7, r6, lsl #3]	@ key$body1, MEM[(struct ArbiterKey *)_22]
 1366              	@ src/b2d_lite.c:74:     g_arbiters[g_numArbiters]=value;
  74:src/b2d_lite.c ****     g_numArbiters++;
 1367              		.loc 1 74 30 view .LVU329
 1368 0144 2AA9     		add	r1, sp, #168	@ tmp277,,
 1369 0146 9022     		movs	r2, #144	@,
 1370 0148 00EB0C10 		add	r0, r0, ip, lsl #4	@, tmp218, tmp221,
 1371              	@ src/b2d_lite.c:73:     g_arbiterKeys[g_numArbiters]=key;
  73:src/b2d_lite.c ****     g_arbiters[g_numArbiters]=value;
 1372              		.loc 1 73 33 view .LVU330
 1373 014c C4F80480 		str	r8, [r4, #4]	@ key$body2, MEM[(struct ArbiterKey *)_22 + 4B]
  74:src/b2d_lite.c ****     g_numArbiters++;
 1374              		.loc 1 74 5 is_stmt 1 view .LVU331
 1375              	@ src/b2d_lite.c:74:     g_arbiters[g_numArbiters]=value;
  74:src/b2d_lite.c ****     g_numArbiters++;
 1376              		.loc 1 74 30 is_stmt 0 view .LVU332
 1377 0150 FFF7FEFF 		bl	memcpy		@
 1378              	.LVL62:
  75:src/b2d_lite.c **** }
 1379              		.loc 1 75 5 is_stmt 1 view .LVU333
 1380              	@ src/b2d_lite.c:75:     g_numArbiters++;
  75:src/b2d_lite.c **** }
 1381              		.loc 1 75 18 is_stmt 0 view .LVU334
 1382 0154 0136     		adds	r6, r6, #1	@ tmp229, g_numArbiters.0_72,
 1383 0156 074B     		ldr	r3, .L80+12	@ tmp232,
 1384 0158 1E60     		str	r6, [r3]	@ tmp229, g_numArbiters
 1385              	.LVL63:
  75:src/b2d_lite.c **** }
 1386              		.loc 1 75 18 view .LVU335
 1387              	.LBE74:
 1388              	.LBE72:
 1389 015a CBE7     		b	.L64		@
 1390              	.LVL64:
 1391              	.L75:
 1392              	.LCFI26:
 1393              		.cfi_def_cfa_offset 0
 1394              		.cfi_restore 4
 1395              		.cfi_restore 5
 1396              		.cfi_restore 6
 1397              		.cfi_restore 7
 1398              		.cfi_restore 8
 1399              		.cfi_restore 9
 1400              		.cfi_restore 10
 1401              		.cfi_restore 11
 1402              		.cfi_restore 14
 1403              		.cfi_restore 80
 1404              		.cfi_restore 81
ARM GAS  /tmp/ccPfsSwR.s 			page 33


  75:src/b2d_lite.c **** }
 1405              		.loc 1 75 18 view .LVU336
 1406 015c 7047     		bx	lr	@
 1407              	.LVL65:
 1408              	.L78:
 1409              	.LCFI27:
 1410              		.cfi_def_cfa_offset 360
 1411              		.cfi_offset 4, -36
 1412              		.cfi_offset 5, -32
 1413              		.cfi_offset 6, -28
 1414              		.cfi_offset 7, -24
 1415              		.cfi_offset 8, -20
 1416              		.cfi_offset 9, -16
 1417              		.cfi_offset 10, -12
 1418              		.cfi_offset 11, -8
 1419              		.cfi_offset 14, -4
 1420              		.cfi_offset 80, -44
 1421              		.cfi_offset 81, -40
  75:src/b2d_lite.c **** }
 1422              		.loc 1 75 18 view .LVU337
 1423              	.LBE80:
 1424              	@ src/b2d_lite.c:188:             newArb.friction = sqrtf(newArb.body1->friction * newArb.body2->fr
 188:src/b2d_lite.c ****             
 1425              		.loc 1 188 31 view .LVU338
 1426 015e FFF7FEFF 		bl	sqrtf		@
 1427              	.LVL66:
 1428 0162 D4F88000 		ldr	r0, [r4, #128]	@ _5, newArb.numContacts
 1429 0166 A5E7     		b	.L60		@
 1430              	.L81:
 1431              		.align	2
 1432              	.L80:
 1433 0168 00000000 		.word	g_numBodies
 1434 016c 00000000 		.word	g_bodies
 1435 0170 00000000 		.word	0
 1436 0174 00000000 		.word	g_numArbiters
 1437 0178 00000000 		.word	g_arbiterKeys
 1438 017c 00000000 		.word	g_arbiters
 1439 0180 04000000 		.word	g_arbiterKeys+4
 1440              	.LBE82:
 1441              	.LBE87:
 1442              	.LBE89:
 1443              	.LBE91:
 1444              		.cfi_endproc
 1445              	.LFE8:
 1446              		.size	BroadPhase, .-BroadPhase
 1447              		.section	.text.PreStep,"ax",%progbits
 1448              		.align	1
 1449              		.p2align 4,,15
 1450              		.global	PreStep
 1451              		.syntax unified
 1452              		.thumb
 1453              		.thumb_func
 1454              		.fpu fpv5-sp-d16
 1455              		.type	PreStep, %function
 1456              	PreStep:
 1457              	.LVL67:
 1458              	.LFB9:
ARM GAS  /tmp/ccPfsSwR.s 			page 34


 209:src/b2d_lite.c **** 
 210:src/b2d_lite.c **** void PreStep(struct Arbiter *a, float inv_dt)
 211:src/b2d_lite.c **** {
 1459              		.loc 1 211 1 is_stmt 1 view -0
 1460              		.cfi_startproc
 1461              		@ args = 0, pretend = 0, frame = 64
 1462              		@ frame_needed = 0, uses_anonymous_args = 0
 212:src/b2d_lite.c **** 	const float k_allowedPenetration = 0.01f;
 1463              		.loc 1 212 2 view .LVU340
 213:src/b2d_lite.c **** 	float k_biasFactor = positionCorrection ? 0.2f : 0.0f;
 1464              		.loc 1 213 2 view .LVU341
 1465              	@ src/b2d_lite.c:213: 	float k_biasFactor = positionCorrection ? 0.2f : 0.0f;
 1466              		.loc 1 213 42 is_stmt 0 view .LVU342
 1467 0000 C44B     		ldr	r3, .L94	@ tmp189,
 1468              	@ src/b2d_lite.c:213: 	float k_biasFactor = positionCorrection ? 0.2f : 0.0f;
 1469              		.loc 1 213 49 view .LVU343
 1470 0002 1B68     		ldr	r3, [r3]	@ positionCorrection, positionCorrection
 1471              	@ src/b2d_lite.c:211: {
 211:src/b2d_lite.c **** 	const float k_allowedPenetration = 0.01f;
 1472              		.loc 1 211 1 view .LVU344
 1473 0004 2DE9F041 		push	{r4, r5, r6, r7, r8, lr}	@
 1474              	.LCFI28:
 1475              		.cfi_def_cfa_offset 24
 1476              		.cfi_offset 4, -24
 1477              		.cfi_offset 5, -20
 1478              		.cfi_offset 6, -16
 1479              		.cfi_offset 7, -12
 1480              		.cfi_offset 8, -8
 1481              		.cfi_offset 14, -4
 1482              	@ src/b2d_lite.c:213: 	float k_biasFactor = positionCorrection ? 0.2f : 0.0f;
 1483              		.loc 1 213 49 view .LVU345
 1484 0008 002B     		cmp	r3, #0	@ positionCorrection,
 1485              	.LBB92:
 1486              	@ src/b2d_lite.c:215: 	for (int i = 0; i < a->numContacts; ++i)
 214:src/b2d_lite.c **** 
 215:src/b2d_lite.c **** 	for (int i = 0; i < a->numContacts; ++i)
 1487              		.loc 1 215 2 view .LVU346
 1488 000a D0F88030 		ldr	r3, [r0, #128]	@ a_72(D)->numContacts, a_72(D)->numContacts
 1489              	.LBE92:
 1490              	@ src/b2d_lite.c:211: {
 211:src/b2d_lite.c **** 	const float k_allowedPenetration = 0.01f;
 1491              		.loc 1 211 1 view .LVU347
 1492 000e 2DED0A8B 		vpush.64	{d8, d9, d10, d11, d12}	@
 1493              	.LCFI29:
 1494              		.cfi_def_cfa_offset 64
 1495              		.cfi_offset 80, -64
 1496              		.cfi_offset 81, -60
 1497              		.cfi_offset 82, -56
 1498              		.cfi_offset 83, -52
 1499              		.cfi_offset 84, -48
 1500              		.cfi_offset 85, -44
 1501              		.cfi_offset 86, -40
 1502              		.cfi_offset 87, -36
 1503              		.cfi_offset 88, -32
 1504              		.cfi_offset 89, -28
 1505              	@ src/b2d_lite.c:213: 	float k_biasFactor = positionCorrection ? 0.2f : 0.0f;
 213:src/b2d_lite.c **** 
ARM GAS  /tmp/ccPfsSwR.s 			page 35


 1506              		.loc 1 213 49 view .LVU348
 1507 0012 DFEDC19A 		vldr.32	s19, .L94+4	@ tmp319,
 1508              	@ src/b2d_lite.c:211: {
 211:src/b2d_lite.c **** 	const float k_allowedPenetration = 0.01f;
 1509              		.loc 1 211 1 view .LVU349
 1510 0016 90B0     		sub	sp, sp, #64	@,,
 1511              	.LCFI30:
 1512              		.cfi_def_cfa_offset 128
 1513              	@ src/b2d_lite.c:213: 	float k_biasFactor = positionCorrection ? 0.2f : 0.0f;
 213:src/b2d_lite.c **** 
 1514              		.loc 1 213 49 view .LVU350
 1515 0018 9FEDC0AA 		vldr.32	s20, .L94+8	@ tmp320,
 1516 001c 4AFE299A 		vseleq.f32	s19, s20, s19	@, iftmp.16_68, tmp320, tmp319
 1517              	.LVL68:
 1518              		.loc 1 215 2 is_stmt 1 view .LVU351
 1519              	.LBB99:
 1520              		.loc 1 215 7 view .LVU352
 1521              		.loc 1 215 18 view .LVU353
 1522              	@ src/b2d_lite.c:215: 	for (int i = 0; i < a->numContacts; ++i)
 1523              		.loc 1 215 2 is_stmt 0 view .LVU354
 1524 0020 002B     		cmp	r3, #0	@ a_72(D)->numContacts,
 1525 0022 40F37181 		ble	.L82		@,
 1526 0026 69EEC09A 		vnmul.f32	s19, s19, s0	@ _40, iftmp.16_68, inv_dt
 1527              	.LVL69:
 1528              		.loc 1 215 2 view .LVU355
 1529 002a 0546     		mov	r5, r0	@ a, tmp322
 1530              	.LBB93:
 1531              	@ src/b2d_lite.c:227: 		c->massNormal = 1.0f / kNormal;
 216:src/b2d_lite.c **** 	{
 217:src/b2d_lite.c **** 		struct Contact* c = a->contacts + i;
 218:src/b2d_lite.c **** 
 219:src/b2d_lite.c **** 		struct Vec2 r1 = diffVec2(c->position, a->body1->position);
 220:src/b2d_lite.c **** 		struct Vec2 r2 = diffVec2(c->position, a->body2->position);
 221:src/b2d_lite.c **** 
 222:src/b2d_lite.c **** 		// Precompute normal mass, tangent mass, and bias.
 223:src/b2d_lite.c **** 		float rn1 = Dot(r1, c->normal);
 224:src/b2d_lite.c **** 		float rn2 = Dot(r2, c->normal);
 225:src/b2d_lite.c **** 		float kNormal = a->body1->invMass + a->body2->invMass;
 226:src/b2d_lite.c **** 		kNormal += a->body1->invI * (Dot(r1, r1) - rn1 * rn1) + a->body2->invI * (Dot(r2, r2) - rn2 * rn2
 227:src/b2d_lite.c **** 		c->massNormal = 1.0f / kNormal;
 1532              		.loc 1 227 24 view .LVU356
 1533 002c B7EE009A 		vmov.f32	s18, #1.0e+0	@ tmp231,
 1534 0030 0446     		mov	r4, r0	@ ivtmp.135, a
 1535              	.LBE93:
 1536              	@ src/b2d_lite.c:215: 	for (int i = 0; i < a->numContacts; ++i)
 215:src/b2d_lite.c **** 	{
 1537              		.loc 1 215 11 view .LVU357
 1538 0032 0026     		movs	r6, #0	@ i,
 1539 0034 BA4F     		ldr	r7, .L94+12	@ tmp315,
 1540              	.LBB96:
 1541              	@ src/b2d_lite.c:236: 		c->bias = -k_biasFactor * inv_dt * Min(0.0f, c->separation + k_allowedPenet
 228:src/b2d_lite.c **** 
 229:src/b2d_lite.c **** 		struct Vec2 tangent = Crossvs(c->normal, 1.0f);
 230:src/b2d_lite.c **** 		float rt1 = Dot(r1, tangent);
 231:src/b2d_lite.c **** 		float rt2 = Dot(r2, tangent);
 232:src/b2d_lite.c **** 		float kTangent = a->body1->invMass + a->body2->invMass;
 233:src/b2d_lite.c **** 		kTangent += a->body1->invI * (Dot(r1, r1) - rt1 * rt1) + a->body2->invI * (Dot(r2, r2) - rt2 * rt
ARM GAS  /tmp/ccPfsSwR.s 			page 36


 234:src/b2d_lite.c **** 		c->massTangent = 1.0f /  kTangent;
 235:src/b2d_lite.c **** 
 236:src/b2d_lite.c **** 		c->bias = -k_biasFactor * inv_dt * Min(0.0f, c->separation + k_allowedPenetration);
 1542              		.loc 1 236 38 view .LVU358
 1543 0036 DFEDBBAA 		vldr.32	s21, .L94+16	@ tmp264,
 1544 003a 06E0     		b	.L86		@
 1545              	.LVL70:
 1546              	.L85:
 1547              		.loc 1 236 38 view .LVU359
 1548              	.LBE96:
 215:src/b2d_lite.c **** 	{
 1549              		.loc 1 215 38 is_stmt 1 discriminator 1 view .LVU360
 1550 003c 0136     		adds	r6, r6, #1	@ i, i,
 1551              	.LVL71:
 215:src/b2d_lite.c **** 	{
 1552              		.loc 1 215 18 discriminator 1 view .LVU361
 1553              	@ src/b2d_lite.c:215: 	for (int i = 0; i < a->numContacts; ++i)
 215:src/b2d_lite.c **** 	{
 1554              		.loc 1 215 2 is_stmt 0 discriminator 1 view .LVU362
 1555 003e D5F88030 		ldr	r3, [r5, #128]	@ a_72(D)->numContacts, a_72(D)->numContacts
 1556 0042 4034     		adds	r4, r4, #64	@ ivtmp.135, ivtmp.135,
 1557              	.LVL72:
 215:src/b2d_lite.c **** 	{
 1558              		.loc 1 215 2 discriminator 1 view .LVU363
 1559 0044 B342     		cmp	r3, r6	@ a_72(D)->numContacts, i
 1560 0046 40F35F81 		ble	.L82		@,
 1561              	.LVL73:
 1562              	.L86:
 1563              	.LBB97:
 217:src/b2d_lite.c **** 
 1564              		.loc 1 217 3 is_stmt 1 view .LVU364
 219:src/b2d_lite.c **** 		struct Vec2 r2 = diffVec2(c->position, a->body2->position);
 1565              		.loc 1 219 3 view .LVU365
 1566              	@ src/b2d_lite.c:219: 		struct Vec2 r1 = diffVec2(c->position, a->body1->position);
 219:src/b2d_lite.c **** 		struct Vec2 r2 = diffVec2(c->position, a->body2->position);
 1567              		.loc 1 219 20 is_stmt 0 view .LVU366
 1568 004a D5F88430 		ldr	r3, [r5, #132]	@ a_72(D)->body1, a_72(D)->body1
 1569 004e 94ED000A 		vldr.32	s0, [r4]	@, c_73->position
 1570 0052 D4ED010A 		vldr.32	s1, [r4, #4]	@, c_73->position
 1571 0056 93ED001A 		vldr.32	s2, [r3]	@, _5->position
 1572 005a D3ED011A 		vldr.32	s3, [r3, #4]	@, _5->position
 1573 005e FFF7FEFF 		bl	diffVec2		@
 1574              	.LVL74:
 1575              	@ src/b2d_lite.c:220: 		struct Vec2 r2 = diffVec2(c->position, a->body2->position);
 220:src/b2d_lite.c **** 
 1576              		.loc 1 220 20 view .LVU367
 1577 0062 D5F88830 		ldr	r3, [r5, #136]	@ a_72(D)->body2, a_72(D)->body2
 1578              	@ src/b2d_lite.c:219: 		struct Vec2 r1 = diffVec2(c->position, a->body1->position);
 219:src/b2d_lite.c **** 		struct Vec2 r2 = diffVec2(c->position, a->body2->position);
 1579              		.loc 1 219 20 view .LVU368
 1580 0066 B0EE407A 		vmov.f32	s14, s0	@ tmp324,
 1581              	@ src/b2d_lite.c:220: 		struct Vec2 r2 = diffVec2(c->position, a->body2->position);
 220:src/b2d_lite.c **** 
 1582              		.loc 1 220 20 view .LVU369
 1583 006a 94ED000A 		vldr.32	s0, [r4]	@, c_73->position
 1584              	@ src/b2d_lite.c:219: 		struct Vec2 r1 = diffVec2(c->position, a->body1->position);
 219:src/b2d_lite.c **** 		struct Vec2 r2 = diffVec2(c->position, a->body2->position);
ARM GAS  /tmp/ccPfsSwR.s 			page 37


 1585              		.loc 1 219 20 view .LVU370
 1586 006e F0EE607A 		vmov.f32	s15, s1	@ tmp325,
 1587              	@ src/b2d_lite.c:220: 		struct Vec2 r2 = diffVec2(c->position, a->body2->position);
 220:src/b2d_lite.c **** 
 1588              		.loc 1 220 20 view .LVU371
 1589 0072 D4ED010A 		vldr.32	s1, [r4, #4]	@, c_73->position
 1590 0076 93ED001A 		vldr.32	s2, [r3]	@, _6->position
 1591 007a D3ED011A 		vldr.32	s3, [r3, #4]	@, _6->position
 1592              	@ src/b2d_lite.c:219: 		struct Vec2 r1 = diffVec2(c->position, a->body1->position);
 219:src/b2d_lite.c **** 		struct Vec2 r2 = diffVec2(c->position, a->body2->position);
 1593              		.loc 1 219 20 view .LVU372
 1594 007e 8DED007A 		vstr.32	s14, [sp]	@ tmp324, r1
 1595 0082 CDED017A 		vstr.32	s15, [sp, #4]	@ tmp325, r1
 220:src/b2d_lite.c **** 
 1596              		.loc 1 220 3 is_stmt 1 view .LVU373
 1597              	@ src/b2d_lite.c:220: 		struct Vec2 r2 = diffVec2(c->position, a->body2->position);
 220:src/b2d_lite.c **** 
 1598              		.loc 1 220 20 is_stmt 0 view .LVU374
 1599 0086 FFF7FEFF 		bl	diffVec2		@
 1600              	.LVL75:
 1601 008a B0EE407A 		vmov.f32	s14, s0	@ tmp326,
 1602              	@ src/b2d_lite.c:223: 		float rn1 = Dot(r1, c->normal);
 223:src/b2d_lite.c **** 		float rn2 = Dot(r2, c->normal);
 1603              		.loc 1 223 15 view .LVU375
 1604 008e 94ED021A 		vldr.32	s2, [r4, #8]	@, c_73->normal
 1605              	@ src/b2d_lite.c:220: 		struct Vec2 r2 = diffVec2(c->position, a->body2->position);
 220:src/b2d_lite.c **** 
 1606              		.loc 1 220 20 view .LVU376
 1607 0092 F0EE607A 		vmov.f32	s15, s1	@ tmp327,
 1608              	@ src/b2d_lite.c:223: 		float rn1 = Dot(r1, c->normal);
 223:src/b2d_lite.c **** 		float rn2 = Dot(r2, c->normal);
 1609              		.loc 1 223 15 view .LVU377
 1610 0096 D4ED031A 		vldr.32	s3, [r4, #12]	@, c_73->normal
 1611 009a DDED010A 		vldr.32	s1, [sp, #4]	@, r1
 1612 009e 9DED000A 		vldr.32	s0, [sp]	@, r1
 1613              	@ src/b2d_lite.c:220: 		struct Vec2 r2 = diffVec2(c->position, a->body2->position);
 220:src/b2d_lite.c **** 
 1614              		.loc 1 220 20 view .LVU378
 1615 00a2 8DED027A 		vstr.32	s14, [sp, #8]	@ tmp326, r2
 1616 00a6 CDED037A 		vstr.32	s15, [sp, #12]	@ tmp327, r2
 223:src/b2d_lite.c **** 		float rn2 = Dot(r2, c->normal);
 1617              		.loc 1 223 3 is_stmt 1 view .LVU379
 1618              	@ src/b2d_lite.c:223: 		float rn1 = Dot(r1, c->normal);
 223:src/b2d_lite.c **** 		float rn2 = Dot(r2, c->normal);
 1619              		.loc 1 223 15 is_stmt 0 view .LVU380
 1620 00aa FFF7FEFF 		bl	Dot		@
 1621              	.LVL76:
 1622              	@ src/b2d_lite.c:224: 		float rn2 = Dot(r2, c->normal);
 224:src/b2d_lite.c **** 		float kNormal = a->body1->invMass + a->body2->invMass;
 1623              		.loc 1 224 15 view .LVU381
 1624 00ae 94ED021A 		vldr.32	s2, [r4, #8]	@, c_73->normal
 1625              	@ src/b2d_lite.c:223: 		float rn1 = Dot(r1, c->normal);
 223:src/b2d_lite.c **** 		float rn2 = Dot(r2, c->normal);
 1626              		.loc 1 223 15 view .LVU382
 1627 00b2 F0EE408A 		vmov.f32	s17, s0	@ tmp328,
 1628              	@ src/b2d_lite.c:224: 		float rn2 = Dot(r2, c->normal);
 224:src/b2d_lite.c **** 		float kNormal = a->body1->invMass + a->body2->invMass;
ARM GAS  /tmp/ccPfsSwR.s 			page 38


 1629              		.loc 1 224 15 view .LVU383
 1630 00b6 D4ED031A 		vldr.32	s3, [r4, #12]	@, c_73->normal
 1631 00ba DDED030A 		vldr.32	s1, [sp, #12]	@, r2
 1632              	.LVL77:
 224:src/b2d_lite.c **** 		float kNormal = a->body1->invMass + a->body2->invMass;
 1633              		.loc 1 224 3 is_stmt 1 view .LVU384
 1634              	@ src/b2d_lite.c:224: 		float rn2 = Dot(r2, c->normal);
 224:src/b2d_lite.c **** 		float kNormal = a->body1->invMass + a->body2->invMass;
 1635              		.loc 1 224 15 is_stmt 0 view .LVU385
 1636 00be 9DED020A 		vldr.32	s0, [sp, #8]	@, r2
 1637              	.LVL78:
 224:src/b2d_lite.c **** 		float kNormal = a->body1->invMass + a->body2->invMass;
 1638              		.loc 1 224 15 view .LVU386
 1639 00c2 FFF7FEFF 		bl	Dot		@
 1640              	.LVL79:
 1641              	@ src/b2d_lite.c:226: 		kNormal += a->body1->invI * (Dot(r1, r1) - rn1 * rn1) + a->body2->invI * (D
 226:src/b2d_lite.c **** 		c->massNormal = 1.0f / kNormal;
 1642              		.loc 1 226 32 view .LVU387
 1643 00c6 9DED001A 		vldr.32	s2, [sp]	@ r1, r1
 1644 00ca DDED011A 		vldr.32	s3, [sp, #4]	@ r1, r1
 1645              	@ src/b2d_lite.c:224: 		float rn2 = Dot(r2, c->normal);
 224:src/b2d_lite.c **** 		float kNormal = a->body1->invMass + a->body2->invMass;
 1646              		.loc 1 224 15 view .LVU388
 1647 00ce B0EE40BA 		vmov.f32	s22, s0	@ rn2, tmp329
 1648              	.LVL80:
 225:src/b2d_lite.c **** 		kNormal += a->body1->invI * (Dot(r1, r1) - rn1 * rn1) + a->body2->invI * (Dot(r2, r2) - rn2 * rn2
 1649              		.loc 1 225 3 is_stmt 1 view .LVU389
 1650              	@ src/b2d_lite.c:226: 		kNormal += a->body1->invI * (Dot(r1, r1) - rn1 * rn1) + a->body2->invI * (D
 226:src/b2d_lite.c **** 		c->massNormal = 1.0f / kNormal;
 1651              		.loc 1 226 32 is_stmt 0 view .LVU390
 1652 00d2 B0EE410A 		vmov.f32	s0, s2	@,
 1653              	.LVL81:
 226:src/b2d_lite.c **** 		c->massNormal = 1.0f / kNormal;
 1654              		.loc 1 226 32 view .LVU391
 1655 00d6 F0EE610A 		vmov.f32	s1, s3	@,
 1656              	@ src/b2d_lite.c:225: 		float kNormal = a->body1->invMass + a->body2->invMass;
 225:src/b2d_lite.c **** 		kNormal += a->body1->invI * (Dot(r1, r1) - rn1 * rn1) + a->body2->invI * (Dot(r2, r2) - rn2 * rn2
 1657              		.loc 1 225 47 view .LVU392
 1658 00da D5E92132 		ldrd	r3, r2, [r5, #132]	@ _7, a_72(D)->body2, a,
 1659              	@ src/b2d_lite.c:225: 		float kNormal = a->body1->invMass + a->body2->invMass;
 225:src/b2d_lite.c **** 		kNormal += a->body1->invI * (Dot(r1, r1) - rn1 * rn1) + a->body2->invI * (Dot(r2, r2) - rn2 * rn2
 1660              		.loc 1 225 9 view .LVU393
 1661 00de 92ED0D8A 		vldr.32	s16, [r2, #52]	@ _9->invMass, _9->invMass
 1662 00e2 D3ED0D7A 		vldr.32	s15, [r3, #52]	@ _7->invMass, _7->invMass
 1663              	@ src/b2d_lite.c:226: 		kNormal += a->body1->invI * (Dot(r1, r1) - rn1 * rn1) + a->body2->invI * (D
 226:src/b2d_lite.c **** 		c->massNormal = 1.0f / kNormal;
 1664              		.loc 1 226 22 view .LVU394
 1665 00e6 93ED0FCA 		vldr.32	s24, [r3, #60]	@ _11, _7->invI
 1666              	@ src/b2d_lite.c:225: 		float kNormal = a->body1->invMass + a->body2->invMass;
 225:src/b2d_lite.c **** 		kNormal += a->body1->invI * (Dot(r1, r1) - rn1 * rn1) + a->body2->invI * (Dot(r2, r2) - rn2 * rn2
 1667              		.loc 1 225 9 view .LVU395
 1668 00ea 38EE278A 		vadd.f32	s16, s16, s15	@ kNormal, _9->invMass, _7->invMass
 1669              	.LVL82:
 226:src/b2d_lite.c **** 		c->massNormal = 1.0f / kNormal;
 1670              		.loc 1 226 3 is_stmt 1 view .LVU396
 1671              	@ src/b2d_lite.c:226: 		kNormal += a->body1->invI * (Dot(r1, r1) - rn1 * rn1) + a->body2->invI * (D
 226:src/b2d_lite.c **** 		c->massNormal = 1.0f / kNormal;
ARM GAS  /tmp/ccPfsSwR.s 			page 39


 1672              		.loc 1 226 32 is_stmt 0 view .LVU397
 1673 00ee FFF7FEFF 		bl	Dot		@
 1674              	.LVL83:
 1675              	@ src/b2d_lite.c:226: 		kNormal += a->body1->invI * (Dot(r1, r1) - rn1 * rn1) + a->body2->invI * (D
 226:src/b2d_lite.c **** 		c->massNormal = 1.0f / kNormal;
 1676              		.loc 1 226 44 view .LVU398
 1677 00f2 A8EEE80A 		vfms.f32	s0, s17, s17	@ tmp330, rn1, rn1
 1678              	@ src/b2d_lite.c:226: 		kNormal += a->body1->invI * (Dot(r1, r1) - rn1 * rn1) + a->body2->invI * (D
 226:src/b2d_lite.c **** 		c->massNormal = 1.0f / kNormal;
 1679              		.loc 1 226 77 view .LVU399
 1680 00f6 DDED031A 		vldr.32	s3, [sp, #12]	@ r2, r2
 1681 00fa 9DED021A 		vldr.32	s2, [sp, #8]	@ r2, r2
 1682              	@ src/b2d_lite.c:226: 		kNormal += a->body1->invI * (Dot(r1, r1) - rn1 * rn1) + a->body2->invI * (D
 226:src/b2d_lite.c **** 		c->massNormal = 1.0f / kNormal;
 1683              		.loc 1 226 67 view .LVU400
 1684 00fe D5F88830 		ldr	r3, [r5, #136]	@ a_72(D)->body2, a_72(D)->body2
 1685              	@ src/b2d_lite.c:226: 		kNormal += a->body1->invI * (Dot(r1, r1) - rn1 * rn1) + a->body2->invI * (D
 226:src/b2d_lite.c **** 		c->massNormal = 1.0f / kNormal;
 1686              		.loc 1 226 77 view .LVU401
 1687 0102 F0EE610A 		vmov.f32	s1, s3	@,
 1688              	@ src/b2d_lite.c:226: 		kNormal += a->body1->invI * (Dot(r1, r1) - rn1 * rn1) + a->body2->invI * (D
 226:src/b2d_lite.c **** 		c->massNormal = 1.0f / kNormal;
 1689              		.loc 1 226 67 view .LVU402
 1690 0106 D3ED0F8A 		vldr.32	s17, [r3, #60]	@ _17, _16->invI
 1691              	.LVL84:
 1692              	@ src/b2d_lite.c:226: 		kNormal += a->body1->invI * (Dot(r1, r1) - rn1 * rn1) + a->body2->invI * (D
 226:src/b2d_lite.c **** 		c->massNormal = 1.0f / kNormal;
 1693              		.loc 1 226 44 view .LVU403
 1694 010a F0EE40BA 		vmov.f32	s23, s0	@ _14, tmp330
 1695              	@ src/b2d_lite.c:226: 		kNormal += a->body1->invI * (Dot(r1, r1) - rn1 * rn1) + a->body2->invI * (D
 226:src/b2d_lite.c **** 		c->massNormal = 1.0f / kNormal;
 1696              		.loc 1 226 77 view .LVU404
 1697 010e B0EE410A 		vmov.f32	s0, s2	@,
 1698 0112 FFF7FEFF 		bl	Dot		@
 1699              	.LVL85:
 1700              	@ src/b2d_lite.c:226: 		kNormal += a->body1->invI * (Dot(r1, r1) - rn1 * rn1) + a->body2->invI * (D
 226:src/b2d_lite.c **** 		c->massNormal = 1.0f / kNormal;
 1701              		.loc 1 226 89 view .LVU405
 1702 0116 F0EE407A 		vmov.f32	s15, s0	@ tmp331, tmp331
 1703              	@ src/b2d_lite.c:229: 		struct Vec2 tangent = Crossvs(c->normal, 1.0f);
 229:src/b2d_lite.c **** 		float rt1 = Dot(r1, tangent);
 1704              		.loc 1 229 25 view .LVU406
 1705 011a D4ED030A 		vldr.32	s1, [r4, #12]	@, c_73->normal
 1706 011e B7EE001A 		vmov.f32	s2, #1.0e+0	@,
 1707 0122 94ED020A 		vldr.32	s0, [r4, #8]	@, c_73->normal
 1708              	@ src/b2d_lite.c:226: 		kNormal += a->body1->invI * (Dot(r1, r1) - rn1 * rn1) + a->body2->invI * (D
 226:src/b2d_lite.c **** 		c->massNormal = 1.0f / kNormal;
 1709              		.loc 1 226 89 view .LVU407
 1710 0126 EBEE4B7A 		vfms.f32	s15, s22, s22	@ tmp331, rn2, rn2
 1711              	@ src/b2d_lite.c:226: 		kNormal += a->body1->invI * (Dot(r1, r1) - rn1 * rn1) + a->body2->invI * (D
 226:src/b2d_lite.c **** 		c->massNormal = 1.0f / kNormal;
 1712              		.loc 1 226 74 view .LVU408
 1713 012a 68EEA78A 		vmul.f32	s17, s17, s15	@ tmp228, _17, _20
 1714              	@ src/b2d_lite.c:226: 		kNormal += a->body1->invI * (Dot(r1, r1) - rn1 * rn1) + a->body2->invI * (D
 226:src/b2d_lite.c **** 		c->massNormal = 1.0f / kNormal;
 1715              		.loc 1 226 57 view .LVU409
 1716 012e ECEE2B8A 		vfma.f32	s17, s24, s23	@ _83, _11, _14
ARM GAS  /tmp/ccPfsSwR.s 			page 40


 1717              	.LVL86:
 227:src/b2d_lite.c **** 
 1718              		.loc 1 227 3 is_stmt 1 view .LVU410
 1719              	@ src/b2d_lite.c:226: 		kNormal += a->body1->invI * (Dot(r1, r1) - rn1 * rn1) + a->body2->invI * (D
 226:src/b2d_lite.c **** 		c->massNormal = 1.0f / kNormal;
 1720              		.loc 1 226 11 is_stmt 0 view .LVU411
 1721 0132 38EE288A 		vadd.f32	s16, s16, s17	@ kNormal, kNormal, _83
 1722              	.LVL87:
 1723              	@ src/b2d_lite.c:227: 		c->massNormal = 1.0f / kNormal;
 227:src/b2d_lite.c **** 
 1724              		.loc 1 227 24 view .LVU412
 1725 0136 C9EE087A 		vdiv.f32	s15, s18, s16	@ tmp230, tmp231, kNormal
 1726              	@ src/b2d_lite.c:227: 		c->massNormal = 1.0f / kNormal;
 227:src/b2d_lite.c **** 
 1727              		.loc 1 227 17 view .LVU413
 1728 013a C4ED0C7A 		vstr.32	s15, [r4, #48]	@ tmp230, MEM[base: c_73, offset: 48B]
 229:src/b2d_lite.c **** 		float rt1 = Dot(r1, tangent);
 1729              		.loc 1 229 3 is_stmt 1 view .LVU414
 1730              	@ src/b2d_lite.c:229: 		struct Vec2 tangent = Crossvs(c->normal, 1.0f);
 229:src/b2d_lite.c **** 		float rt1 = Dot(r1, tangent);
 1731              		.loc 1 229 25 is_stmt 0 view .LVU415
 1732 013e FFF7FEFF 		bl	Crossvs		@
 1733              	.LVL88:
 1734 0142 B0EE401A 		vmov.f32	s2, s0	@ tmp332,
 1735 0146 F0EE601A 		vmov.f32	s3, s1	@ tmp333,
 1736              	@ src/b2d_lite.c:230: 		float rt1 = Dot(r1, tangent);
 230:src/b2d_lite.c **** 		float rt2 = Dot(r2, tangent);
 1737              		.loc 1 230 15 view .LVU416
 1738 014a 9DED000A 		vldr.32	s0, [sp]	@, r1
 1739 014e DDED010A 		vldr.32	s1, [sp, #4]	@, r1
 1740              	@ src/b2d_lite.c:229: 		struct Vec2 tangent = Crossvs(c->normal, 1.0f);
 229:src/b2d_lite.c **** 		float rt1 = Dot(r1, tangent);
 1741              		.loc 1 229 25 view .LVU417
 1742 0152 8DED041A 		vstr.32	s2, [sp, #16]	@ tmp234, tangent
 1743 0156 CDED051A 		vstr.32	s3, [sp, #20]	@ tmp235, tangent
 230:src/b2d_lite.c **** 		float rt2 = Dot(r2, tangent);
 1744              		.loc 1 230 3 is_stmt 1 view .LVU418
 1745              	@ src/b2d_lite.c:230: 		float rt1 = Dot(r1, tangent);
 230:src/b2d_lite.c **** 		float rt2 = Dot(r2, tangent);
 1746              		.loc 1 230 15 is_stmt 0 view .LVU419
 1747 015a FFF7FEFF 		bl	Dot		@
 1748              	.LVL89:
 1749              	@ src/b2d_lite.c:231: 		float rt2 = Dot(r2, tangent);
 231:src/b2d_lite.c **** 		float kTangent = a->body1->invMass + a->body2->invMass;
 1750              		.loc 1 231 15 view .LVU420
 1751 015e 9DED041A 		vldr.32	s2, [sp, #16]	@, tangent
 1752              	@ src/b2d_lite.c:230: 		float rt1 = Dot(r1, tangent);
 230:src/b2d_lite.c **** 		float rt2 = Dot(r2, tangent);
 1753              		.loc 1 230 15 view .LVU421
 1754 0162 F0EE408A 		vmov.f32	s17, s0	@ tmp334,
 1755              	@ src/b2d_lite.c:231: 		float rt2 = Dot(r2, tangent);
 231:src/b2d_lite.c **** 		float kTangent = a->body1->invMass + a->body2->invMass;
 1756              		.loc 1 231 15 view .LVU422
 1757 0166 DDED051A 		vldr.32	s3, [sp, #20]	@, tangent
 1758 016a DDED030A 		vldr.32	s1, [sp, #12]	@, r2
 1759              	.LVL90:
 231:src/b2d_lite.c **** 		float kTangent = a->body1->invMass + a->body2->invMass;
ARM GAS  /tmp/ccPfsSwR.s 			page 41


 1760              		.loc 1 231 3 is_stmt 1 view .LVU423
 1761              	@ src/b2d_lite.c:231: 		float rt2 = Dot(r2, tangent);
 231:src/b2d_lite.c **** 		float kTangent = a->body1->invMass + a->body2->invMass;
 1762              		.loc 1 231 15 is_stmt 0 view .LVU424
 1763 016e 9DED020A 		vldr.32	s0, [sp, #8]	@, r2
 1764              	.LVL91:
 231:src/b2d_lite.c **** 		float kTangent = a->body1->invMass + a->body2->invMass;
 1765              		.loc 1 231 15 view .LVU425
 1766 0172 FFF7FEFF 		bl	Dot		@
 1767              	.LVL92:
 1768              	@ src/b2d_lite.c:233: 		kTangent += a->body1->invI * (Dot(r1, r1) - rt1 * rt1) + a->body2->invI * (
 233:src/b2d_lite.c **** 		c->massTangent = 1.0f /  kTangent;
 1769              		.loc 1 233 33 view .LVU426
 1770 0176 9DED001A 		vldr.32	s2, [sp]	@ r1, r1
 1771 017a DDED011A 		vldr.32	s3, [sp, #4]	@ r1, r1
 1772              	@ src/b2d_lite.c:231: 		float rt2 = Dot(r2, tangent);
 231:src/b2d_lite.c **** 		float kTangent = a->body1->invMass + a->body2->invMass;
 1773              		.loc 1 231 15 view .LVU427
 1774 017e B0EE40BA 		vmov.f32	s22, s0	@ rt2, tmp335
 1775              	.LVL93:
 232:src/b2d_lite.c **** 		kTangent += a->body1->invI * (Dot(r1, r1) - rt1 * rt1) + a->body2->invI * (Dot(r2, r2) - rt2 * rt
 1776              		.loc 1 232 3 is_stmt 1 view .LVU428
 1777              	@ src/b2d_lite.c:233: 		kTangent += a->body1->invI * (Dot(r1, r1) - rt1 * rt1) + a->body2->invI * (
 233:src/b2d_lite.c **** 		c->massTangent = 1.0f /  kTangent;
 1778              		.loc 1 233 33 is_stmt 0 view .LVU429
 1779 0182 B0EE410A 		vmov.f32	s0, s2	@,
 1780              	.LVL94:
 233:src/b2d_lite.c **** 		c->massTangent = 1.0f /  kTangent;
 1781              		.loc 1 233 33 view .LVU430
 1782 0186 F0EE610A 		vmov.f32	s1, s3	@,
 1783              	@ src/b2d_lite.c:232: 		float kTangent = a->body1->invMass + a->body2->invMass;
 232:src/b2d_lite.c **** 		kTangent += a->body1->invI * (Dot(r1, r1) - rt1 * rt1) + a->body2->invI * (Dot(r2, r2) - rt2 * rt
 1784              		.loc 1 232 48 view .LVU431
 1785 018a D5E92132 		ldrd	r3, r2, [r5, #132]	@ _23, a_72(D)->body2, a,
 1786              	@ src/b2d_lite.c:232: 		float kTangent = a->body1->invMass + a->body2->invMass;
 232:src/b2d_lite.c **** 		kTangent += a->body1->invI * (Dot(r1, r1) - rt1 * rt1) + a->body2->invI * (Dot(r2, r2) - rt2 * rt
 1787              		.loc 1 232 9 view .LVU432
 1788 018e D3ED0D7A 		vldr.32	s15, [r3, #52]	@ _23->invMass, _23->invMass
 1789 0192 92ED0D8A 		vldr.32	s16, [r2, #52]	@ _25->invMass, _25->invMass
 1790              	.LVL95:
 1791              	@ src/b2d_lite.c:233: 		kTangent += a->body1->invI * (Dot(r1, r1) - rt1 * rt1) + a->body2->invI * (
 233:src/b2d_lite.c **** 		c->massTangent = 1.0f /  kTangent;
 1792              		.loc 1 233 23 view .LVU433
 1793 0196 93ED0FCA 		vldr.32	s24, [r3, #60]	@ _27, _23->invI
 1794              	@ src/b2d_lite.c:232: 		float kTangent = a->body1->invMass + a->body2->invMass;
 232:src/b2d_lite.c **** 		kTangent += a->body1->invI * (Dot(r1, r1) - rt1 * rt1) + a->body2->invI * (Dot(r2, r2) - rt2 * rt
 1795              		.loc 1 232 9 view .LVU434
 1796 019a 38EE278A 		vadd.f32	s16, s16, s15	@ kTangent, _25->invMass, _23->invMass
 1797              	.LVL96:
 233:src/b2d_lite.c **** 		c->massTangent = 1.0f /  kTangent;
 1798              		.loc 1 233 3 is_stmt 1 view .LVU435
 1799              	@ src/b2d_lite.c:233: 		kTangent += a->body1->invI * (Dot(r1, r1) - rt1 * rt1) + a->body2->invI * (
 233:src/b2d_lite.c **** 		c->massTangent = 1.0f /  kTangent;
 1800              		.loc 1 233 33 is_stmt 0 view .LVU436
 1801 019e FFF7FEFF 		bl	Dot		@
 1802              	.LVL97:
 1803              	@ src/b2d_lite.c:233: 		kTangent += a->body1->invI * (Dot(r1, r1) - rt1 * rt1) + a->body2->invI * (
ARM GAS  /tmp/ccPfsSwR.s 			page 42


 233:src/b2d_lite.c **** 		c->massTangent = 1.0f /  kTangent;
 1804              		.loc 1 233 45 view .LVU437
 1805 01a2 A8EEE80A 		vfms.f32	s0, s17, s17	@ tmp336, rt1, rt1
 1806              	@ src/b2d_lite.c:233: 		kTangent += a->body1->invI * (Dot(r1, r1) - rt1 * rt1) + a->body2->invI * (
 233:src/b2d_lite.c **** 		c->massTangent = 1.0f /  kTangent;
 1807              		.loc 1 233 78 view .LVU438
 1808 01a6 9DED021A 		vldr.32	s2, [sp, #8]	@ r2, r2
 1809 01aa DDED031A 		vldr.32	s3, [sp, #12]	@ r2, r2
 1810              	@ src/b2d_lite.c:233: 		kTangent += a->body1->invI * (Dot(r1, r1) - rt1 * rt1) + a->body2->invI * (
 233:src/b2d_lite.c **** 		c->massTangent = 1.0f /  kTangent;
 1811              		.loc 1 233 68 view .LVU439
 1812 01ae D5F88830 		ldr	r3, [r5, #136]	@ a_72(D)->body2, a_72(D)->body2
 1813              	@ src/b2d_lite.c:233: 		kTangent += a->body1->invI * (Dot(r1, r1) - rt1 * rt1) + a->body2->invI * (
 233:src/b2d_lite.c **** 		c->massTangent = 1.0f /  kTangent;
 1814              		.loc 1 233 78 view .LVU440
 1815 01b2 F0EE610A 		vmov.f32	s1, s3	@,
 1816              	@ src/b2d_lite.c:233: 		kTangent += a->body1->invI * (Dot(r1, r1) - rt1 * rt1) + a->body2->invI * (
 233:src/b2d_lite.c **** 		c->massTangent = 1.0f /  kTangent;
 1817              		.loc 1 233 68 view .LVU441
 1818 01b6 D3ED0F8A 		vldr.32	s17, [r3, #60]	@ _33, _32->invI
 1819              	.LVL98:
 1820              	@ src/b2d_lite.c:233: 		kTangent += a->body1->invI * (Dot(r1, r1) - rt1 * rt1) + a->body2->invI * (
 233:src/b2d_lite.c **** 		c->massTangent = 1.0f /  kTangent;
 1821              		.loc 1 233 45 view .LVU442
 1822 01ba F0EE40BA 		vmov.f32	s23, s0	@ _30, tmp336
 1823              	@ src/b2d_lite.c:233: 		kTangent += a->body1->invI * (Dot(r1, r1) - rt1 * rt1) + a->body2->invI * (
 233:src/b2d_lite.c **** 		c->massTangent = 1.0f /  kTangent;
 1824              		.loc 1 233 78 view .LVU443
 1825 01be B0EE410A 		vmov.f32	s0, s2	@,
 1826 01c2 FFF7FEFF 		bl	Dot		@
 1827              	.LVL99:
 1828 01c6 F0EE407A 		vmov.f32	s15, s0	@ tmp337,
 1829              	@ src/b2d_lite.c:236: 		c->bias = -k_biasFactor * inv_dt * Min(0.0f, c->separation + k_allowedPenet
 1830              		.loc 1 236 38 view .LVU444
 1831 01ca D4ED080A 		vldr.32	s1, [r4, #32]	@ MEM[base: c_73, offset: 32B], MEM[base: c_73, offset: 32B]
 1832 01ce B0EE4A0A 		vmov.f32	s0, s20	@, tmp321
 1833              	@ src/b2d_lite.c:233: 		kTangent += a->body1->invI * (Dot(r1, r1) - rt1 * rt1) + a->body2->invI * (
 233:src/b2d_lite.c **** 		c->massTangent = 1.0f /  kTangent;
 1834              		.loc 1 233 90 view .LVU445
 1835 01d2 EBEE4B7A 		vfms.f32	s15, s22, s22	@ _36, rt2, rt2
 1836              	@ src/b2d_lite.c:236: 		c->bias = -k_biasFactor * inv_dt * Min(0.0f, c->separation + k_allowedPenet
 1837              		.loc 1 236 38 view .LVU446
 1838 01d6 70EEAA0A 		vadd.f32	s1, s1, s21	@, MEM[base: c_73, offset: 32B], tmp264
 1839              	@ src/b2d_lite.c:233: 		kTangent += a->body1->invI * (Dot(r1, r1) - rt1 * rt1) + a->body2->invI * (
 233:src/b2d_lite.c **** 		c->massTangent = 1.0f /  kTangent;
 1840              		.loc 1 233 75 view .LVU447
 1841 01da 68EEA78A 		vmul.f32	s17, s17, s15	@ tmp258, _33, _36
 1842              	@ src/b2d_lite.c:233: 		kTangent += a->body1->invI * (Dot(r1, r1) - rt1 * rt1) + a->body2->invI * (
 233:src/b2d_lite.c **** 		c->massTangent = 1.0f /  kTangent;
 1843              		.loc 1 233 58 view .LVU448
 1844 01de ECEE2B8A 		vfma.f32	s17, s24, s23	@ _94, _27, _30
 1845              	.LVL100:
 234:src/b2d_lite.c **** 
 1846              		.loc 1 234 3 is_stmt 1 view .LVU449
 1847              	@ src/b2d_lite.c:233: 		kTangent += a->body1->invI * (Dot(r1, r1) - rt1 * rt1) + a->body2->invI * (
 233:src/b2d_lite.c **** 		c->massTangent = 1.0f /  kTangent;
 1848              		.loc 1 233 12 is_stmt 0 view .LVU450
ARM GAS  /tmp/ccPfsSwR.s 			page 43


 1849 01e2 38EE288A 		vadd.f32	s16, s16, s17	@ kTangent, kTangent, _94
 1850              	.LVL101:
 1851              	@ src/b2d_lite.c:234: 		c->massTangent = 1.0f /  kTangent;
 234:src/b2d_lite.c **** 
 1852              		.loc 1 234 25 view .LVU451
 1853 01e6 C9EE087A 		vdiv.f32	s15, s18, s16	@ tmp260, tmp231, kTangent
 1854              	@ src/b2d_lite.c:234: 		c->massTangent = 1.0f /  kTangent;
 234:src/b2d_lite.c **** 
 1855              		.loc 1 234 18 view .LVU452
 1856 01ea C4ED0D7A 		vstr.32	s15, [r4, #52]	@ tmp260, MEM[base: c_73, offset: 52B]
 1857              		.loc 1 236 3 is_stmt 1 view .LVU453
 1858              	@ src/b2d_lite.c:236: 		c->bias = -k_biasFactor * inv_dt * Min(0.0f, c->separation + k_allowedPenet
 1859              		.loc 1 236 38 is_stmt 0 view .LVU454
 1860 01ee FFF7FEFF 		bl	Min		@
 1861              	.LVL102:
 1862              	@ src/b2d_lite.c:236: 		c->bias = -k_biasFactor * inv_dt * Min(0.0f, c->separation + k_allowedPenet
 1863              		.loc 1 236 36 view .LVU455
 1864 01f2 29EE800A 		vmul.f32	s0, s19, s0	@ tmp266, _40, tmp338
 1865              	@ src/b2d_lite.c:238: 		if (accumulateImpulses)
 237:src/b2d_lite.c **** 
 238:src/b2d_lite.c **** 		if (accumulateImpulses)
 1866              		.loc 1 238 6 view .LVU456
 1867 01f6 3B68     		ldr	r3, [r7]	@ accumulateImpulses, accumulateImpulses
 1868              	@ src/b2d_lite.c:236: 		c->bias = -k_biasFactor * inv_dt * Min(0.0f, c->separation + k_allowedPenet
 236:src/b2d_lite.c **** 
 1869              		.loc 1 236 11 view .LVU457
 1870 01f8 84ED0E0A 		vstr.32	s0, [r4, #56]	@ tmp266, MEM[base: c_73, offset: 56B]
 1871              		.loc 1 238 3 is_stmt 1 view .LVU458
 1872              	@ src/b2d_lite.c:238: 		if (accumulateImpulses)
 1873              		.loc 1 238 6 is_stmt 0 view .LVU459
 1874 01fc 002B     		cmp	r3, #0	@ accumulateImpulses
 1875 01fe 3FF41DAF 		beq	.L85	@
 1876              	.LBB94:
 239:src/b2d_lite.c **** 		{
 240:src/b2d_lite.c **** 			// Apply normal + friction impulse
 241:src/b2d_lite.c **** 			struct Vec2 P = sumVec2(scaledVec2(c->Pn, c->normal), scaledVec2(c->Pt, tangent));
 1877              		.loc 1 241 4 is_stmt 1 view .LVU460
 1878              	@ src/b2d_lite.c:241: 			struct Vec2 P = sumVec2(scaledVec2(c->Pn, c->normal), scaledVec2(c->Pt, ta
 1879              		.loc 1 241 20 is_stmt 0 view .LVU461
 1880 0202 D4ED020A 		vldr.32	s1, [r4, #8]	@, c_73->normal
 1881              	.LBE94:
 1882              	.LBE97:
 1883              	@ src/b2d_lite.c:215: 	for (int i = 0; i < a->numContacts; ++i)
 215:src/b2d_lite.c **** 	{
 1884              		.loc 1 215 38 view .LVU462
 1885 0206 0136     		adds	r6, r6, #1	@ i, i,
 1886              	.LVL103:
 1887              	.LBB98:
 1888              	.LBB95:
 1889              	@ src/b2d_lite.c:241: 			struct Vec2 P = sumVec2(scaledVec2(c->Pn, c->normal), scaledVec2(c->Pt, ta
 1890              		.loc 1 241 20 view .LVU463
 1891 0208 94ED090A 		vldr.32	s0, [r4, #36]	@, MEM[base: c_73, offset: 36B]
 1892 020c 4034     		adds	r4, r4, #64	@ ivtmp.135, ivtmp.135,
 1893              	.LVL104:
 1894              		.loc 1 241 20 view .LVU464
 1895 020e 14ED0D1A 		vldr.32	s2, [r4, #-52]	@, c_73->normal
 1896 0212 FFF7FEFF 		bl	scaledVec2		@
ARM GAS  /tmp/ccPfsSwR.s 			page 44


 1897              	.LVL105:
 1898 0216 B0EE407A 		vmov.f32	s14, s0	@ tmp339,
 1899 021a F0EE607A 		vmov.f32	s15, s1	@ tmp340,
 1900 021e 14ED060A 		vldr.32	s0, [r4, #-24]	@, MEM[base: c_73, offset: 40B]
 1901 0222 DDED040A 		vldr.32	s1, [sp, #16]	@, tangent
 1902 0226 9DED051A 		vldr.32	s2, [sp, #20]	@, tangent
 1903 022a 8DED087A 		vstr.32	s14, [sp, #32]	@ tmp339, D.7766
 1904 022e CDED097A 		vstr.32	s15, [sp, #36]	@ tmp340, D.7766
 1905 0232 FFF7FEFF 		bl	scaledVec2		@
 1906              	.LVL106:
 1907 0236 F0EE601A 		vmov.f32	s3, s1	@ tmp342,
 1908 023a DDED090A 		vldr.32	s1, [sp, #36]	@, D.7766
 1909 023e B0EE401A 		vmov.f32	s2, s0	@ tmp341,
 1910 0242 9DED080A 		vldr.32	s0, [sp, #32]	@, D.7766
 1911 0246 CDED0B1A 		vstr.32	s3, [sp, #44]	@ tmp278, D.7767
 1912 024a 8DED0A1A 		vstr.32	s2, [sp, #40]	@ tmp277, D.7767
 1913 024e FFF7FEFF 		bl	sumVec2		@
 1914              	.LVL107:
 1915              	@ src/b2d_lite.c:243: 			subfromVec2(&a->body1->velocity, scaledVec2(a->body1->invMass, P));
 242:src/b2d_lite.c **** 
 243:src/b2d_lite.c **** 			subfromVec2(&a->body1->velocity, scaledVec2(a->body1->invMass, P));
 1916              		.loc 1 243 18 view .LVU465
 1917 0252 D5F88480 		ldr	r8, [r5, #132]	@ _48, a_72(D)->body1
 1918              	@ src/b2d_lite.c:241: 			struct Vec2 P = sumVec2(scaledVec2(c->Pn, c->normal), scaledVec2(c->Pt, ta
 241:src/b2d_lite.c **** 
 1919              		.loc 1 241 20 view .LVU466
 1920 0256 B0EE601A 		vmov.f32	s2, s1	@ tmp284, tmp344
 1921 025a F0EE400A 		vmov.f32	s1, s0	@ tmp283, tmp343
 1922              	@ src/b2d_lite.c:243: 			subfromVec2(&a->body1->velocity, scaledVec2(a->body1->invMass, P));
 1923              		.loc 1 243 4 view .LVU467
 1924 025e 98ED0D0A 		vldr.32	s0, [r8, #52]	@, _48->invMass
 1925              	@ src/b2d_lite.c:241: 			struct Vec2 P = sumVec2(scaledVec2(c->Pn, c->normal), scaledVec2(c->Pt, ta
 241:src/b2d_lite.c **** 
 1926              		.loc 1 241 20 view .LVU468
 1927 0262 8DED071A 		vstr.32	s2, [sp, #28]	@ tmp284, P
 1928              		.loc 1 243 4 is_stmt 1 view .LVU469
 1929              	@ src/b2d_lite.c:241: 			struct Vec2 P = sumVec2(scaledVec2(c->Pn, c->normal), scaledVec2(c->Pt, ta
 241:src/b2d_lite.c **** 
 1930              		.loc 1 241 20 is_stmt 0 view .LVU470
 1931 0266 CDED060A 		vstr.32	s1, [sp, #24]	@ tmp283, P
 1932              	@ src/b2d_lite.c:243: 			subfromVec2(&a->body1->velocity, scaledVec2(a->body1->invMass, P));
 1933              		.loc 1 243 4 view .LVU471
 1934 026a FFF7FEFF 		bl	scaledVec2		@
 1935              	.LVL108:
 1936 026e 08F10C00 		add	r0, r8, #12	@, _48,
 1937 0272 8DED0C0A 		vstr.32	s0, [sp, #48]	@ tmp345, D.7768
 1938 0276 CDED0D0A 		vstr.32	s1, [sp, #52]	@ tmp346, D.7768
 1939 027a FFF7FEFF 		bl	subfromVec2		@
 1940              	.LVL109:
 244:src/b2d_lite.c **** 			a->body1->angularVelocity -= a->body1->invI * Crossvv(r1, P);
 1941              		.loc 1 244 4 is_stmt 1 view .LVU472
 1942              	@ src/b2d_lite.c:244: 			a->body1->angularVelocity -= a->body1->invI * Crossvv(r1, P);
 1943              		.loc 1 244 41 is_stmt 0 view .LVU473
 1944 027e D5F88430 		ldr	r3, [r5, #132]	@ a_72(D)->body1, a_72(D)->body1
 1945              	@ src/b2d_lite.c:244: 			a->body1->angularVelocity -= a->body1->invI * Crossvv(r1, P);
 1946              		.loc 1 244 50 view .LVU474
 1947 0282 DDED071A 		vldr.32	s3, [sp, #28]	@, P
ARM GAS  /tmp/ccPfsSwR.s 			page 45


 1948 0286 9DED061A 		vldr.32	s2, [sp, #24]	@, P
 1949 028a DDED010A 		vldr.32	s1, [sp, #4]	@, r1
 1950 028e 9DED000A 		vldr.32	s0, [sp]	@, r1
 1951              	@ src/b2d_lite.c:244: 			a->body1->angularVelocity -= a->body1->invI * Crossvv(r1, P);
 1952              		.loc 1 244 41 view .LVU475
 1953 0292 93ED0F8A 		vldr.32	s16, [r3, #60]	@ _52, _51->invI
 1954              	.LVL110:
 1955              	@ src/b2d_lite.c:244: 			a->body1->angularVelocity -= a->body1->invI * Crossvv(r1, P);
 1956              		.loc 1 244 50 view .LVU476
 1957 0296 FFF7FEFF 		bl	Crossvv		@
 1958              	.LVL111:
 1959              	@ src/b2d_lite.c:244: 			a->body1->angularVelocity -= a->body1->invI * Crossvv(r1, P);
 1960              		.loc 1 244 5 view .LVU477
 1961 029a D5F88430 		ldr	r3, [r5, #132]	@ _54, a_72(D)->body1
 1962              	@ src/b2d_lite.c:244: 			a->body1->angularVelocity -= a->body1->invI * Crossvv(r1, P);
 1963              		.loc 1 244 50 view .LVU478
 1964 029e B0EE407A 		vmov.f32	s14, s0	@ tmp347,
 1965              	@ src/b2d_lite.c:246: 			addtoVec2(&a->body2->velocity, scaledVec2(a->body2->invMass, P));
 245:src/b2d_lite.c **** 
 246:src/b2d_lite.c **** 			addtoVec2(&a->body2->velocity, scaledVec2(a->body2->invMass, P));
 1966              		.loc 1 246 16 view .LVU479
 1967 02a2 D5F88880 		ldr	r8, [r5, #136]	@ _57, a_72(D)->body2
 1968              	@ src/b2d_lite.c:244: 			a->body1->angularVelocity -= a->body1->invI * Crossvv(r1, P);
 244:src/b2d_lite.c **** 			a->body1->angularVelocity -= a->body1->invI * Crossvv(r1, P);
 1969              		.loc 1 244 30 view .LVU480
 1970 02a6 D3ED057A 		vldr.32	s15, [r3, #20]	@ _54->angularVelocity, _54->angularVelocity
 1971              	@ src/b2d_lite.c:246: 			addtoVec2(&a->body2->velocity, scaledVec2(a->body2->invMass, P));
 1972              		.loc 1 246 4 view .LVU481
 1973 02aa 98ED0D0A 		vldr.32	s0, [r8, #52]	@, _57->invMass
 1974              	@ src/b2d_lite.c:244: 			a->body1->angularVelocity -= a->body1->invI * Crossvv(r1, P);
 244:src/b2d_lite.c **** 			a->body1->angularVelocity -= a->body1->invI * Crossvv(r1, P);
 1975              		.loc 1 244 30 view .LVU482
 1976 02ae E8EE477A 		vfms.f32	s15, s16, s14	@ _56, _52, tmp347
 1977              	@ src/b2d_lite.c:246: 			addtoVec2(&a->body2->velocity, scaledVec2(a->body2->invMass, P));
 1978              		.loc 1 246 4 view .LVU483
 1979 02b2 DDED060A 		vldr.32	s1, [sp, #24]	@, P
 1980 02b6 9DED071A 		vldr.32	s2, [sp, #28]	@, P
 1981              	@ src/b2d_lite.c:244: 			a->body1->angularVelocity -= a->body1->invI * Crossvv(r1, P);
 244:src/b2d_lite.c **** 			a->body1->angularVelocity -= a->body1->invI * Crossvv(r1, P);
 1982              		.loc 1 244 30 view .LVU484
 1983 02ba C3ED057A 		vstr.32	s15, [r3, #20]	@ _56, _54->angularVelocity
 1984              		.loc 1 246 4 is_stmt 1 view .LVU485
 1985 02be FFF7FEFF 		bl	scaledVec2		@
 1986              	.LVL112:
 1987 02c2 08F10C00 		add	r0, r8, #12	@, _57,
 1988 02c6 8DED0E0A 		vstr.32	s0, [sp, #56]	@ tmp348, D.7770
 1989 02ca CDED0F0A 		vstr.32	s1, [sp, #60]	@ tmp349, D.7770
 1990 02ce FFF7FEFF 		bl	addtoVec2		@
 1991              	.LVL113:
 247:src/b2d_lite.c **** 			a->body2->angularVelocity += a->body2->invI * Crossvv(r2, P);
 1992              		.loc 1 247 4 view .LVU486
 1993              	@ src/b2d_lite.c:247: 			a->body2->angularVelocity += a->body2->invI * Crossvv(r2, P);
 1994              		.loc 1 247 41 is_stmt 0 view .LVU487
 1995 02d2 D5F88830 		ldr	r3, [r5, #136]	@ a_72(D)->body2, a_72(D)->body2
 1996              	@ src/b2d_lite.c:247: 			a->body2->angularVelocity += a->body2->invI * Crossvv(r2, P);
 1997              		.loc 1 247 50 view .LVU488
 1998 02d6 9DED061A 		vldr.32	s2, [sp, #24]	@, P
ARM GAS  /tmp/ccPfsSwR.s 			page 46


 1999 02da DDED071A 		vldr.32	s3, [sp, #28]	@, P
 2000 02de 9DED020A 		vldr.32	s0, [sp, #8]	@, r2
 2001 02e2 DDED030A 		vldr.32	s1, [sp, #12]	@, r2
 2002              	@ src/b2d_lite.c:247: 			a->body2->angularVelocity += a->body2->invI * Crossvv(r2, P);
 2003              		.loc 1 247 41 view .LVU489
 2004 02e6 93ED0F8A 		vldr.32	s16, [r3, #60]	@ _61, _60->invI
 2005              	@ src/b2d_lite.c:247: 			a->body2->angularVelocity += a->body2->invI * Crossvv(r2, P);
 2006              		.loc 1 247 50 view .LVU490
 2007 02ea FFF7FEFF 		bl	Crossvv		@
 2008              	.LVL114:
 2009              	@ src/b2d_lite.c:247: 			a->body2->angularVelocity += a->body2->invI * Crossvv(r2, P);
 2010              		.loc 1 247 5 view .LVU491
 2011 02ee D5F88830 		ldr	r3, [r5, #136]	@ _63, a_72(D)->body2
 2012              	@ src/b2d_lite.c:247: 			a->body2->angularVelocity += a->body2->invI * Crossvv(r2, P);
 2013              		.loc 1 247 30 view .LVU492
 2014 02f2 D3ED057A 		vldr.32	s15, [r3, #20]	@ _63->angularVelocity, _63->angularVelocity
 2015 02f6 E8EE007A 		vfma.f32	s15, s16, s0	@ _65, _61, tmp350
 2016 02fa C3ED057A 		vstr.32	s15, [r3, #20]	@ _65, _63->angularVelocity
 2017              	.LBE95:
 2018              	.LBE98:
 215:src/b2d_lite.c **** 	{
 2019              		.loc 1 215 38 is_stmt 1 view .LVU493
 2020              	.LVL115:
 215:src/b2d_lite.c **** 	{
 2021              		.loc 1 215 18 view .LVU494
 2022              	@ src/b2d_lite.c:215: 	for (int i = 0; i < a->numContacts; ++i)
 215:src/b2d_lite.c **** 	{
 2023              		.loc 1 215 2 is_stmt 0 view .LVU495
 2024 02fe D5F88030 		ldr	r3, [r5, #128]	@ a_72(D)->numContacts, a_72(D)->numContacts
 2025 0302 B342     		cmp	r3, r6	@ a_72(D)->numContacts, i
 2026 0304 3FF7A1AE 		bgt	.L86		@,
 2027              	.LVL116:
 2028              	.L82:
 215:src/b2d_lite.c **** 	{
 2029              		.loc 1 215 2 view .LVU496
 2030              	.LBE99:
 2031              	@ src/b2d_lite.c:250: }
 248:src/b2d_lite.c **** 		}
 249:src/b2d_lite.c **** 	}
 250:src/b2d_lite.c **** }
 2032              		.loc 1 250 1 view .LVU497
 2033 0308 10B0     		add	sp, sp, #64	@,,
 2034              	.LCFI31:
 2035              		.cfi_def_cfa_offset 64
 2036              		@ sp needed	@
 2037 030a BDEC0A8B 		vldm	sp!, {d8-d12}	@,
 2038              	.LCFI32:
 2039              		.cfi_restore 88
 2040              		.cfi_restore 89
 2041              		.cfi_restore 86
 2042              		.cfi_restore 87
 2043              		.cfi_restore 84
 2044              		.cfi_restore 85
 2045              		.cfi_restore 82
 2046              		.cfi_restore 83
 2047              		.cfi_restore 80
 2048              		.cfi_restore 81
ARM GAS  /tmp/ccPfsSwR.s 			page 47


 2049              		.cfi_def_cfa_offset 24
 2050 030e BDE8F081 		pop	{r4, r5, r6, r7, r8, pc}	@
 2051              	.L95:
 2052 0312 00BF     		.align	2
 2053              	.L94:
 2054 0314 00000000 		.word	.LANCHOR1
 2055 0318 CDCC4C3E 		.word	1045220557
 2056 031c 00000000 		.word	0
 2057 0320 00000000 		.word	.LANCHOR2
 2058 0324 0AD7233C 		.word	1008981770
 2059              		.cfi_endproc
 2060              	.LFE9:
 2061              		.size	PreStep, .-PreStep
 2062              		.section	.text.ApplyImpulse,"ax",%progbits
 2063              		.align	1
 2064              		.p2align 4,,15
 2065              		.global	ApplyImpulse
 2066              		.syntax unified
 2067              		.thumb
 2068              		.thumb_func
 2069              		.fpu fpv5-sp-d16
 2070              		.type	ApplyImpulse, %function
 2071              	ApplyImpulse:
 2072              	.LVL117:
 2073              	.LFB10:
 251:src/b2d_lite.c **** 
 252:src/b2d_lite.c **** void ApplyImpulse(struct Arbiter *a)
 253:src/b2d_lite.c **** {
 2074              		.loc 1 253 1 is_stmt 1 view -0
 2075              		.cfi_startproc
 2076              		@ args = 0, pretend = 0, frame = 128
 2077              		@ frame_needed = 0, uses_anonymous_args = 0
 254:src/b2d_lite.c **** 	struct Body* b1 = a->body1;
 2078              		.loc 1 254 2 view .LVU499
 2079              	@ src/b2d_lite.c:253: {
 253:src/b2d_lite.c **** 	struct Body* b1 = a->body1;
 2080              		.loc 1 253 1 is_stmt 0 view .LVU500
 2081 0000 2DE9F04F 		push	{r4, r5, r6, r7, r8, r9, r10, fp, lr}	@
 2082              	.LCFI33:
 2083              		.cfi_def_cfa_offset 36
 2084              		.cfi_offset 4, -36
 2085              		.cfi_offset 5, -32
 2086              		.cfi_offset 6, -28
 2087              		.cfi_offset 7, -24
 2088              		.cfi_offset 8, -20
 2089              		.cfi_offset 9, -16
 2090              		.cfi_offset 10, -12
 2091              		.cfi_offset 11, -8
 2092              		.cfi_offset 14, -4
 2093              	@ src/b2d_lite.c:254: 	struct Body* b1 = a->body1;
 2094              		.loc 1 254 15 view .LVU501
 2095 0004 D0E92035 		ldrd	r3, r5, [r0, #128]	@ a_53(D)->numContacts, b1, a,
 2096              	.LVL118:
 255:src/b2d_lite.c **** 	struct Body* b2 = a->body2;
 2097              		.loc 1 255 2 is_stmt 1 view .LVU502
 2098              	@ src/b2d_lite.c:253: {
 253:src/b2d_lite.c **** 	struct Body* b1 = a->body1;
ARM GAS  /tmp/ccPfsSwR.s 			page 48


 2099              		.loc 1 253 1 is_stmt 0 view .LVU503
 2100 0008 2DED048B 		vpush.64	{d8, d9}	@
 2101              	.LCFI34:
 2102              		.cfi_def_cfa_offset 52
 2103              		.cfi_offset 80, -52
 2104              		.cfi_offset 81, -48
 2105              		.cfi_offset 82, -44
 2106              		.cfi_offset 83, -40
 2107              	.LBB100:
 2108              	@ src/b2d_lite.c:257: 	for (int i = 0; i < a->numContacts; ++i)
 256:src/b2d_lite.c **** 
 257:src/b2d_lite.c **** 	for (int i = 0; i < a->numContacts; ++i)
 2109              		.loc 1 257 2 view .LVU504
 2110 000c 002B     		cmp	r3, #0	@ a_53(D)->numContacts,
 2111              	.LBE100:
 2112              	@ src/b2d_lite.c:253: {
 253:src/b2d_lite.c **** 	struct Body* b1 = a->body1;
 2113              		.loc 1 253 1 view .LVU505
 2114 000e A1B0     		sub	sp, sp, #132	@,,
 2115              	.LCFI35:
 2116              		.cfi_def_cfa_offset 184
 2117              	@ src/b2d_lite.c:255: 	struct Body* b2 = a->body2;
 255:src/b2d_lite.c **** 	struct Body* b2 = a->body2;
 2118              		.loc 1 255 15 view .LVU506
 2119 0010 D0F88860 		ldr	r6, [r0, #136]	@ b2, a_53(D)->body2
 2120              	.LVL119:
 2121              		.loc 1 257 2 is_stmt 1 view .LVU507
 2122              	.LBB110:
 2123              		.loc 1 257 7 view .LVU508
 2124              		.loc 1 257 18 view .LVU509
 2125              	@ src/b2d_lite.c:257: 	for (int i = 0; i < a->numContacts; ++i)
 2126              		.loc 1 257 2 is_stmt 0 view .LVU510
 2127 0014 40F3BD81 		ble	.L96		@,
 2128 0018 8046     		mov	r8, r0	@ a, tmp331
 2129 001a 05F10C0B 		add	fp, r5, #12	@ pretmp_125, b1,
 2130 001e 06F10C0A 		add	r10, r6, #12	@ pretmp_127, b2,
 2131 0022 0446     		mov	r4, r0	@ ivtmp.143, a
 2132              	@ src/b2d_lite.c:257: 	for (int i = 0; i < a->numContacts; ++i)
 2133              		.loc 1 257 11 view .LVU511
 2134 0024 0027     		movs	r7, #0	@ i,
 2135 0026 DFF87893 		ldr	r9, .L107+4	@ tmp328,
 2136              	.LBB101:
 2137              	@ src/b2d_lite.c:281: 			dPn = Max(dPn, 0.0f);
 258:src/b2d_lite.c **** 	{
 259:src/b2d_lite.c **** 		struct Contact* c = a->contacts + i;
 260:src/b2d_lite.c **** 		c->r1 = diffVec2(c->position, b1->position);
 261:src/b2d_lite.c **** 		c->r2 = diffVec2(c->position, b2->position);
 262:src/b2d_lite.c **** 
 263:src/b2d_lite.c **** 		// Relative velocity at contact
 264:src/b2d_lite.c **** 		struct Vec2 dv = diffVec2(sumVec2(b2->velocity, Crosssv(b2->angularVelocity, c->r2)),
 265:src/b2d_lite.c ****                                   sumVec2(b1->velocity, Crosssv(b1->angularVelocity, c->r1)));
 266:src/b2d_lite.c **** 
 267:src/b2d_lite.c **** 		// Compute normal impulse
 268:src/b2d_lite.c **** 		float vn = Dot(dv, c->normal);
 269:src/b2d_lite.c **** 
 270:src/b2d_lite.c **** 		float dPn = c->massNormal * (-vn + c->bias);
 271:src/b2d_lite.c **** 
ARM GAS  /tmp/ccPfsSwR.s 			page 49


 272:src/b2d_lite.c **** 		if (accumulateImpulses)
 273:src/b2d_lite.c **** 		{
 274:src/b2d_lite.c **** 			// Clamp the accumulated impulse
 275:src/b2d_lite.c **** 			float Pn0 = c->Pn;
 276:src/b2d_lite.c **** 			c->Pn = Max(Pn0 + dPn, 0.0f);
 277:src/b2d_lite.c **** 			dPn = c->Pn - Pn0;
 278:src/b2d_lite.c **** 		}
 279:src/b2d_lite.c **** 		else
 280:src/b2d_lite.c **** 		{
 281:src/b2d_lite.c **** 			dPn = Max(dPn, 0.0f);
 2138              		.loc 1 281 10 view .LVU512
 2139 002a DFEDDC8A 		vldr.32	s17, .L107	@ tmp329,
 2140 002e 2BE1     		b	.L102		@
 2141              	.LVL120:
 2142              	.L106:
 2143              	.LBB102:
 275:src/b2d_lite.c **** 			c->Pn = Max(Pn0 + dPn, 0.0f);
 2144              		.loc 1 275 4 is_stmt 1 view .LVU513
 2145              	@ src/b2d_lite.c:275: 			float Pn0 = c->Pn;
 275:src/b2d_lite.c **** 			c->Pn = Max(Pn0 + dPn, 0.0f);
 2146              		.loc 1 275 10 is_stmt 0 view .LVU514
 2147 0030 94ED098A 		vldr.32	s16, [r4, #36]	@ Pn0, MEM[base: c_56, offset: 36B]
 2148              	.LVL121:
 276:src/b2d_lite.c **** 			dPn = c->Pn - Pn0;
 2149              		.loc 1 276 4 is_stmt 1 view .LVU515
 2150              	@ src/b2d_lite.c:276: 			c->Pn = Max(Pn0 + dPn, 0.0f);
 276:src/b2d_lite.c **** 			dPn = c->Pn - Pn0;
 2151              		.loc 1 276 12 is_stmt 0 view .LVU516
 2152 0034 F0EE680A 		vmov.f32	s1, s17	@, tmp329
 2153 0038 30EE080A 		vadd.f32	s0, s0, s16	@, dPn, Pn0
 2154              	.LVL122:
 276:src/b2d_lite.c **** 			dPn = c->Pn - Pn0;
 2155              		.loc 1 276 12 view .LVU517
 2156 003c FFF7FEFF 		bl	Max		@
 2157              	.LVL123:
 2158              	@ src/b2d_lite.c:277: 			dPn = c->Pn - Pn0;
 277:src/b2d_lite.c **** 		}
 2159              		.loc 1 277 8 view .LVU518
 2160 0040 30EE488A 		vsub.f32	s16, s0, s16	@ dPn, _11, Pn0
 2161              	.LVL124:
 2162              	@ src/b2d_lite.c:276: 			c->Pn = Max(Pn0 + dPn, 0.0f);
 276:src/b2d_lite.c **** 			dPn = c->Pn - Pn0;
 2163              		.loc 1 276 10 view .LVU519
 2164 0044 84ED090A 		vstr.32	s0, [r4, #36]	@ _11, MEM[base: c_56, offset: 36B]
 277:src/b2d_lite.c **** 		}
 2165              		.loc 1 277 4 is_stmt 1 view .LVU520
 2166              	.LVL125:
 2167              	.L99:
 277:src/b2d_lite.c **** 		}
 2168              		.loc 1 277 4 is_stmt 0 view .LVU521
 2169              	.LBE102:
 282:src/b2d_lite.c **** 		}
 283:src/b2d_lite.c **** 
 284:src/b2d_lite.c **** 		// Apply contact impulse
 285:src/b2d_lite.c **** 		struct Vec2 Pn = scaledVec2(dPn, c->normal);
 2170              		.loc 1 285 3 is_stmt 1 view .LVU522
 2171              	@ src/b2d_lite.c:285: 		struct Vec2 Pn = scaledVec2(dPn, c->normal);
ARM GAS  /tmp/ccPfsSwR.s 			page 50


 2172              		.loc 1 285 20 is_stmt 0 view .LVU523
 2173 0048 B0EE480A 		vmov.f32	s0, s16	@, dPn
 2174 004c D4ED020A 		vldr.32	s1, [r4, #8]	@, c_56->normal
 2175 0050 94ED031A 		vldr.32	s2, [r4, #12]	@, c_56->normal
 2176 0054 FFF7FEFF 		bl	scaledVec2		@
 2177              	.LVL126:
 2178 0058 B0EE601A 		vmov.f32	s2, s1	@ tmp227, tmp350
 2179 005c F0EE407A 		vmov.f32	s15, s0	@ tmp349,
 2180              	@ src/b2d_lite.c:287:         subfromVec2(&b1->velocity, scaledVec2(b1->invMass, Pn));
 286:src/b2d_lite.c **** 
 287:src/b2d_lite.c ****         subfromVec2(&b1->velocity, scaledVec2(b1->invMass, Pn));
 2181              		.loc 1 287 9 view .LVU524
 2182 0060 95ED0D0A 		vldr.32	s0, [r5, #52]	@, b1_54->invMass
 2183              	@ src/b2d_lite.c:285: 		struct Vec2 Pn = scaledVec2(dPn, c->normal);
 285:src/b2d_lite.c **** 
 2184              		.loc 1 285 20 view .LVU525
 2185 0064 8DED031A 		vstr.32	s2, [sp, #12]	@ tmp227, Pn
 2186              		.loc 1 287 9 is_stmt 1 view .LVU526
 2187 0068 F0EE670A 		vmov.f32	s1, s15	@, tmp226
 2188              	@ src/b2d_lite.c:285: 		struct Vec2 Pn = scaledVec2(dPn, c->normal);
 285:src/b2d_lite.c **** 
 2189              		.loc 1 285 20 is_stmt 0 view .LVU527
 2190 006c CDED027A 		vstr.32	s15, [sp, #8]	@ tmp226, Pn
 2191              	@ src/b2d_lite.c:287:         subfromVec2(&b1->velocity, scaledVec2(b1->invMass, Pn));
 2192              		.loc 1 287 9 view .LVU528
 2193 0070 FFF7FEFF 		bl	scaledVec2		@
 2194              	.LVL127:
 2195 0074 5846     		mov	r0, fp	@, pretmp_125
 2196 0076 8DED100A 		vstr.32	s0, [sp, #64]	@ tmp351, D.7779
 2197 007a CDED110A 		vstr.32	s1, [sp, #68]	@ tmp352, D.7779
 2198 007e FFF7FEFF 		bl	subfromVec2		@
 2199              	.LVL128:
 288:src/b2d_lite.c **** 		b1->angularVelocity -= b1->invI * Crossvv(c->r1, Pn);
 2200              		.loc 1 288 3 is_stmt 1 view .LVU529
 2201              	@ src/b2d_lite.c:288: 		b1->angularVelocity -= b1->invI * Crossvv(c->r1, Pn);
 2202              		.loc 1 288 37 is_stmt 0 view .LVU530
 2203 0082 DDED031A 		vldr.32	s3, [sp, #12]	@, Pn
 2204 0086 9DED021A 		vldr.32	s2, [sp, #8]	@, Pn
 2205 008a D4ED050A 		vldr.32	s1, [r4, #20]	@, c_56->r1
 2206 008e 94ED040A 		vldr.32	s0, [r4, #16]	@, c_56->r1
 2207              	@ src/b2d_lite.c:288: 		b1->angularVelocity -= b1->invI * Crossvv(c->r1, Pn);
 2208              		.loc 1 288 28 view .LVU531
 2209 0092 95ED0F9A 		vldr.32	s18, [r5, #60]	@ _14, b1_54->invI
 2210              	@ src/b2d_lite.c:288: 		b1->angularVelocity -= b1->invI * Crossvv(c->r1, Pn);
 2211              		.loc 1 288 37 view .LVU532
 2212 0096 FFF7FEFF 		bl	Crossvv		@
 2213              	.LVL129:
 2214              	@ src/b2d_lite.c:288: 		b1->angularVelocity -= b1->invI * Crossvv(c->r1, Pn);
 2215              		.loc 1 288 23 view .LVU533
 2216 009a D5ED057A 		vldr.32	s15, [r5, #20]	@ b1_54->angularVelocity, b1_54->angularVelocity
 2217              	@ src/b2d_lite.c:290:         addtoVec2(&b2->velocity, scaledVec2(b2->invMass, Pn));
 289:src/b2d_lite.c **** 
 290:src/b2d_lite.c ****         addtoVec2(&b2->velocity, scaledVec2(b2->invMass, Pn));
 2218              		.loc 1 290 9 view .LVU534
 2219 009e DDED020A 		vldr.32	s1, [sp, #8]	@, Pn
 2220              	@ src/b2d_lite.c:288: 		b1->angularVelocity -= b1->invI * Crossvv(c->r1, Pn);
 288:src/b2d_lite.c **** 		b1->angularVelocity -= b1->invI * Crossvv(c->r1, Pn);
ARM GAS  /tmp/ccPfsSwR.s 			page 51


 2221              		.loc 1 288 23 view .LVU535
 2222 00a2 E9EE407A 		vfms.f32	s15, s18, s0	@ _17, _14, tmp353
 2223              	@ src/b2d_lite.c:290:         addtoVec2(&b2->velocity, scaledVec2(b2->invMass, Pn));
 2224              		.loc 1 290 9 view .LVU536
 2225 00a6 9DED031A 		vldr.32	s2, [sp, #12]	@, Pn
 2226 00aa 96ED0D0A 		vldr.32	s0, [r6, #52]	@, b2_55->invMass
 2227              	@ src/b2d_lite.c:288: 		b1->angularVelocity -= b1->invI * Crossvv(c->r1, Pn);
 288:src/b2d_lite.c **** 		b1->angularVelocity -= b1->invI * Crossvv(c->r1, Pn);
 2228              		.loc 1 288 23 view .LVU537
 2229 00ae C5ED057A 		vstr.32	s15, [r5, #20]	@ _17, b1_54->angularVelocity
 2230              		.loc 1 290 9 is_stmt 1 view .LVU538
 2231 00b2 FFF7FEFF 		bl	scaledVec2		@
 2232              	.LVL130:
 2233 00b6 5046     		mov	r0, r10	@, pretmp_127
 2234 00b8 8DED120A 		vstr.32	s0, [sp, #72]	@ tmp354, D.7781
 2235 00bc CDED130A 		vstr.32	s1, [sp, #76]	@ tmp355, D.7781
 2236 00c0 FFF7FEFF 		bl	addtoVec2		@
 2237              	.LVL131:
 291:src/b2d_lite.c **** 		b2->angularVelocity += b2->invI * Crossvv(c->r2, Pn);
 2238              		.loc 1 291 3 view .LVU539
 2239              	@ src/b2d_lite.c:291: 		b2->angularVelocity += b2->invI * Crossvv(c->r2, Pn);
 2240              		.loc 1 291 37 is_stmt 0 view .LVU540
 2241 00c4 DDED031A 		vldr.32	s3, [sp, #12]	@, Pn
 2242 00c8 9DED021A 		vldr.32	s2, [sp, #8]	@, Pn
 2243 00cc D4ED070A 		vldr.32	s1, [r4, #28]	@, c_56->r2
 2244 00d0 94ED060A 		vldr.32	s0, [r4, #24]	@, c_56->r2
 2245              	@ src/b2d_lite.c:291: 		b2->angularVelocity += b2->invI * Crossvv(c->r2, Pn);
 2246              		.loc 1 291 28 view .LVU541
 2247 00d4 96ED0F9A 		vldr.32	s18, [r6, #60]	@ _20, b2_55->invI
 2248              	@ src/b2d_lite.c:291: 		b2->angularVelocity += b2->invI * Crossvv(c->r2, Pn);
 2249              		.loc 1 291 37 view .LVU542
 2250 00d8 FFF7FEFF 		bl	Crossvv		@
 2251              	.LVL132:
 2252              	@ src/b2d_lite.c:291: 		b2->angularVelocity += b2->invI * Crossvv(c->r2, Pn);
 2253              		.loc 1 291 23 view .LVU543
 2254 00dc D6ED057A 		vldr.32	s15, [r6, #20]	@ b2_55->angularVelocity, b2_55->angularVelocity
 2255              	@ src/b2d_lite.c:294: 		dv = diffVec2(sumVec2(b2->velocity, Crosssv(b2->angularVelocity, c->r2)),
 292:src/b2d_lite.c **** 
 293:src/b2d_lite.c **** 		// Relative velocity at contact
 294:src/b2d_lite.c **** 		dv = diffVec2(sumVec2(b2->velocity, Crosssv(b2->angularVelocity, c->r2)),
 2256              		.loc 1 294 8 view .LVU544
 2257 00e0 D4ED060A 		vldr.32	s1, [r4, #24]	@, c_56->r2
 2258              	@ src/b2d_lite.c:291: 		b2->angularVelocity += b2->invI * Crossvv(c->r2, Pn);
 291:src/b2d_lite.c **** 		b2->angularVelocity += b2->invI * Crossvv(c->r2, Pn);
 2259              		.loc 1 291 23 view .LVU545
 2260 00e4 E9EE007A 		vfma.f32	s15, s18, s0	@ b2_55->angularVelocity, _20, tmp356
 2261              	@ src/b2d_lite.c:294: 		dv = diffVec2(sumVec2(b2->velocity, Crosssv(b2->angularVelocity, c->r2)),
 2262              		.loc 1 294 8 view .LVU546
 2263 00e8 94ED071A 		vldr.32	s2, [r4, #28]	@, c_56->r2
 2264              	@ src/b2d_lite.c:291: 		b2->angularVelocity += b2->invI * Crossvv(c->r2, Pn);
 291:src/b2d_lite.c **** 		b2->angularVelocity += b2->invI * Crossvv(c->r2, Pn);
 2265              		.loc 1 291 23 view .LVU547
 2266 00ec B0EE670A 		vmov.f32	s0, s15	@ _23, b2_55->angularVelocity
 2267 00f0 C6ED057A 		vstr.32	s15, [r6, #20]	@ _23, b2_55->angularVelocity
 2268              		.loc 1 294 3 is_stmt 1 view .LVU548
 2269              	@ src/b2d_lite.c:294: 		dv = diffVec2(sumVec2(b2->velocity, Crosssv(b2->angularVelocity, c->r2)),
 2270              		.loc 1 294 8 is_stmt 0 view .LVU549
ARM GAS  /tmp/ccPfsSwR.s 			page 52


 2271 00f4 FFF7FEFF 		bl	Crosssv		@
 2272              	.LVL133:
 2273 00f8 F0EE601A 		vmov.f32	s3, s1	@ tmp358,
 2274 00fc D6ED040A 		vldr.32	s1, [r6, #16]	@, b2_55->velocity
 2275 0100 B0EE401A 		vmov.f32	s2, s0	@ tmp357,
 2276 0104 96ED030A 		vldr.32	s0, [r6, #12]	@, b2_55->velocity
 2277 0108 CDED151A 		vstr.32	s3, [sp, #84]	@ tmp256, D.7783
 2278 010c 8DED141A 		vstr.32	s2, [sp, #80]	@ tmp255, D.7783
 2279 0110 FFF7FEFF 		bl	sumVec2		@
 2280              	.LVL134:
 2281 0114 B0EE407A 		vmov.f32	s14, s0	@ tmp359,
 2282 0118 95ED050A 		vldr.32	s0, [r5, #20]	@, b1_54->angularVelocity
 2283 011c F0EE607A 		vmov.f32	s15, s1	@ tmp360,
 2284 0120 D4ED040A 		vldr.32	s1, [r4, #16]	@, c_56->r1
 2285 0124 94ED051A 		vldr.32	s2, [r4, #20]	@, c_56->r1
 2286 0128 8DED167A 		vstr.32	s14, [sp, #88]	@ tmp359, D.7784
 2287 012c CDED177A 		vstr.32	s15, [sp, #92]	@ tmp360, D.7784
 2288 0130 FFF7FEFF 		bl	Crosssv		@
 2289              	.LVL135:
 2290 0134 F0EE601A 		vmov.f32	s3, s1	@ tmp362,
 2291 0138 D5ED040A 		vldr.32	s1, [r5, #16]	@, b1_54->velocity
 2292 013c B0EE401A 		vmov.f32	s2, s0	@ tmp266, tmp361
 2293 0140 95ED030A 		vldr.32	s0, [r5, #12]	@, b1_54->velocity
 2294 0144 CDED191A 		vstr.32	s3, [sp, #100]	@ tmp267, D.7785
 2295 0148 8DED181A 		vstr.32	s2, [sp, #96]	@ tmp266, D.7785
 2296 014c FFF7FEFF 		bl	sumVec2		@
 2297              	.LVL136:
 2298 0150 F0EE601A 		vmov.f32	s3, s1	@ tmp364,
 2299 0154 DDED170A 		vldr.32	s1, [sp, #92]	@, D.7784
 2300 0158 B0EE401A 		vmov.f32	s2, s0	@ tmp363,
 2301 015c 9DED160A 		vldr.32	s0, [sp, #88]	@, D.7784
 2302 0160 CDED1B1A 		vstr.32	s3, [sp, #108]	@ tmp273, D.7786
 2303 0164 8DED1A1A 		vstr.32	s2, [sp, #104]	@ tmp272, D.7786
 2304 0168 FFF7FEFF 		bl	diffVec2		@
 2305              	.LVL137:
 2306 016c F0EE607A 		vmov.f32	s15, s1	@ tmp366,
 2307              	@ src/b2d_lite.c:297: 		struct Vec2 tangent = Crossvs(c->normal, 1.0f);
 295:src/b2d_lite.c ****                       sumVec2(b1->velocity, Crosssv(b1->angularVelocity, c->r1)));
 296:src/b2d_lite.c **** 
 297:src/b2d_lite.c **** 		struct Vec2 tangent = Crossvs(c->normal, 1.0f);
 2308              		.loc 1 297 25 view .LVU550
 2309 0170 D4ED030A 		vldr.32	s1, [r4, #12]	@, c_56->normal
 2310              	@ src/b2d_lite.c:294: 		dv = diffVec2(sumVec2(b2->velocity, Crosssv(b2->angularVelocity, c->r2)),
 294:src/b2d_lite.c ****                       sumVec2(b1->velocity, Crosssv(b1->angularVelocity, c->r1)));
 2311              		.loc 1 294 8 view .LVU551
 2312 0174 B0EE407A 		vmov.f32	s14, s0	@ tmp365,
 2313              	@ src/b2d_lite.c:297: 		struct Vec2 tangent = Crossvs(c->normal, 1.0f);
 2314              		.loc 1 297 25 view .LVU552
 2315 0178 94ED020A 		vldr.32	s0, [r4, #8]	@, c_56->normal
 2316 017c B7EE001A 		vmov.f32	s2, #1.0e+0	@,
 2317              	@ src/b2d_lite.c:294: 		dv = diffVec2(sumVec2(b2->velocity, Crosssv(b2->angularVelocity, c->r2)),
 294:src/b2d_lite.c ****                       sumVec2(b1->velocity, Crosssv(b1->angularVelocity, c->r1)));
 2318              		.loc 1 294 8 view .LVU553
 2319 0180 CDED017A 		vstr.32	s15, [sp, #4]	@ tmp366, dv
 2320              		.loc 1 297 3 is_stmt 1 view .LVU554
 2321              	@ src/b2d_lite.c:294: 		dv = diffVec2(sumVec2(b2->velocity, Crosssv(b2->angularVelocity, c->r2)),
 294:src/b2d_lite.c ****                       sumVec2(b1->velocity, Crosssv(b1->angularVelocity, c->r1)));
ARM GAS  /tmp/ccPfsSwR.s 			page 53


 2322              		.loc 1 294 8 is_stmt 0 view .LVU555
 2323 0184 8DED007A 		vstr.32	s14, [sp]	@ tmp365, dv
 2324              	@ src/b2d_lite.c:297: 		struct Vec2 tangent = Crossvs(c->normal, 1.0f);
 2325              		.loc 1 297 25 view .LVU556
 2326 0188 FFF7FEFF 		bl	Crossvs		@
 2327              	.LVL138:
 2328 018c B0EE401A 		vmov.f32	s2, s0	@ tmp367,
 2329              	@ src/b2d_lite.c:298: 		float vt = Dot(dv, tangent);
 298:src/b2d_lite.c **** 		float vt = Dot(dv, tangent);
 2330              		.loc 1 298 14 view .LVU557
 2331 0190 9DED000A 		vldr.32	s0, [sp]	@, dv
 2332              	@ src/b2d_lite.c:297: 		struct Vec2 tangent = Crossvs(c->normal, 1.0f);
 297:src/b2d_lite.c **** 		float vt = Dot(dv, tangent);
 2333              		.loc 1 297 25 view .LVU558
 2334 0194 F0EE601A 		vmov.f32	s3, s1	@ tmp368,
 2335              	@ src/b2d_lite.c:298: 		float vt = Dot(dv, tangent);
 2336              		.loc 1 298 14 view .LVU559
 2337 0198 DDED010A 		vldr.32	s1, [sp, #4]	@, dv
 2338              	@ src/b2d_lite.c:297: 		struct Vec2 tangent = Crossvs(c->normal, 1.0f);
 297:src/b2d_lite.c **** 		float vt = Dot(dv, tangent);
 2339              		.loc 1 297 25 view .LVU560
 2340 019c 8DED041A 		vstr.32	s2, [sp, #16]	@ tmp282, tangent
 2341 01a0 CDED051A 		vstr.32	s3, [sp, #20]	@ tmp283, tangent
 2342              		.loc 1 298 3 is_stmt 1 view .LVU561
 2343              	@ src/b2d_lite.c:298: 		float vt = Dot(dv, tangent);
 2344              		.loc 1 298 14 is_stmt 0 view .LVU562
 2345 01a4 FFF7FEFF 		bl	Dot		@
 2346              	.LVL139:
 299:src/b2d_lite.c **** 		float dPt = c->massTangent * (-vt);
 2347              		.loc 1 299 3 is_stmt 1 view .LVU563
 2348              	@ src/b2d_lite.c:299: 		float dPt = c->massTangent * (-vt);
 2349              		.loc 1 299 9 is_stmt 0 view .LVU564
 2350 01a8 D4ED0D7A 		vldr.32	s15, [r4, #52]	@ MEM[base: c_56, offset: 52B], MEM[base: c_56, offset: 52B]
 2351              	@ src/b2d_lite.c:301: 		if (accumulateImpulses)
 300:src/b2d_lite.c **** 
 301:src/b2d_lite.c **** 		if (accumulateImpulses)
 2352              		.loc 1 301 6 view .LVU565
 2353 01ac D9F80030 		ldr	r3, [r9]	@ accumulateImpulses, accumulateImpulses
 2354              	@ src/b2d_lite.c:299: 		float dPt = c->massTangent * (-vt);
 299:src/b2d_lite.c **** 		float dPt = c->massTangent * (-vt);
 2355              		.loc 1 299 9 view .LVU566
 2356 01b0 20EE670A 		vnmul.f32	s0, s0, s15	@ dPt, tmp369, MEM[base: c_56, offset: 52B]
 2357              	.LVL140:
 2358              		.loc 1 301 3 is_stmt 1 view .LVU567
 2359              	.LBB103:
 2360              	@ src/b2d_lite.c:304: 			float maxPt = a->friction * c->Pn;
 302:src/b2d_lite.c **** 		{
 303:src/b2d_lite.c **** 			// Compute friction impulse
 304:src/b2d_lite.c **** 			float maxPt = a->friction * c->Pn;
 2361              		.loc 1 304 10 is_stmt 0 view .LVU568
 2362 01b4 98ED231A 		vldr.32	s2, [r8, #140]	@ a_53(D)->friction, a_53(D)->friction
 2363              	.LBE103:
 2364              	@ src/b2d_lite.c:301: 		if (accumulateImpulses)
 301:src/b2d_lite.c **** 		{
 2365              		.loc 1 301 6 view .LVU569
 2366 01b8 002B     		cmp	r3, #0	@ accumulateImpulses
 2367 01ba 00F0E380 		beq	.L100	@
ARM GAS  /tmp/ccPfsSwR.s 			page 54


 2368              	.LBB104:
 2369              		.loc 1 304 4 is_stmt 1 view .LVU570
 2370              	@ src/b2d_lite.c:304: 			float maxPt = a->friction * c->Pn;
 2371              		.loc 1 304 10 is_stmt 0 view .LVU571
 2372 01be D4ED097A 		vldr.32	s15, [r4, #36]	@ MEM[base: c_56, offset: 36B], MEM[base: c_56, offset: 36B]
 2373              	@ src/b2d_lite.c:307: 			float oldTangentImpulse = c->Pt;
 305:src/b2d_lite.c **** 
 306:src/b2d_lite.c **** 			// Clamp friction
 307:src/b2d_lite.c **** 			float oldTangentImpulse = c->Pt;
 2374              		.loc 1 307 10 view .LVU572
 2375 01c2 94ED0A8A 		vldr.32	s16, [r4, #40]	@ oldTangentImpulse, MEM[base: c_56, offset: 40B]
 2376              	.LVL141:
 2377              	@ src/b2d_lite.c:304: 			float maxPt = a->friction * c->Pn;
 304:src/b2d_lite.c **** 
 2378              		.loc 1 304 10 view .LVU573
 2379 01c6 21EE271A 		vmul.f32	s2, s2, s15	@ maxPt, a_53(D)->friction, MEM[base: c_56, offset: 36B]
 2380              	.LVL142:
 2381              		.loc 1 307 4 is_stmt 1 view .LVU574
 308:src/b2d_lite.c **** 			c->Pt = Clamp(oldTangentImpulse + dPt, -maxPt, maxPt);
 2382              		.loc 1 308 4 view .LVU575
 2383              	@ src/b2d_lite.c:308: 			c->Pt = Clamp(oldTangentImpulse + dPt, -maxPt, maxPt);
 2384              		.loc 1 308 12 is_stmt 0 view .LVU576
 2385 01ca 30EE080A 		vadd.f32	s0, s0, s16	@, dPt, oldTangentImpulse
 2386              	.LVL143:
 2387              		.loc 1 308 12 view .LVU577
 2388 01ce F1EE410A 		vneg.f32	s1, s2	@,
 2389 01d2 FFF7FEFF 		bl	Clamp		@
 2390              	.LVL144:
 2391              	@ src/b2d_lite.c:308: 			c->Pt = Clamp(oldTangentImpulse + dPt, -maxPt, maxPt);
 2392              		.loc 1 308 10 view .LVU578
 2393 01d6 84ED0A0A 		vstr.32	s0, [r4, #40]	@ _32, MEM[base: c_56, offset: 40B]
 309:src/b2d_lite.c **** 			dPt = c->Pt - oldTangentImpulse;
 2394              		.loc 1 309 4 is_stmt 1 view .LVU579
 2395              	@ src/b2d_lite.c:309: 			dPt = c->Pt - oldTangentImpulse;
 2396              		.loc 1 309 8 is_stmt 0 view .LVU580
 2397 01da 30EE480A 		vsub.f32	s0, s0, s16	@ dPt, _32, oldTangentImpulse
 2398              	.LVL145:
 2399              	.L101:
 2400              		.loc 1 309 8 view .LVU581
 2401              	.LBE104:
 310:src/b2d_lite.c **** 		}
 311:src/b2d_lite.c **** 		else
 312:src/b2d_lite.c **** 		{
 313:src/b2d_lite.c **** 			float maxPt = a->friction * dPn;
 314:src/b2d_lite.c **** 			dPt = Clamp(dPt, -maxPt, maxPt);
 315:src/b2d_lite.c **** 		}
 316:src/b2d_lite.c **** 
 317:src/b2d_lite.c **** 		// Apply contact impulse
 318:src/b2d_lite.c **** 		struct Vec2 Pt = scaledVec2(dPt, tangent);
 2402              		.loc 1 318 3 is_stmt 1 discriminator 2 view .LVU582
 2403              	@ src/b2d_lite.c:318: 		struct Vec2 Pt = scaledVec2(dPt, tangent);
 2404              		.loc 1 318 20 is_stmt 0 discriminator 2 view .LVU583
 2405 01de DDED040A 		vldr.32	s1, [sp, #16]	@, tangent
 2406              	.LBE101:
 2407              	@ src/b2d_lite.c:257: 	for (int i = 0; i < a->numContacts; ++i)
 257:src/b2d_lite.c **** 	{
 2408              		.loc 1 257 38 discriminator 2 view .LVU584
ARM GAS  /tmp/ccPfsSwR.s 			page 55


 2409 01e2 0137     		adds	r7, r7, #1	@ i, i,
 2410              	.LVL146:
 2411              	.LBB106:
 2412              	@ src/b2d_lite.c:318: 		struct Vec2 Pt = scaledVec2(dPt, tangent);
 2413              		.loc 1 318 20 discriminator 2 view .LVU585
 2414 01e4 9DED051A 		vldr.32	s2, [sp, #20]	@, tangent
 2415 01e8 4034     		adds	r4, r4, #64	@ ivtmp.143, ivtmp.143,
 2416              	.LVL147:
 2417              		.loc 1 318 20 discriminator 2 view .LVU586
 2418 01ea FFF7FEFF 		bl	scaledVec2		@
 2419              	.LVL148:
 2420              		.loc 1 318 20 discriminator 2 view .LVU587
 2421 01ee F0EE407A 		vmov.f32	s15, s0	@ tmp372,
 2422 01f2 B0EE601A 		vmov.f32	s2, s1	@ tmp301, tmp373
 2423              	@ src/b2d_lite.c:320: 		subfromVec2(&b1->velocity, scaledVec2(b1->invMass, Pt));
 319:src/b2d_lite.c **** 
 320:src/b2d_lite.c **** 		subfromVec2(&b1->velocity, scaledVec2(b1->invMass, Pt));
 2424              		.loc 1 320 3 discriminator 2 view .LVU588
 2425 01f6 95ED0D0A 		vldr.32	s0, [r5, #52]	@, b1_54->invMass
 2426 01fa F0EE670A 		vmov.f32	s1, s15	@, tmp300
 2427              	@ src/b2d_lite.c:318: 		struct Vec2 Pt = scaledVec2(dPt, tangent);
 318:src/b2d_lite.c **** 
 2428              		.loc 1 318 20 discriminator 2 view .LVU589
 2429 01fe CDED067A 		vstr.32	s15, [sp, #24]	@ tmp300, Pt
 2430 0202 8DED071A 		vstr.32	s2, [sp, #28]	@ tmp301, Pt
 2431              		.loc 1 320 3 is_stmt 1 discriminator 2 view .LVU590
 2432 0206 FFF7FEFF 		bl	scaledVec2		@
 2433              	.LVL149:
 2434 020a 5846     		mov	r0, fp	@, pretmp_125
 2435 020c 8DED1C0A 		vstr.32	s0, [sp, #112]	@ tmp374, D.7790
 2436 0210 CDED1D0A 		vstr.32	s1, [sp, #116]	@ tmp375, D.7790
 2437 0214 FFF7FEFF 		bl	subfromVec2		@
 2438              	.LVL150:
 321:src/b2d_lite.c **** 		b1->angularVelocity -= b1->invI * Crossvv(c->r1, Pt);
 2439              		.loc 1 321 3 discriminator 2 view .LVU591
 2440              	@ src/b2d_lite.c:321: 		b1->angularVelocity -= b1->invI * Crossvv(c->r1, Pt);
 2441              		.loc 1 321 37 is_stmt 0 discriminator 2 view .LVU592
 2442 0218 DDED071A 		vldr.32	s3, [sp, #28]	@, Pt
 2443 021c 54ED0B0A 		vldr.32	s1, [r4, #-44]	@, c_56->r1
 2444 0220 9DED061A 		vldr.32	s2, [sp, #24]	@, Pt
 2445 0224 14ED0C0A 		vldr.32	s0, [r4, #-48]	@, c_56->r1
 2446              	@ src/b2d_lite.c:321: 		b1->angularVelocity -= b1->invI * Crossvv(c->r1, Pt);
 2447              		.loc 1 321 28 discriminator 2 view .LVU593
 2448 0228 95ED0F8A 		vldr.32	s16, [r5, #60]	@ _36, b1_54->invI
 2449              	@ src/b2d_lite.c:321: 		b1->angularVelocity -= b1->invI * Crossvv(c->r1, Pt);
 2450              		.loc 1 321 37 discriminator 2 view .LVU594
 2451 022c FFF7FEFF 		bl	Crossvv		@
 2452              	.LVL151:
 2453              	@ src/b2d_lite.c:321: 		b1->angularVelocity -= b1->invI * Crossvv(c->r1, Pt);
 2454              		.loc 1 321 23 discriminator 2 view .LVU595
 2455 0230 D5ED057A 		vldr.32	s15, [r5, #20]	@ b1_54->angularVelocity, b1_54->angularVelocity
 2456              	@ src/b2d_lite.c:323: 		addtoVec2(&b2->velocity, scaledVec2(b2->invMass, Pt));
 322:src/b2d_lite.c **** 
 323:src/b2d_lite.c **** 		addtoVec2(&b2->velocity, scaledVec2(b2->invMass, Pt));
 2457              		.loc 1 323 3 discriminator 2 view .LVU596
 2458 0234 DDED060A 		vldr.32	s1, [sp, #24]	@, Pt
 2459              	@ src/b2d_lite.c:321: 		b1->angularVelocity -= b1->invI * Crossvv(c->r1, Pt);
ARM GAS  /tmp/ccPfsSwR.s 			page 56


 321:src/b2d_lite.c **** 		b1->angularVelocity -= b1->invI * Crossvv(c->r1, Pt);
 2460              		.loc 1 321 23 discriminator 2 view .LVU597
 2461 0238 E8EE407A 		vfms.f32	s15, s16, s0	@ _39, _36, tmp376
 2462              	@ src/b2d_lite.c:323: 		addtoVec2(&b2->velocity, scaledVec2(b2->invMass, Pt));
 2463              		.loc 1 323 3 discriminator 2 view .LVU598
 2464 023c 9DED071A 		vldr.32	s2, [sp, #28]	@, Pt
 2465 0240 96ED0D0A 		vldr.32	s0, [r6, #52]	@, b2_55->invMass
 2466              	@ src/b2d_lite.c:321: 		b1->angularVelocity -= b1->invI * Crossvv(c->r1, Pt);
 321:src/b2d_lite.c **** 		b1->angularVelocity -= b1->invI * Crossvv(c->r1, Pt);
 2467              		.loc 1 321 23 discriminator 2 view .LVU599
 2468 0244 C5ED057A 		vstr.32	s15, [r5, #20]	@ _39, b1_54->angularVelocity
 2469              		.loc 1 323 3 is_stmt 1 discriminator 2 view .LVU600
 2470 0248 FFF7FEFF 		bl	scaledVec2		@
 2471              	.LVL152:
 2472 024c 5046     		mov	r0, r10	@, pretmp_127
 2473 024e 8DED1E0A 		vstr.32	s0, [sp, #120]	@ tmp377, D.7792
 2474 0252 CDED1F0A 		vstr.32	s1, [sp, #124]	@ tmp378, D.7792
 2475 0256 FFF7FEFF 		bl	addtoVec2		@
 2476              	.LVL153:
 324:src/b2d_lite.c **** 		b2->angularVelocity += b2->invI * Crossvv(c->r2, Pt);
 2477              		.loc 1 324 3 discriminator 2 view .LVU601
 2478              	@ src/b2d_lite.c:324: 		b2->angularVelocity += b2->invI * Crossvv(c->r2, Pt);
 2479              		.loc 1 324 37 is_stmt 0 discriminator 2 view .LVU602
 2480 025a 14ED0A0A 		vldr.32	s0, [r4, #-40]	@, c_56->r2
 2481 025e 54ED090A 		vldr.32	s1, [r4, #-36]	@, c_56->r2
 2482 0262 9DED061A 		vldr.32	s2, [sp, #24]	@, Pt
 2483 0266 DDED071A 		vldr.32	s3, [sp, #28]	@, Pt
 2484              	@ src/b2d_lite.c:324: 		b2->angularVelocity += b2->invI * Crossvv(c->r2, Pt);
 2485              		.loc 1 324 28 discriminator 2 view .LVU603
 2486 026a 96ED0F8A 		vldr.32	s16, [r6, #60]	@ _41, b2_55->invI
 2487              	@ src/b2d_lite.c:324: 		b2->angularVelocity += b2->invI * Crossvv(c->r2, Pt);
 2488              		.loc 1 324 37 discriminator 2 view .LVU604
 2489 026e FFF7FEFF 		bl	Crossvv		@
 2490              	.LVL154:
 2491              	@ src/b2d_lite.c:324: 		b2->angularVelocity += b2->invI * Crossvv(c->r2, Pt);
 2492              		.loc 1 324 23 discriminator 2 view .LVU605
 2493 0272 D6ED057A 		vldr.32	s15, [r6, #20]	@ b2_55->angularVelocity, b2_55->angularVelocity
 2494              	.LBE106:
 2495              	@ src/b2d_lite.c:257: 	for (int i = 0; i < a->numContacts; ++i)
 257:src/b2d_lite.c **** 	{
 2496              		.loc 1 257 2 discriminator 2 view .LVU606
 2497 0276 D8F88030 		ldr	r3, [r8, #128]	@ a_53(D)->numContacts, a_53(D)->numContacts
 2498              	.LBB107:
 2499              	@ src/b2d_lite.c:324: 		b2->angularVelocity += b2->invI * Crossvv(c->r2, Pt);
 2500              		.loc 1 324 23 discriminator 2 view .LVU607
 2501 027a E8EE007A 		vfma.f32	s15, s16, s0	@ _44, _41, tmp379
 2502              	.LBE107:
 2503              	@ src/b2d_lite.c:257: 	for (int i = 0; i < a->numContacts; ++i)
 257:src/b2d_lite.c **** 	{
 2504              		.loc 1 257 2 discriminator 2 view .LVU608
 2505 027e BB42     		cmp	r3, r7	@ a_53(D)->numContacts, i
 2506              	.LBB108:
 2507              	@ src/b2d_lite.c:324: 		b2->angularVelocity += b2->invI * Crossvv(c->r2, Pt);
 2508              		.loc 1 324 23 discriminator 2 view .LVU609
 2509 0280 C6ED057A 		vstr.32	s15, [r6, #20]	@ _44, b2_55->angularVelocity
 2510              	.LBE108:
 257:src/b2d_lite.c **** 	{
ARM GAS  /tmp/ccPfsSwR.s 			page 57


 2511              		.loc 1 257 38 is_stmt 1 discriminator 2 view .LVU610
 2512              	.LVL155:
 257:src/b2d_lite.c **** 	{
 2513              		.loc 1 257 18 discriminator 2 view .LVU611
 2514              	@ src/b2d_lite.c:257: 	for (int i = 0; i < a->numContacts; ++i)
 257:src/b2d_lite.c **** 	{
 2515              		.loc 1 257 2 is_stmt 0 discriminator 2 view .LVU612
 2516 0284 40F38580 		ble	.L96		@,
 2517              	.LVL156:
 2518              	.L102:
 2519              	.LBB109:
 259:src/b2d_lite.c **** 		c->r1 = diffVec2(c->position, b1->position);
 2520              		.loc 1 259 3 is_stmt 1 view .LVU613
 260:src/b2d_lite.c **** 		c->r2 = diffVec2(c->position, b2->position);
 2521              		.loc 1 260 3 view .LVU614
 2522              	@ src/b2d_lite.c:260: 		c->r1 = diffVec2(c->position, b1->position);
 260:src/b2d_lite.c **** 		c->r2 = diffVec2(c->position, b2->position);
 2523              		.loc 1 260 11 is_stmt 0 view .LVU615
 2524 0288 94ED000A 		vldr.32	s0, [r4]	@, c_56->position
 2525 028c D4ED010A 		vldr.32	s1, [r4, #4]	@, c_56->position
 2526 0290 95ED001A 		vldr.32	s2, [r5]	@, b1_54->position
 2527 0294 D5ED011A 		vldr.32	s3, [r5, #4]	@, b1_54->position
 2528 0298 FFF7FEFF 		bl	diffVec2		@
 2529              	.LVL157:
 2530              	@ src/b2d_lite.c:261: 		c->r2 = diffVec2(c->position, b2->position);
 261:src/b2d_lite.c **** 
 2531              		.loc 1 261 11 view .LVU616
 2532 029c 96ED001A 		vldr.32	s2, [r6]	@, b2_55->position
 2533              	@ src/b2d_lite.c:260: 		c->r1 = diffVec2(c->position, b1->position);
 260:src/b2d_lite.c **** 		c->r2 = diffVec2(c->position, b2->position);
 2534              		.loc 1 260 11 view .LVU617
 2535 02a0 84ED040A 		vstr.32	s0, [r4, #16]	@ tmp332, c_56->r1
 2536              	@ src/b2d_lite.c:261: 		c->r2 = diffVec2(c->position, b2->position);
 261:src/b2d_lite.c **** 
 2537              		.loc 1 261 11 view .LVU618
 2538 02a4 94ED000A 		vldr.32	s0, [r4]	@, c_56->position
 2539 02a8 D6ED011A 		vldr.32	s3, [r6, #4]	@, b2_55->position
 2540              	@ src/b2d_lite.c:260: 		c->r1 = diffVec2(c->position, b1->position);
 260:src/b2d_lite.c **** 		c->r2 = diffVec2(c->position, b2->position);
 2541              		.loc 1 260 11 view .LVU619
 2542 02ac C4ED050A 		vstr.32	s1, [r4, #20]	@ tmp333, c_56->r1
 261:src/b2d_lite.c **** 
 2543              		.loc 1 261 3 is_stmt 1 view .LVU620
 2544              	@ src/b2d_lite.c:261: 		c->r2 = diffVec2(c->position, b2->position);
 261:src/b2d_lite.c **** 
 2545              		.loc 1 261 11 is_stmt 0 view .LVU621
 2546 02b0 D4ED010A 		vldr.32	s1, [r4, #4]	@, c_56->position
 2547 02b4 FFF7FEFF 		bl	diffVec2		@
 2548              	.LVL158:
 2549 02b8 F0EE407A 		vmov.f32	s15, s0	@ tmp334,
 2550 02bc B0EE601A 		vmov.f32	s2, s1	@ tmp183, tmp335
 2551              	@ src/b2d_lite.c:264: 		struct Vec2 dv = diffVec2(sumVec2(b2->velocity, Crosssv(b2->angularVelocity
 264:src/b2d_lite.c ****                                   sumVec2(b1->velocity, Crosssv(b1->angularVelocity, c->r1)));
 2552              		.loc 1 264 20 view .LVU622
 2553 02c0 96ED050A 		vldr.32	s0, [r6, #20]	@, b2_55->angularVelocity
 2554 02c4 F0EE670A 		vmov.f32	s1, s15	@, tmp182
 2555              	@ src/b2d_lite.c:261: 		c->r2 = diffVec2(c->position, b2->position);
ARM GAS  /tmp/ccPfsSwR.s 			page 58


 261:src/b2d_lite.c **** 
 2556              		.loc 1 261 11 view .LVU623
 2557 02c8 C4ED067A 		vstr.32	s15, [r4, #24]	@ tmp182, c_56->r2
 2558 02cc 84ED071A 		vstr.32	s2, [r4, #28]	@ tmp183, c_56->r2
 264:src/b2d_lite.c ****                                   sumVec2(b1->velocity, Crosssv(b1->angularVelocity, c->r1)));
 2559              		.loc 1 264 3 is_stmt 1 view .LVU624
 2560              	@ src/b2d_lite.c:264: 		struct Vec2 dv = diffVec2(sumVec2(b2->velocity, Crosssv(b2->angularVelocity
 264:src/b2d_lite.c ****                                   sumVec2(b1->velocity, Crosssv(b1->angularVelocity, c->r1)));
 2561              		.loc 1 264 20 is_stmt 0 view .LVU625
 2562 02d0 FFF7FEFF 		bl	Crosssv		@
 2563              	.LVL159:
 2564 02d4 B0EE401A 		vmov.f32	s2, s0	@ tmp336,
 2565 02d8 F0EE601A 		vmov.f32	s3, s1	@ tmp337,
 2566 02dc 96ED030A 		vldr.32	s0, [r6, #12]	@, b2_55->velocity
 2567 02e0 D6ED040A 		vldr.32	s1, [r6, #16]	@, b2_55->velocity
 2568 02e4 8DED081A 		vstr.32	s2, [sp, #32]	@ tmp187, D.7772
 2569 02e8 CDED091A 		vstr.32	s3, [sp, #36]	@ tmp188, D.7772
 2570 02ec FFF7FEFF 		bl	sumVec2		@
 2571              	.LVL160:
 2572 02f0 B0EE407A 		vmov.f32	s14, s0	@ tmp338,
 2573 02f4 95ED050A 		vldr.32	s0, [r5, #20]	@, b1_54->angularVelocity
 2574 02f8 F0EE607A 		vmov.f32	s15, s1	@ tmp339,
 2575 02fc D4ED040A 		vldr.32	s1, [r4, #16]	@, c_56->r1
 2576 0300 94ED051A 		vldr.32	s2, [r4, #20]	@, c_56->r1
 2577 0304 8DED0A7A 		vstr.32	s14, [sp, #40]	@ tmp338, D.7773
 2578 0308 CDED0B7A 		vstr.32	s15, [sp, #44]	@ tmp339, D.7773
 2579 030c FFF7FEFF 		bl	Crosssv		@
 2580              	.LVL161:
 2581 0310 F0EE601A 		vmov.f32	s3, s1	@ tmp341,
 2582 0314 D5ED040A 		vldr.32	s1, [r5, #16]	@, b1_54->velocity
 2583 0318 B0EE401A 		vmov.f32	s2, s0	@ tmp198, tmp340
 2584 031c 95ED030A 		vldr.32	s0, [r5, #12]	@, b1_54->velocity
 2585 0320 CDED0D1A 		vstr.32	s3, [sp, #52]	@ tmp199, D.7774
 2586 0324 8DED0C1A 		vstr.32	s2, [sp, #48]	@ tmp198, D.7774
 2587 0328 FFF7FEFF 		bl	sumVec2		@
 2588              	.LVL162:
 2589 032c B0EE401A 		vmov.f32	s2, s0	@ tmp342,
 2590 0330 9DED0A0A 		vldr.32	s0, [sp, #40]	@, D.7773
 2591 0334 F0EE601A 		vmov.f32	s3, s1	@ tmp343,
 2592 0338 DDED0B0A 		vldr.32	s1, [sp, #44]	@, D.7773
 2593 033c 8DED0E1A 		vstr.32	s2, [sp, #56]	@ tmp204, D.7775
 2594 0340 CDED0F1A 		vstr.32	s3, [sp, #60]	@ tmp205, D.7775
 2595 0344 FFF7FEFF 		bl	diffVec2		@
 2596              	.LVL163:
 2597              	@ src/b2d_lite.c:268: 		float vn = Dot(dv, c->normal);
 268:src/b2d_lite.c **** 
 2598              		.loc 1 268 14 view .LVU626
 2599 0348 94ED021A 		vldr.32	s2, [r4, #8]	@, c_56->normal
 2600 034c D4ED031A 		vldr.32	s3, [r4, #12]	@, c_56->normal
 2601              	@ src/b2d_lite.c:264: 		struct Vec2 dv = diffVec2(sumVec2(b2->velocity, Crosssv(b2->angularVelocity
 264:src/b2d_lite.c ****                                   sumVec2(b1->velocity, Crosssv(b1->angularVelocity, c->r1)));
 2602              		.loc 1 264 20 view .LVU627
 2603 0350 8DED000A 		vstr.32	s0, [sp]	@ tmp344, dv
 2604 0354 CDED010A 		vstr.32	s1, [sp, #4]	@ tmp345, dv
 268:src/b2d_lite.c **** 
 2605              		.loc 1 268 3 is_stmt 1 view .LVU628
 2606              	@ src/b2d_lite.c:268: 		float vn = Dot(dv, c->normal);
ARM GAS  /tmp/ccPfsSwR.s 			page 59


 268:src/b2d_lite.c **** 
 2607              		.loc 1 268 14 is_stmt 0 view .LVU629
 2608 0358 FFF7FEFF 		bl	Dot		@
 2609              	.LVL164:
 270:src/b2d_lite.c **** 
 2610              		.loc 1 270 3 is_stmt 1 view .LVU630
 2611              	@ src/b2d_lite.c:270: 		float dPn = c->massNormal * (-vn + c->bias);
 270:src/b2d_lite.c **** 
 2612              		.loc 1 270 36 is_stmt 0 view .LVU631
 2613 035c D4ED0E7A 		vldr.32	s15, [r4, #56]	@ MEM[base: c_56, offset: 56B], MEM[base: c_56, offset: 56B]
 2614              	@ src/b2d_lite.c:270: 		float dPn = c->massNormal * (-vn + c->bias);
 270:src/b2d_lite.c **** 
 2615              		.loc 1 270 9 view .LVU632
 2616 0360 94ED0C7A 		vldr.32	s14, [r4, #48]	@ MEM[base: c_56, offset: 48B], MEM[base: c_56, offset: 48B]
 2617              	@ src/b2d_lite.c:270: 		float dPn = c->massNormal * (-vn + c->bias);
 270:src/b2d_lite.c **** 
 2618              		.loc 1 270 36 view .LVU633
 2619 0364 37EEC00A 		vsub.f32	s0, s15, s0	@ tmp216, MEM[base: c_56, offset: 56B], tmp346
 2620              	.LVL165:
 2621              	@ src/b2d_lite.c:272: 		if (accumulateImpulses)
 272:src/b2d_lite.c **** 		{
 2622              		.loc 1 272 6 view .LVU634
 2623 0368 D9F80030 		ldr	r3, [r9]	@ accumulateImpulses, accumulateImpulses
 2624              	@ src/b2d_lite.c:270: 		float dPn = c->massNormal * (-vn + c->bias);
 270:src/b2d_lite.c **** 
 2625              		.loc 1 270 9 view .LVU635
 2626 036c 20EE070A 		vmul.f32	s0, s0, s14	@ dPn, tmp216, MEM[base: c_56, offset: 48B]
 2627              	.LVL166:
 272:src/b2d_lite.c **** 		{
 2628              		.loc 1 272 3 is_stmt 1 view .LVU636
 2629              	@ src/b2d_lite.c:272: 		if (accumulateImpulses)
 272:src/b2d_lite.c **** 		{
 2630              		.loc 1 272 6 is_stmt 0 view .LVU637
 2631 0370 002B     		cmp	r3, #0	@ accumulateImpulses
 2632 0372 7FF45DAE 		bne	.L106	@
 281:src/b2d_lite.c **** 		}
 2633              		.loc 1 281 4 is_stmt 1 view .LVU638
 2634              	@ src/b2d_lite.c:281: 			dPn = Max(dPn, 0.0f);
 281:src/b2d_lite.c **** 		}
 2635              		.loc 1 281 10 is_stmt 0 view .LVU639
 2636 0376 F0EE680A 		vmov.f32	s1, s17	@, tmp329
 2637 037a FFF7FEFF 		bl	Max		@
 2638              	.LVL167:
 281:src/b2d_lite.c **** 		}
 2639              		.loc 1 281 10 view .LVU640
 2640 037e B0EE408A 		vmov.f32	s16, s0	@ dPn, tmp348
 2641              	.LVL168:
 281:src/b2d_lite.c **** 		}
 2642              		.loc 1 281 10 view .LVU641
 2643 0382 61E6     		b	.L99		@
 2644              	.LVL169:
 2645              	.L100:
 2646              	.LBB105:
 313:src/b2d_lite.c **** 			dPt = Clamp(dPt, -maxPt, maxPt);
 2647              		.loc 1 313 4 is_stmt 1 view .LVU642
 2648              	@ src/b2d_lite.c:313: 			float maxPt = a->friction * dPn;
 313:src/b2d_lite.c **** 			dPt = Clamp(dPt, -maxPt, maxPt);
ARM GAS  /tmp/ccPfsSwR.s 			page 60


 2649              		.loc 1 313 10 is_stmt 0 view .LVU643
 2650 0384 28EE011A 		vmul.f32	s2, s16, s2	@ maxPt, dPn, a_53(D)->friction
 2651              	.LVL170:
 314:src/b2d_lite.c **** 		}
 2652              		.loc 1 314 4 is_stmt 1 view .LVU644
 2653              	@ src/b2d_lite.c:314: 			dPt = Clamp(dPt, -maxPt, maxPt);
 314:src/b2d_lite.c **** 		}
 2654              		.loc 1 314 10 is_stmt 0 view .LVU645
 2655 0388 F1EE410A 		vneg.f32	s1, s2	@,
 2656 038c FFF7FEFF 		bl	Clamp		@
 2657              	.LVL171:
 314:src/b2d_lite.c **** 		}
 2658              		.loc 1 314 10 view .LVU646
 2659 0390 25E7     		b	.L101		@
 2660              	.LVL172:
 2661              	.L96:
 314:src/b2d_lite.c **** 		}
 2662              		.loc 1 314 10 view .LVU647
 2663              	.LBE105:
 2664              	.LBE109:
 2665              	.LBE110:
 2666              	@ src/b2d_lite.c:326: }
 325:src/b2d_lite.c **** 	}
 326:src/b2d_lite.c **** }
 2667              		.loc 1 326 1 view .LVU648
 2668 0392 21B0     		add	sp, sp, #132	@,,
 2669              	.LCFI36:
 2670              		.cfi_def_cfa_offset 52
 2671              		@ sp needed	@
 2672 0394 BDEC048B 		vldm	sp!, {d8-d9}	@,
 2673              	.LCFI37:
 2674              		.cfi_restore 82
 2675              		.cfi_restore 83
 2676              		.cfi_restore 80
 2677              		.cfi_restore 81
 2678              		.cfi_def_cfa_offset 36
 2679 0398 BDE8F08F 		pop	{r4, r5, r6, r7, r8, r9, r10, fp, pc}	@
 2680              	.LVL173:
 2681              	.L108:
 2682              		.loc 1 326 1 view .LVU649
 2683              		.align	2
 2684              	.L107:
 2685 039c 00000000 		.word	0
 2686 03a0 00000000 		.word	.LANCHOR2
 2687              		.cfi_endproc
 2688              	.LFE10:
 2689              		.size	ApplyImpulse, .-ApplyImpulse
 2690              		.section	.text.Step,"ax",%progbits
 2691              		.align	1
 2692              		.p2align 4,,15
 2693              		.global	Step
 2694              		.syntax unified
 2695              		.thumb
 2696              		.thumb_func
 2697              		.fpu fpv5-sp-d16
 2698              		.type	Step, %function
 2699              	Step:
ARM GAS  /tmp/ccPfsSwR.s 			page 61


 2700              	.LVL174:
 2701              	.LFB11:
 327:src/b2d_lite.c **** 
 328:src/b2d_lite.c **** void Step(float dt)
 329:src/b2d_lite.c **** {
 2702              		.loc 1 329 1 is_stmt 1 view -0
 2703              		.cfi_startproc
 2704              		@ args = 0, pretend = 0, frame = 32
 2705              		@ frame_needed = 0, uses_anonymous_args = 0
 330:src/b2d_lite.c **** 	float inv_dt = dt > 0.0f ? 1.0f / dt : 0.0f;
 2706              		.loc 1 330 2 view .LVU651
 2707              	@ src/b2d_lite.c:330: 	float inv_dt = dt > 0.0f ? 1.0f / dt : 0.0f;
 2708              		.loc 1 330 39 is_stmt 0 view .LVU652
 2709 0000 B5EEC00A 		vcmpe.f32	s0, #0	@ dt
 2710              	@ src/b2d_lite.c:329: {
 329:src/b2d_lite.c **** 	float inv_dt = dt > 0.0f ? 1.0f / dt : 0.0f;
 2711              		.loc 1 329 1 view .LVU653
 2712 0004 2DE9F043 		push	{r4, r5, r6, r7, r8, r9, lr}	@
 2713              	.LCFI38:
 2714              		.cfi_def_cfa_offset 28
 2715              		.cfi_offset 4, -28
 2716              		.cfi_offset 5, -24
 2717              		.cfi_offset 6, -20
 2718              		.cfi_offset 7, -16
 2719              		.cfi_offset 8, -12
 2720              		.cfi_offset 9, -8
 2721              		.cfi_offset 14, -4
 2722              	@ src/b2d_lite.c:330: 	float inv_dt = dt > 0.0f ? 1.0f / dt : 0.0f;
 2723              		.loc 1 330 39 view .LVU654
 2724 0008 F1EE10FA 		vmrs	APSR_nzcv, FPSCR
 2725              	@ src/b2d_lite.c:329: {
 329:src/b2d_lite.c **** 	float inv_dt = dt > 0.0f ? 1.0f / dt : 0.0f;
 2726              		.loc 1 329 1 view .LVU655
 2727 000c 2DED028B 		vpush.64	{d8}	@
 2728              	.LCFI39:
 2729              		.cfi_def_cfa_offset 36
 2730              		.cfi_offset 80, -36
 2731              		.cfi_offset 81, -32
 2732 0010 B0EE408A 		vmov.f32	s16, s0	@ dt, tmp208
 2733 0014 89B0     		sub	sp, sp, #36	@,,
 2734              	.LCFI40:
 2735              		.cfi_def_cfa_offset 72
 2736              	@ src/b2d_lite.c:330: 	float inv_dt = dt > 0.0f ? 1.0f / dt : 0.0f;
 2737              		.loc 1 330 39 view .LVU656
 2738 0016 40F3A880 		ble	.L131		@,
 2739              	@ src/b2d_lite.c:330: 	float inv_dt = dt > 0.0f ? 1.0f / dt : 0.0f;
 2740              		.loc 1 330 39 discriminator 1 view .LVU657
 2741 001a F7EE007A 		vmov.f32	s15, #1.0e+0	@ tmp149,
 2742 001e C7EE808A 		vdiv.f32	s17, s15, s0	@ iftmp.23_26, tmp149, dt
 2743              	.L110:
 2744              	.LVL175:
 331:src/b2d_lite.c **** 
 332:src/b2d_lite.c **** 	// Determine overlapping bodies and update contact points.
 333:src/b2d_lite.c **** 	BroadPhase();
 2745              		.loc 1 333 2 is_stmt 1 discriminator 4 view .LVU658
 2746              	.LBB111:
 2747              	@ src/b2d_lite.c:336: 	for (int i = 0; i < g_numBodies; ++i)
ARM GAS  /tmp/ccPfsSwR.s 			page 62


 334:src/b2d_lite.c **** 
 335:src/b2d_lite.c **** 	// Integrate forces.
 336:src/b2d_lite.c **** 	for (int i = 0; i < g_numBodies; ++i)
 2748              		.loc 1 336 20 is_stmt 0 discriminator 4 view .LVU659
 2749 0022 534F     		ldr	r7, .L133	@ tmp206,
 2750              	.LBE111:
 2751              	@ src/b2d_lite.c:333: 	BroadPhase();
 333:src/b2d_lite.c **** 
 2752              		.loc 1 333 2 discriminator 4 view .LVU660
 2753 0024 FFF7FEFF 		bl	BroadPhase		@
 2754              	.LVL176:
 2755              		.loc 1 336 2 is_stmt 1 discriminator 4 view .LVU661
 2756              	.LBB114:
 2757              		.loc 1 336 7 discriminator 4 view .LVU662
 2758              		.loc 1 336 18 discriminator 4 view .LVU663
 2759              	@ src/b2d_lite.c:336: 	for (int i = 0; i < g_numBodies; ++i)
 2760              		.loc 1 336 2 is_stmt 0 discriminator 4 view .LVU664
 2761 0028 3B68     		ldr	r3, [r7]	@ g_numBodies, g_numBodies
 2762 002a 002B     		cmp	r3, #0	@ g_numBodies,
 2763 002c 46DD     		ble	.L112		@,
 2764 002e 514E     		ldr	r6, .L133+4	@ ivtmp.170,
 2765              	@ src/b2d_lite.c:336: 	for (int i = 0; i < g_numBodies; ++i)
 2766              		.loc 1 336 11 view .LVU665
 2767 0030 0025     		movs	r5, #0	@ i,
 2768              	.LBB112:
 2769              	@ src/b2d_lite.c:343: 		addtoVec2(&b->velocity, scaledVec2(dt, sumVec2(gravity, scaledVec2(b->invMa
 337:src/b2d_lite.c **** 	{
 338:src/b2d_lite.c **** 		struct Body* b = g_bodies[i];
 339:src/b2d_lite.c **** 
 340:src/b2d_lite.c **** 		if (b->invMass == 0.0f)
 341:src/b2d_lite.c **** 			continue;
 342:src/b2d_lite.c **** 
 343:src/b2d_lite.c **** 		addtoVec2(&b->velocity, scaledVec2(dt, sumVec2(gravity, scaledVec2(b->invMass, b->force))));
 2770              		.loc 1 343 3 view .LVU666
 2771 0032 DFF85081 		ldr	r8, .L133+20	@ tmp207,
 2772              	.LVL177:
 2773              	.L114:
 338:src/b2d_lite.c **** 
 2774              		.loc 1 338 3 is_stmt 1 view .LVU667
 2775              		.loc 1 343 3 view .LVU668
 2776              	@ src/b2d_lite.c:338: 		struct Body* b = g_bodies[i];
 338:src/b2d_lite.c **** 
 2777              		.loc 1 338 16 is_stmt 0 view .LVU669
 2778 0036 56F8044B 		ldr	r4, [r6], #4	@ b, MEM[base: _89, offset: 0B]
 2779              	.LVL178:
 340:src/b2d_lite.c **** 			continue;
 2780              		.loc 1 340 3 is_stmt 1 view .LVU670
 2781              	.LBE112:
 2782              	@ src/b2d_lite.c:336: 	for (int i = 0; i < g_numBodies; ++i)
 336:src/b2d_lite.c **** 	{
 2783              		.loc 1 336 35 is_stmt 0 view .LVU671
 2784 003a 0135     		adds	r5, r5, #1	@ i, i,
 2785              	.LVL179:
 2786              	.LBB113:
 2787              	@ src/b2d_lite.c:340: 		if (b->invMass == 0.0f)
 340:src/b2d_lite.c **** 			continue;
 2788              		.loc 1 340 8 view .LVU672
ARM GAS  /tmp/ccPfsSwR.s 			page 63


 2789 003c 94ED0D0A 		vldr.32	s0, [r4, #52]	@ _1, b_50->invMass
 2790              	@ src/b2d_lite.c:340: 		if (b->invMass == 0.0f)
 340:src/b2d_lite.c **** 			continue;
 2791              		.loc 1 340 6 view .LVU673
 2792 0040 B5EE400A 		vcmp.f32	s0, #0	@ _1
 2793 0044 F1EE10FA 		vmrs	APSR_nzcv, FPSCR
 2794 0048 35D0     		beq	.L113		@,
 2795              	@ src/b2d_lite.c:343: 		addtoVec2(&b->velocity, scaledVec2(dt, sumVec2(gravity, scaledVec2(b->invMa
 2796              		.loc 1 343 3 view .LVU674
 2797 004a D4ED060A 		vldr.32	s1, [r4, #24]	@, b_50->force
 2798 004e 94ED071A 		vldr.32	s2, [r4, #28]	@, b_50->force
 2799 0052 FFF7FEFF 		bl	scaledVec2		@
 2800              	.LVL180:
 2801 0056 F0EE601A 		vmov.f32	s3, s1	@ tmp210,
 2802 005a B0EE401A 		vmov.f32	s2, s0	@ tmp155, tmp209
 2803 005e 98ED000A 		vldr.32	s0, [r8]	@, gravity
 2804 0062 D8ED010A 		vldr.32	s1, [r8, #4]	@, gravity
 2805 0066 CDED011A 		vstr.32	s3, [sp, #4]	@ tmp156, D.7800
 2806 006a 8DED001A 		vstr.32	s2, [sp]	@ tmp155, D.7800
 2807 006e FFF7FEFF 		bl	sumVec2		@
 2808              	.LVL181:
 2809 0072 F0EE407A 		vmov.f32	s15, s0	@ tmp211,
 2810 0076 B0EE601A 		vmov.f32	s2, s1	@ tmp163, tmp212
 2811 007a B0EE480A 		vmov.f32	s0, s16	@, dt
 2812 007e F0EE670A 		vmov.f32	s1, s15	@, tmp162
 2813 0082 CDED027A 		vstr.32	s15, [sp, #8]	@ tmp162, D.7801
 2814 0086 8DED031A 		vstr.32	s2, [sp, #12]	@ tmp163, D.7801
 2815 008a FFF7FEFF 		bl	scaledVec2		@
 2816              	.LVL182:
 2817 008e 04F10C00 		add	r0, r4, #12	@, b,
 2818 0092 8DED040A 		vstr.32	s0, [sp, #16]	@ tmp213, D.7802
 2819 0096 CDED050A 		vstr.32	s1, [sp, #20]	@ tmp214, D.7802
 2820 009a FFF7FEFF 		bl	addtoVec2		@
 2821              	.LVL183:
 344:src/b2d_lite.c **** 		b->angularVelocity += dt * b->invI * b->torque;
 2822              		.loc 1 344 3 is_stmt 1 view .LVU675
 2823              	@ src/b2d_lite.c:344: 		b->angularVelocity += dt * b->invI * b->torque;
 2824              		.loc 1 344 28 is_stmt 0 view .LVU676
 2825 009e 94ED0F7A 		vldr.32	s14, [r4, #60]	@ b_50->invI, b_50->invI
 2826              	@ src/b2d_lite.c:344: 		b->angularVelocity += dt * b->invI * b->torque;
 2827              		.loc 1 344 22 view .LVU677
 2828 00a2 D4ED057A 		vldr.32	s15, [r4, #20]	@ b_50->angularVelocity, b_50->angularVelocity
 2829              	@ src/b2d_lite.c:344: 		b->angularVelocity += dt * b->invI * b->torque;
 2830              		.loc 1 344 28 view .LVU678
 2831 00a6 28EE077A 		vmul.f32	s14, s16, s14	@ tmp171, dt, b_50->invI
 2832              	@ src/b2d_lite.c:344: 		b->angularVelocity += dt * b->invI * b->torque;
 2833              		.loc 1 344 22 view .LVU679
 2834 00aa D4ED086A 		vldr.32	s13, [r4, #32]	@ b_50->torque, b_50->torque
 2835 00ae E7EE267A 		vfma.f32	s15, s14, s13	@ _8, tmp171, b_50->torque
 2836 00b2 C4ED057A 		vstr.32	s15, [r4, #20]	@ _8, b_50->angularVelocity
 2837              	.L113:
 2838              		.loc 1 344 22 view .LVU680
 2839              	.LBE113:
 336:src/b2d_lite.c **** 	{
 2840              		.loc 1 336 35 is_stmt 1 discriminator 2 view .LVU681
 2841              	.LVL184:
 336:src/b2d_lite.c **** 	{
ARM GAS  /tmp/ccPfsSwR.s 			page 64


 2842              		.loc 1 336 18 discriminator 2 view .LVU682
 2843              	@ src/b2d_lite.c:336: 	for (int i = 0; i < g_numBodies; ++i)
 336:src/b2d_lite.c **** 	{
 2844              		.loc 1 336 2 is_stmt 0 discriminator 2 view .LVU683
 2845 00b6 3B68     		ldr	r3, [r7]	@ g_numBodies, g_numBodies
 2846 00b8 AB42     		cmp	r3, r5	@ g_numBodies, i
 2847 00ba BCDC     		bgt	.L114		@,
 2848              	.LVL185:
 2849              	.L112:
 336:src/b2d_lite.c **** 	{
 2850              		.loc 1 336 2 discriminator 2 view .LVU684
 2851              	.LBE114:
 2852              	.LBB115:
 345:src/b2d_lite.c **** 	}
 346:src/b2d_lite.c **** 
 347:src/b2d_lite.c **** 	// Perform pre-steps.
 348:src/b2d_lite.c ****     
 349:src/b2d_lite.c ****     for (int i=0; i < g_numArbiters; i++)
 2853              		.loc 1 349 19 is_stmt 1 view .LVU685
 2854              	@ src/b2d_lite.c:349:     for (int i=0; i < g_numArbiters; i++)
 2855              		.loc 1 349 21 is_stmt 0 view .LVU686
 2856 00bc 2E4E     		ldr	r6, .L133+8	@ tmp205,
 2857              	@ src/b2d_lite.c:349:     for (int i=0; i < g_numArbiters; i++)
 2858              		.loc 1 349 5 view .LVU687
 2859 00be 3368     		ldr	r3, [r6]	@ g_numArbiters, g_numArbiters
 2860 00c0 002B     		cmp	r3, #0	@ g_numArbiters,
 2861 00c2 0BDD     		ble	.L115		@,
 2862 00c4 2D4D     		ldr	r5, .L133+12	@ ivtmp.165,
 2863              	@ src/b2d_lite.c:349:     for (int i=0; i < g_numArbiters; i++)
 2864              		.loc 1 349 14 view .LVU688
 2865 00c6 0024     		movs	r4, #0	@ i,
 2866              	.LVL186:
 2867              	.L116:
 350:src/b2d_lite.c ****     {
 351:src/b2d_lite.c ****         PreStep(&g_arbiters[i], inv_dt);
 2868              		.loc 1 351 9 is_stmt 1 discriminator 3 view .LVU689
 2869 00c8 2846     		mov	r0, r5	@, ivtmp.165
 2870 00ca B0EE680A 		vmov.f32	s0, s17	@, iftmp.23_26
 2871 00ce FFF7FEFF 		bl	PreStep		@
 2872              	.LVL187:
 349:src/b2d_lite.c ****     {
 2873              		.loc 1 349 38 discriminator 3 view .LVU690
 2874              	@ src/b2d_lite.c:349:     for (int i=0; i < g_numArbiters; i++)
 349:src/b2d_lite.c ****     {
 2875              		.loc 1 349 39 is_stmt 0 discriminator 3 view .LVU691
 2876 00d2 0134     		adds	r4, r4, #1	@ i, i,
 2877              	.LVL188:
 349:src/b2d_lite.c ****     {
 2878              		.loc 1 349 19 is_stmt 1 discriminator 3 view .LVU692
 2879              	@ src/b2d_lite.c:349:     for (int i=0; i < g_numArbiters; i++)
 349:src/b2d_lite.c ****     {
 2880              		.loc 1 349 5 is_stmt 0 discriminator 3 view .LVU693
 2881 00d4 3368     		ldr	r3, [r6]	@ g_numArbiters, g_numArbiters
 2882 00d6 9035     		adds	r5, r5, #144	@ ivtmp.165, ivtmp.165,
 2883 00d8 A342     		cmp	r3, r4	@ g_numArbiters, i
 2884 00da F5DC     		bgt	.L116		@,
 2885              	.LVL189:
ARM GAS  /tmp/ccPfsSwR.s 			page 65


 2886              	.L115:
 349:src/b2d_lite.c ****     {
 2887              		.loc 1 349 5 discriminator 3 view .LVU694
 2888              	.LBE115:
 2889              	.LBB116:
 352:src/b2d_lite.c ****     }
 353:src/b2d_lite.c **** 
 354:src/b2d_lite.c **** 	// Perform iterations
 355:src/b2d_lite.c **** 	for (int it = 0; it < iterations; ++it)
 2890              		.loc 1 355 19 is_stmt 1 view .LVU695
 2891              	@ src/b2d_lite.c:355: 	for (int it = 0; it < iterations; ++it)
 2892              		.loc 1 355 22 is_stmt 0 view .LVU696
 2893 00dc DFF8A890 		ldr	r9, .L133+24	@ tmp204,
 2894              	@ src/b2d_lite.c:355: 	for (int it = 0; it < iterations; ++it)
 2895              		.loc 1 355 2 view .LVU697
 2896 00e0 D9F80030 		ldr	r3, [r9]	@ iterations, iterations
 2897 00e4 002B     		cmp	r3, #0	@ iterations,
 2898 00e6 14DD     		ble	.L118		@,
 2899              	@ src/b2d_lite.c:355: 	for (int it = 0; it < iterations; ++it)
 2900              		.loc 1 355 11 view .LVU698
 2901 00e8 4FF00008 		mov	r8, #0	@ it,
 2902              	.LVL190:
 2903              	.L117:
 2904              	.LBB117:
 356:src/b2d_lite.c **** 	{
 357:src/b2d_lite.c ****         for (int i=0; i < g_numArbiters; i++)
 2905              		.loc 1 357 23 is_stmt 1 view .LVU699
 2906              	@ src/b2d_lite.c:357:         for (int i=0; i < g_numArbiters; i++)
 2907              		.loc 1 357 9 is_stmt 0 view .LVU700
 2908 00ec 3368     		ldr	r3, [r6]	@ g_numArbiters, g_numArbiters
 2909 00ee 002B     		cmp	r3, #0	@ g_numArbiters,
 2910 00f0 09DD     		ble	.L121		@,
 2911 00f2 224D     		ldr	r5, .L133+12	@ ivtmp.160,
 2912              	@ src/b2d_lite.c:357:         for (int i=0; i < g_numArbiters; i++)
 2913              		.loc 1 357 18 view .LVU701
 2914 00f4 0024     		movs	r4, #0	@ i,
 2915              	.LVL191:
 2916              	.L119:
 358:src/b2d_lite.c ****             ApplyImpulse(&g_arbiters[i]);
 2917              		.loc 1 358 13 is_stmt 1 discriminator 3 view .LVU702
 2918 00f6 2846     		mov	r0, r5	@, ivtmp.160
 2919              	@ src/b2d_lite.c:357:         for (int i=0; i < g_numArbiters; i++)
 357:src/b2d_lite.c ****             ApplyImpulse(&g_arbiters[i]);
 2920              		.loc 1 357 43 is_stmt 0 discriminator 3 view .LVU703
 2921 00f8 0134     		adds	r4, r4, #1	@ i, i,
 2922              	.LVL192:
 2923              	@ src/b2d_lite.c:358:             ApplyImpulse(&g_arbiters[i]);
 2924              		.loc 1 358 13 discriminator 3 view .LVU704
 2925 00fa FFF7FEFF 		bl	ApplyImpulse		@
 2926              	.LVL193:
 357:src/b2d_lite.c ****             ApplyImpulse(&g_arbiters[i]);
 2927              		.loc 1 357 42 is_stmt 1 discriminator 3 view .LVU705
 357:src/b2d_lite.c ****             ApplyImpulse(&g_arbiters[i]);
 2928              		.loc 1 357 23 discriminator 3 view .LVU706
 2929              	@ src/b2d_lite.c:357:         for (int i=0; i < g_numArbiters; i++)
 357:src/b2d_lite.c ****             ApplyImpulse(&g_arbiters[i]);
 2930              		.loc 1 357 9 is_stmt 0 discriminator 3 view .LVU707
ARM GAS  /tmp/ccPfsSwR.s 			page 66


 2931 00fe 3368     		ldr	r3, [r6]	@ g_numArbiters, g_numArbiters
 2932 0100 9035     		adds	r5, r5, #144	@ ivtmp.160, ivtmp.160,
 2933 0102 A342     		cmp	r3, r4	@ g_numArbiters, i
 2934 0104 F7DC     		bgt	.L119		@,
 2935              	.LVL194:
 2936              	.L121:
 357:src/b2d_lite.c ****             ApplyImpulse(&g_arbiters[i]);
 2937              		.loc 1 357 9 discriminator 3 view .LVU708
 2938              	.LBE117:
 355:src/b2d_lite.c **** 	{
 2939              		.loc 1 355 36 is_stmt 1 view .LVU709
 2940 0106 08F10108 		add	r8, r8, #1	@ it, it,
 2941              	.LVL195:
 355:src/b2d_lite.c **** 	{
 2942              		.loc 1 355 19 view .LVU710
 2943              	@ src/b2d_lite.c:355: 	for (int it = 0; it < iterations; ++it)
 355:src/b2d_lite.c **** 	{
 2944              		.loc 1 355 2 is_stmt 0 view .LVU711
 2945 010a D9F80030 		ldr	r3, [r9]	@ iterations, iterations
 2946 010e 4345     		cmp	r3, r8	@ iterations, it
 2947 0110 ECDC     		bgt	.L117		@,
 2948              	.LVL196:
 2949              	.L118:
 355:src/b2d_lite.c **** 	{
 2950              		.loc 1 355 2 view .LVU712
 2951              	.LBE116:
 2952              	.LBB118:
 359:src/b2d_lite.c **** 	}
 360:src/b2d_lite.c **** 
 361:src/b2d_lite.c **** 	// Integrate Velocities
 362:src/b2d_lite.c **** 	for (int i = 0; i < g_numBodies; ++i)
 2953              		.loc 1 362 18 is_stmt 1 view .LVU713
 2954              	@ src/b2d_lite.c:362: 	for (int i = 0; i < g_numBodies; ++i)
 2955              		.loc 1 362 2 is_stmt 0 view .LVU714
 2956 0112 3B68     		ldr	r3, [r7]	@ g_numBodies, g_numBodies
 2957 0114 002B     		cmp	r3, #0	@ g_numBodies,
 2958 0116 23DD     		ble	.L109		@,
 2959 0118 DFF85880 		ldr	r8, .L133+4	@ ivtmp.157,
 2960              	@ src/b2d_lite.c:362: 	for (int i = 0; i < g_numBodies; ++i)
 2961              		.loc 1 362 11 view .LVU715
 2962 011c 0026     		movs	r6, #0	@ i,
 2963              	.LBB119:
 2964              	@ src/b2d_lite.c:369: 		b->force.x=0;
 363:src/b2d_lite.c **** 	{
 364:src/b2d_lite.c **** 		struct Body* b = g_bodies[i];
 365:src/b2d_lite.c **** 
 366:src/b2d_lite.c **** 		addtoVec2(&b->position, scaledVec2(dt, b->velocity));
 367:src/b2d_lite.c **** 		b->rotation += dt * b->angularVelocity;
 368:src/b2d_lite.c **** 
 369:src/b2d_lite.c **** 		b->force.x=0;
 2965              		.loc 1 369 13 view .LVU716
 2966 011e 0025     		movs	r5, #0	@ tmp199,
 2967              	.LVL197:
 2968              	.L123:
 364:src/b2d_lite.c **** 
 2969              		.loc 1 364 3 is_stmt 1 discriminator 3 view .LVU717
 2970              	@ src/b2d_lite.c:364: 		struct Body* b = g_bodies[i];
ARM GAS  /tmp/ccPfsSwR.s 			page 67


 364:src/b2d_lite.c **** 
 2971              		.loc 1 364 16 is_stmt 0 discriminator 3 view .LVU718
 2972 0120 58F8044B 		ldr	r4, [r8], #4	@ b, MEM[base: _86, offset: 0B]
 2973              	.LVL198:
 366:src/b2d_lite.c **** 		b->rotation += dt * b->angularVelocity;
 2974              		.loc 1 366 3 is_stmt 1 discriminator 3 view .LVU719
 2975 0124 B0EE480A 		vmov.f32	s0, s16	@, dt
 2976              	.LBE119:
 2977              	@ src/b2d_lite.c:362: 	for (int i = 0; i < g_numBodies; ++i)
 362:src/b2d_lite.c **** 	{
 2978              		.loc 1 362 35 is_stmt 0 discriminator 3 view .LVU720
 2979 0128 0136     		adds	r6, r6, #1	@ i, i,
 2980              	.LVL199:
 2981              	.LBB120:
 2982              	@ src/b2d_lite.c:366: 		addtoVec2(&b->position, scaledVec2(dt, b->velocity));
 366:src/b2d_lite.c **** 		b->rotation += dt * b->angularVelocity;
 2983              		.loc 1 366 3 discriminator 3 view .LVU721
 2984 012a D4ED030A 		vldr.32	s1, [r4, #12]	@, b_37->velocity
 2985 012e 94ED041A 		vldr.32	s2, [r4, #16]	@, b_37->velocity
 2986 0132 FFF7FEFF 		bl	scaledVec2		@
 2987              	.LVL200:
 2988 0136 2046     		mov	r0, r4	@, b
 2989 0138 8DED060A 		vstr.32	s0, [sp, #24]	@ tmp215, D.7803
 2990 013c CDED070A 		vstr.32	s1, [sp, #28]	@ tmp216, D.7803
 2991 0140 FFF7FEFF 		bl	addtoVec2		@
 2992              	.LVL201:
 367:src/b2d_lite.c **** 
 2993              		.loc 1 367 3 is_stmt 1 discriminator 3 view .LVU722
 2994              	@ src/b2d_lite.c:367: 		b->rotation += dt * b->angularVelocity;
 367:src/b2d_lite.c **** 
 2995              		.loc 1 367 15 is_stmt 0 discriminator 3 view .LVU723
 2996 0144 D4ED027A 		vldr.32	s15, [r4, #8]	@ b_37->rotation, b_37->rotation
 2997 0148 94ED057A 		vldr.32	s14, [r4, #20]	@ b_37->angularVelocity, b_37->angularVelocity
 2998              	.LBE120:
 2999              	@ src/b2d_lite.c:362: 	for (int i = 0; i < g_numBodies; ++i)
 362:src/b2d_lite.c **** 	{
 3000              		.loc 1 362 2 discriminator 3 view .LVU724
 3001 014c 3B68     		ldr	r3, [r7]	@ g_numBodies, g_numBodies
 3002              	.LBB121:
 3003              	@ src/b2d_lite.c:367: 		b->rotation += dt * b->angularVelocity;
 367:src/b2d_lite.c **** 
 3004              		.loc 1 367 15 discriminator 3 view .LVU725
 3005 014e E7EE087A 		vfma.f32	s15, s14, s16	@ _19, b_37->angularVelocity, dt
 3006              	@ src/b2d_lite.c:369: 		b->force.x=0;
 3007              		.loc 1 369 13 discriminator 3 view .LVU726
 3008 0152 A561     		str	r5, [r4, #24]	@ float	@ tmp199, b_37->force.x
 3009              	.LBE121:
 3010              	@ src/b2d_lite.c:362: 	for (int i = 0; i < g_numBodies; ++i)
 362:src/b2d_lite.c **** 	{
 3011              		.loc 1 362 2 discriminator 3 view .LVU727
 3012 0154 B342     		cmp	r3, r6	@ g_numBodies, i
 3013              	.LBB122:
 3014              	@ src/b2d_lite.c:370: 		b->force.y=0;
 370:src/b2d_lite.c **** 		b->force.y=0;
 3015              		.loc 1 370 13 discriminator 3 view .LVU728
 3016 0156 E561     		str	r5, [r4, #28]	@ float	@ tmp199, b_37->force.y
 3017              	@ src/b2d_lite.c:371: 		b->torque = 0.0f;
ARM GAS  /tmp/ccPfsSwR.s 			page 68


 371:src/b2d_lite.c **** 		b->torque = 0.0f;
 3018              		.loc 1 371 13 discriminator 3 view .LVU729
 3019 0158 2562     		str	r5, [r4, #32]	@ float	@ tmp199, b_37->torque
 3020              	@ src/b2d_lite.c:367: 		b->rotation += dt * b->angularVelocity;
 367:src/b2d_lite.c **** 
 3021              		.loc 1 367 15 discriminator 3 view .LVU730
 3022 015a C4ED027A 		vstr.32	s15, [r4, #8]	@ _19, b_37->rotation
 369:src/b2d_lite.c **** 		b->force.y=0;
 3023              		.loc 1 369 3 is_stmt 1 discriminator 3 view .LVU731
 370:src/b2d_lite.c **** 		b->force.y=0;
 3024              		.loc 1 370 3 discriminator 3 view .LVU732
 3025              		.loc 1 371 3 discriminator 3 view .LVU733
 3026              	.LBE122:
 362:src/b2d_lite.c **** 	{
 3027              		.loc 1 362 35 discriminator 3 view .LVU734
 3028              	.LVL202:
 362:src/b2d_lite.c **** 	{
 3029              		.loc 1 362 18 discriminator 3 view .LVU735
 3030              	@ src/b2d_lite.c:362: 	for (int i = 0; i < g_numBodies; ++i)
 362:src/b2d_lite.c **** 	{
 3031              		.loc 1 362 2 is_stmt 0 discriminator 3 view .LVU736
 3032 015e DFDC     		bgt	.L123		@,
 3033              	.LVL203:
 3034              	.L109:
 362:src/b2d_lite.c **** 	{
 3035              		.loc 1 362 2 discriminator 3 view .LVU737
 3036              	.LBE118:
 3037              	@ src/b2d_lite.c:373: }
 372:src/b2d_lite.c **** 	}
 373:src/b2d_lite.c **** }
 3038              		.loc 1 373 1 view .LVU738
 3039 0160 09B0     		add	sp, sp, #36	@,,
 3040              	.LCFI41:
 3041              		.cfi_remember_state
 3042              		.cfi_def_cfa_offset 36
 3043              		@ sp needed	@
 3044 0162 BDEC028B 		vldm	sp!, {d8}	@
 3045              	.LCFI42:
 3046              		.cfi_restore 80
 3047              		.cfi_restore 81
 3048              		.cfi_def_cfa_offset 28
 3049              	.LVL204:
 3050              		.loc 1 373 1 view .LVU739
 3051 0166 BDE8F083 		pop	{r4, r5, r6, r7, r8, r9, pc}	@
 3052              	.LVL205:
 3053              	.L131:
 3054              	.LCFI43:
 3055              		.cfi_restore_state
 3056              	@ src/b2d_lite.c:330: 	float inv_dt = dt > 0.0f ? 1.0f / dt : 0.0f;
 330:src/b2d_lite.c **** 
 3057              		.loc 1 330 39 view .LVU740
 3058 016a DFED058A 		vldr.32	s17, .L133+16	@ iftmp.23_26,
 3059 016e 58E7     		b	.L110		@
 3060              	.L134:
 3061              		.align	2
 3062              	.L133:
 3063 0170 00000000 		.word	g_numBodies
ARM GAS  /tmp/ccPfsSwR.s 			page 69


 3064 0174 00000000 		.word	g_bodies
 3065 0178 00000000 		.word	g_numArbiters
 3066 017c 00000000 		.word	g_arbiters
 3067 0180 00000000 		.word	0
 3068 0184 00000000 		.word	gravity
 3069 0188 00000000 		.word	iterations
 3070              		.cfi_endproc
 3071              	.LFE11:
 3072              		.size	Step, .-Step
 3073              		.section	.text.initBody,"ax",%progbits
 3074              		.align	1
 3075              		.p2align 4,,15
 3076              		.global	initBody
 3077              		.syntax unified
 3078              		.thumb
 3079              		.thumb_func
 3080              		.fpu fpv5-sp-d16
 3081              		.type	initBody, %function
 3082              	initBody:
 3083              	.LVL206:
 3084              	.LFB12:
 374:src/b2d_lite.c **** 
 375:src/b2d_lite.c **** void initBody(struct Body* b, struct Vec2 w, float m)
 376:src/b2d_lite.c **** {
 3085              		.loc 1 376 1 is_stmt 1 view -0
 3086              		.cfi_startproc
 3087              		@ args = 0, pretend = 0, frame = 8
 3088              		@ frame_needed = 0, uses_anonymous_args = 0
 3089              		@ link register save eliminated.
 377:src/b2d_lite.c ****         
 378:src/b2d_lite.c ****     b->position.x=0;
 3090              		.loc 1 378 5 view .LVU742
 3091              	@ src/b2d_lite.c:392: 	if (b->mass < FLT_MAX)
 379:src/b2d_lite.c ****     b->position.y=0;
 380:src/b2d_lite.c ****     b->rotation=0;
 381:src/b2d_lite.c ****     b->velocity.x=0;
 382:src/b2d_lite.c ****     b->velocity.y=0;
 383:src/b2d_lite.c ****     b->angularVelocity=0;
 384:src/b2d_lite.c ****     b->force.x=0;
 385:src/b2d_lite.c ****     b->force.y=0;
 386:src/b2d_lite.c ****     b->torque=0.0f;
 387:src/b2d_lite.c ****     b->friction=0.2f;
 388:src/b2d_lite.c **** 
 389:src/b2d_lite.c ****     b->width = w;
 390:src/b2d_lite.c ****     b->mass = m;
 391:src/b2d_lite.c **** 
 392:src/b2d_lite.c **** 	if (b->mass < FLT_MAX)
 3092              		.loc 1 392 5 is_stmt 0 view .LVU743
 3093 0000 DFED247A 		vldr.32	s15, .L142	@ tmp134,
 3094              	@ src/b2d_lite.c:378:     b->position.x=0;
 378:src/b2d_lite.c ****     b->position.y=0;
 3095              		.loc 1 378 18 view .LVU744
 3096 0004 0022     		movs	r2, #0	@ tmp122,
 3097              	@ src/b2d_lite.c:387:     b->friction=0.2f;
 387:src/b2d_lite.c **** 
 3098              		.loc 1 387 16 view .LVU745
 3099 0006 2449     		ldr	r1, .L142+4	@ tmp131,
ARM GAS  /tmp/ccPfsSwR.s 			page 70


 3100              	@ src/b2d_lite.c:376: {
 376:src/b2d_lite.c ****         
 3101              		.loc 1 376 1 view .LVU746
 3102 0008 0346     		mov	r3, r0	@ b, tmp145
 3103              	@ src/b2d_lite.c:392: 	if (b->mass < FLT_MAX)
 3104              		.loc 1 392 5 view .LVU747
 3105 000a B4EEE71A 		vcmpe.f32	s2, s15	@ m, tmp134
 3106              	@ src/b2d_lite.c:376: {
 376:src/b2d_lite.c ****         
 3107              		.loc 1 376 1 view .LVU748
 3108 000e 10B4     		push	{r4}	@
 3109              	.LCFI44:
 3110              		.cfi_def_cfa_offset 4
 3111              		.cfi_offset 4, -4
 3112 0010 83B0     		sub	sp, sp, #12	@,,
 3113              	.LCFI45:
 3114              		.cfi_def_cfa_offset 16
 3115              	@ src/b2d_lite.c:387:     b->friction=0.2f;
 387:src/b2d_lite.c **** 
 3116              		.loc 1 387 16 view .LVU749
 3117 0012 C162     		str	r1, [r0, #44]	@ float	@ tmp131, b_12(D)->friction
 3118              	@ src/b2d_lite.c:392: 	if (b->mass < FLT_MAX)
 3119              		.loc 1 392 5 view .LVU750
 3120 0014 F1EE10FA 		vmrs	APSR_nzcv, FPSCR
 3121              	@ src/b2d_lite.c:378:     b->position.x=0;
 378:src/b2d_lite.c ****     b->position.y=0;
 3122              		.loc 1 378 18 view .LVU751
 3123 0018 0260     		str	r2, [r0]	@ float	@ tmp122, b_12(D)->position.x
 379:src/b2d_lite.c ****     b->rotation=0;
 3124              		.loc 1 379 5 is_stmt 1 view .LVU752
 3125              	@ src/b2d_lite.c:389:     b->width = w;
 389:src/b2d_lite.c ****     b->mass = m;
 3126              		.loc 1 389 14 is_stmt 0 view .LVU753
 3127 001a 02A9     		add	r1, sp, #8	@ tmp149,,
 3128              	@ src/b2d_lite.c:379:     b->position.y=0;
 379:src/b2d_lite.c ****     b->rotation=0;
 3129              		.loc 1 379 18 view .LVU754
 3130 001c 4260     		str	r2, [r0, #4]	@ float	@ tmp122, b_12(D)->position.y
 380:src/b2d_lite.c ****     b->velocity.x=0;
 3131              		.loc 1 380 5 is_stmt 1 view .LVU755
 3132              	@ src/b2d_lite.c:380:     b->rotation=0;
 380:src/b2d_lite.c ****     b->velocity.x=0;
 3133              		.loc 1 380 16 is_stmt 0 view .LVU756
 3134 001e 8260     		str	r2, [r0, #8]	@ float	@ tmp122, b_12(D)->rotation
 381:src/b2d_lite.c ****     b->velocity.y=0;
 3135              		.loc 1 381 5 is_stmt 1 view .LVU757
 3136              	@ src/b2d_lite.c:389:     b->width = w;
 389:src/b2d_lite.c ****     b->mass = m;
 3137              		.loc 1 389 14 is_stmt 0 view .LVU758
 3138 0020 00F12404 		add	r4, r0, #36	@ tmp132, b,
 3139              	@ src/b2d_lite.c:381:     b->velocity.x=0;
 381:src/b2d_lite.c ****     b->velocity.y=0;
 3140              		.loc 1 381 18 view .LVU759
 3141 0024 C260     		str	r2, [r0, #12]	@ float	@ tmp122, b_12(D)->velocity.x
 382:src/b2d_lite.c ****     b->angularVelocity=0;
 3142              		.loc 1 382 5 is_stmt 1 view .LVU760
 3143              	@ src/b2d_lite.c:382:     b->velocity.y=0;
ARM GAS  /tmp/ccPfsSwR.s 			page 71


 382:src/b2d_lite.c ****     b->angularVelocity=0;
 3144              		.loc 1 382 18 is_stmt 0 view .LVU761
 3145 0026 0261     		str	r2, [r0, #16]	@ float	@ tmp122, b_12(D)->velocity.y
 383:src/b2d_lite.c ****     b->force.x=0;
 3146              		.loc 1 383 5 is_stmt 1 view .LVU762
 3147              	@ src/b2d_lite.c:383:     b->angularVelocity=0;
 383:src/b2d_lite.c ****     b->force.x=0;
 3148              		.loc 1 383 23 is_stmt 0 view .LVU763
 3149 0028 4261     		str	r2, [r0, #20]	@ float	@ tmp122, b_12(D)->angularVelocity
 384:src/b2d_lite.c ****     b->force.y=0;
 3150              		.loc 1 384 5 is_stmt 1 view .LVU764
 3151              	@ src/b2d_lite.c:384:     b->force.x=0;
 384:src/b2d_lite.c ****     b->force.y=0;
 3152              		.loc 1 384 15 is_stmt 0 view .LVU765
 3153 002a 8261     		str	r2, [r0, #24]	@ float	@ tmp122, b_12(D)->force.x
 385:src/b2d_lite.c ****     b->torque=0.0f;
 3154              		.loc 1 385 5 is_stmt 1 view .LVU766
 3155              	@ src/b2d_lite.c:385:     b->force.y=0;
 385:src/b2d_lite.c ****     b->torque=0.0f;
 3156              		.loc 1 385 15 is_stmt 0 view .LVU767
 3157 002c C261     		str	r2, [r0, #28]	@ float	@ tmp122, b_12(D)->force.y
 386:src/b2d_lite.c ****     b->friction=0.2f;
 3158              		.loc 1 386 5 is_stmt 1 view .LVU768
 3159              	@ src/b2d_lite.c:386:     b->torque=0.0f;
 386:src/b2d_lite.c ****     b->friction=0.2f;
 3160              		.loc 1 386 14 is_stmt 0 view .LVU769
 3161 002e 0262     		str	r2, [r0, #32]	@ float	@ tmp122, b_12(D)->torque
 387:src/b2d_lite.c **** 
 3162              		.loc 1 387 5 is_stmt 1 view .LVU770
 389:src/b2d_lite.c ****     b->mass = m;
 3163              		.loc 1 389 5 view .LVU771
 3164              	@ src/b2d_lite.c:376: {
 376:src/b2d_lite.c ****         
 3165              		.loc 1 376 1 is_stmt 0 view .LVU772
 3166 0030 8DED000A 		vstr.32	s0, [sp]	@ tmp146, w
 3167 0034 CDED010A 		vstr.32	s1, [sp, #4]	@ tmp147, w
 3168              	@ src/b2d_lite.c:389:     b->width = w;
 389:src/b2d_lite.c ****     b->mass = m;
 3169              		.loc 1 389 14 view .LVU773
 3170 0038 11E90300 		ldmdb	r1, {r0, r1}	@ tmp149,,
 3171              	.LVL207:
 389:src/b2d_lite.c ****     b->mass = m;
 3172              		.loc 1 389 14 view .LVU774
 3173 003c 84E80300 		stm	r4, {r0, r1}	@ tmp132,,
 390:src/b2d_lite.c **** 
 3174              		.loc 1 390 5 is_stmt 1 view .LVU775
 3175              	@ src/b2d_lite.c:390:     b->mass = m;
 390:src/b2d_lite.c **** 
 3176              		.loc 1 390 13 is_stmt 0 view .LVU776
 3177 0040 83ED0C1A 		vstr.32	s2, [r3, #48]	@ m, b_12(D)->mass
 3178              		.loc 1 392 2 is_stmt 1 view .LVU777
 3179              	@ src/b2d_lite.c:392: 	if (b->mass < FLT_MAX)
 3180              		.loc 1 392 5 is_stmt 0 view .LVU778
 3181 0044 1DD5     		bpl	.L140		@,
 393:src/b2d_lite.c **** 	{
 394:src/b2d_lite.c **** 		b->invMass = 1.0f / b->mass;
 3182              		.loc 1 394 3 is_stmt 1 view .LVU779
ARM GAS  /tmp/ccPfsSwR.s 			page 72


 3183              	@ src/b2d_lite.c:395: 		b->I = b->mass * (b->width.x * b->width.x + b->width.y * b->width.y) / 12.0
 395:src/b2d_lite.c **** 		b->I = b->mass * (b->width.x * b->width.x + b->width.y * b->width.y) / 12.0f;
 3184              		.loc 1 395 55 is_stmt 0 view .LVU780
 3185 0046 D3ED0A7A 		vldr.32	s15, [r3, #40]	@ _4, b_12(D)->width.y
 3186              	@ src/b2d_lite.c:394: 		b->invMass = 1.0f / b->mass;
 394:src/b2d_lite.c **** 		b->I = b->mass * (b->width.x * b->width.x + b->width.y * b->width.y) / 12.0f;
 3187              		.loc 1 394 21 view .LVU781
 3188 004a B7EE007A 		vmov.f32	s14, #1.0e+0	@ tmp136,
 3189              	@ src/b2d_lite.c:395: 		b->I = b->mass * (b->width.x * b->width.x + b->width.y * b->width.y) / 12.0
 3190              		.loc 1 395 29 view .LVU782
 3191 004e D3ED096A 		vldr.32	s13, [r3, #36]	@ _2, b_12(D)->width.x
 3192              	@ src/b2d_lite.c:395: 		b->I = b->mass * (b->width.x * b->width.x + b->width.y * b->width.y) / 12.0
 3193              		.loc 1 395 72 view .LVU783
 3194 0052 F2EE085A 		vmov.f32	s11, #1.2e+1	@ tmp139,
 3195              	@ src/b2d_lite.c:395: 		b->I = b->mass * (b->width.x * b->width.x + b->width.y * b->width.y) / 12.0
 3196              		.loc 1 395 58 view .LVU784
 3197 0056 67EEA77A 		vmul.f32	s15, s15, s15	@ tmp137, _4, _4
 3198              	@ src/b2d_lite.c:394: 		b->invMass = 1.0f / b->mass;
 394:src/b2d_lite.c **** 		b->I = b->mass * (b->width.x * b->width.x + b->width.y * b->width.y) / 12.0f;
 3199              		.loc 1 394 21 view .LVU785
 3200 005a 87EE016A 		vdiv.f32	s12, s14, s2	@ tmp135, tmp136, m
 3201              	@ src/b2d_lite.c:395: 		b->I = b->mass * (b->width.x * b->width.x + b->width.y * b->width.y) / 12.0
 3202              		.loc 1 395 45 view .LVU786
 3203 005e E6EEA67A 		vfma.f32	s15, s13, s13	@ _6, _2, _2
 3204              	@ src/b2d_lite.c:395: 		b->I = b->mass * (b->width.x * b->width.x + b->width.y * b->width.y) / 12.0
 3205              		.loc 1 395 18 view .LVU787
 3206 0062 27EE811A 		vmul.f32	s2, s15, s2	@ tmp138, _6, m
 3207              	.LVL208:
 3208              	@ src/b2d_lite.c:395: 		b->I = b->mass * (b->width.x * b->width.x + b->width.y * b->width.y) / 12.0
 3209              		.loc 1 395 72 view .LVU788
 3210 0066 C1EE257A 		vdiv.f32	s15, s2, s11	@ _8, tmp138, tmp139
 3211              	@ src/b2d_lite.c:394: 		b->invMass = 1.0f / b->mass;
 394:src/b2d_lite.c **** 		b->I = b->mass * (b->width.x * b->width.x + b->width.y * b->width.y) / 12.0f;
 3212              		.loc 1 394 14 view .LVU789
 3213 006a 83ED0D6A 		vstr.32	s12, [r3, #52]	@ tmp135, b_12(D)->invMass
 3214              		.loc 1 395 3 is_stmt 1 view .LVU790
 3215              	@ src/b2d_lite.c:396: 		b->invI = 1.0f / b->I;
 396:src/b2d_lite.c **** 		b->invI = 1.0f / b->I;
 3216              		.loc 1 396 18 is_stmt 0 view .LVU791
 3217 006e C7EE276A 		vdiv.f32	s13, s14, s15	@ tmp140, tmp136, _8
 3218              	@ src/b2d_lite.c:395: 		b->I = b->mass * (b->width.x * b->width.x + b->width.y * b->width.y) / 12.0
 395:src/b2d_lite.c **** 		b->I = b->mass * (b->width.x * b->width.x + b->width.y * b->width.y) / 12.0f;
 3219              		.loc 1 395 8 view .LVU792
 3220 0072 C3ED0E7A 		vstr.32	s15, [r3, #56]	@ _8, b_12(D)->I
 3221              		.loc 1 396 3 is_stmt 1 view .LVU793
 3222              	@ src/b2d_lite.c:396: 		b->invI = 1.0f / b->I;
 3223              		.loc 1 396 11 is_stmt 0 view .LVU794
 3224 0076 C3ED0F6A 		vstr.32	s13, [r3, #60]	@ tmp140, b_12(D)->invI
 3225              	@ src/b2d_lite.c:404: }    
 397:src/b2d_lite.c **** 	}
 398:src/b2d_lite.c **** 	else
 399:src/b2d_lite.c **** 	{
 400:src/b2d_lite.c **** 		b->invMass = 0.0f;
 401:src/b2d_lite.c **** 		b->I = FLT_MAX;
 402:src/b2d_lite.c **** 		b->invI = 0.0f;
 403:src/b2d_lite.c **** 	}
 404:src/b2d_lite.c **** }    
ARM GAS  /tmp/ccPfsSwR.s 			page 73


 3226              		.loc 1 404 1 view .LVU795
 3227 007a 03B0     		add	sp, sp, #12	@,,
 3228              	.LCFI46:
 3229              		.cfi_remember_state
 3230              		.cfi_def_cfa_offset 4
 3231              		@ sp needed	@
 3232 007c 5DF8044B 		ldr	r4, [sp], #4	@,
 3233              	.LCFI47:
 3234              		.cfi_restore 4
 3235              		.cfi_def_cfa_offset 0
 3236 0080 7047     		bx	lr	@
 3237              	.LVL209:
 3238              	.L140:
 3239              	.LCFI48:
 3240              		.cfi_restore_state
 400:src/b2d_lite.c **** 		b->I = FLT_MAX;
 3241              		.loc 1 400 3 is_stmt 1 view .LVU796
 3242              	@ src/b2d_lite.c:400: 		b->invMass = 0.0f;
 400:src/b2d_lite.c **** 		b->I = FLT_MAX;
 3243              		.loc 1 400 14 is_stmt 0 view .LVU797
 3244 0082 5A63     		str	r2, [r3, #52]	@ float	@ tmp122, b_12(D)->invMass
 401:src/b2d_lite.c **** 		b->invI = 0.0f;
 3245              		.loc 1 401 3 is_stmt 1 view .LVU798
 3246              	@ src/b2d_lite.c:401: 		b->I = FLT_MAX;
 401:src/b2d_lite.c **** 		b->invI = 0.0f;
 3247              		.loc 1 401 8 is_stmt 0 view .LVU799
 3248 0084 C3ED0E7A 		vstr.32	s15, [r3, #56]	@ tmp134, b_12(D)->I
 402:src/b2d_lite.c **** 	}
 3249              		.loc 1 402 3 is_stmt 1 view .LVU800
 3250              	@ src/b2d_lite.c:402: 		b->invI = 0.0f;
 402:src/b2d_lite.c **** 	}
 3251              		.loc 1 402 11 is_stmt 0 view .LVU801
 3252 0088 DA63     		str	r2, [r3, #60]	@ float	@ tmp122, b_12(D)->invI
 3253              	@ src/b2d_lite.c:404: }    
 3254              		.loc 1 404 1 view .LVU802
 3255 008a 03B0     		add	sp, sp, #12	@,,
 3256              	.LCFI49:
 3257              		.cfi_def_cfa_offset 4
 3258              		@ sp needed	@
 3259 008c 5DF8044B 		ldr	r4, [sp], #4	@,
 3260              	.LCFI50:
 3261              		.cfi_restore 4
 3262              		.cfi_def_cfa_offset 0
 3263 0090 7047     		bx	lr	@
 3264              	.L143:
 3265 0092 00BF     		.align	2
 3266              	.L142:
 3267 0094 FFFF7F7F 		.word	2139095039
 3268 0098 CDCC4C3E 		.word	1045220557
 3269              		.cfi_endproc
 3270              	.LFE12:
 3271              		.size	initBody, .-initBody
 3272              		.section	.text.addBody,"ax",%progbits
 3273              		.align	1
 3274              		.p2align 4,,15
 3275              		.global	addBody
 3276              		.syntax unified
ARM GAS  /tmp/ccPfsSwR.s 			page 74


 3277              		.thumb
 3278              		.thumb_func
 3279              		.fpu fpv5-sp-d16
 3280              		.type	addBody, %function
 3281              	addBody:
 3282              	.LVL210:
 3283              	.LFB13:
 405:src/b2d_lite.c **** 
 406:src/b2d_lite.c **** void addBody(struct Body *b)
 407:src/b2d_lite.c **** {
 3284              		.loc 1 407 1 is_stmt 1 view -0
 3285              		.cfi_startproc
 3286              		@ args = 0, pretend = 0, frame = 0
 3287              		@ frame_needed = 0, uses_anonymous_args = 0
 3288              		@ link register save eliminated.
 408:src/b2d_lite.c ****     g_bodies[g_numBodies]=b;
 3289              		.loc 1 408 5 view .LVU804
 3290              	@ src/b2d_lite.c:408:     g_bodies[g_numBodies]=b;
 3291              		.loc 1 408 13 is_stmt 0 view .LVU805
 3292 0000 054B     		ldr	r3, .L146	@ tmp113,
 3293 0002 1A68     		ldr	r2, [r3]	@ g_numBodies.29_1, g_numBodies
 3294              	@ src/b2d_lite.c:407: {
 407:src/b2d_lite.c ****     g_bodies[g_numBodies]=b;
 3295              		.loc 1 407 1 view .LVU806
 3296 0004 10B4     		push	{r4}	@
 3297              	.LCFI51:
 3298              		.cfi_def_cfa_offset 4
 3299              		.cfi_offset 4, -4
 3300              	@ src/b2d_lite.c:409:     g_numBodies++;
 409:src/b2d_lite.c ****     g_numBodies++;
 3301              		.loc 1 409 16 view .LVU807
 3302 0006 511C     		adds	r1, r2, #1	@ tmp116, g_numBodies.29_1,
 3303              	@ src/b2d_lite.c:408:     g_bodies[g_numBodies]=b;
 408:src/b2d_lite.c ****     g_bodies[g_numBodies]=b;
 3304              		.loc 1 408 26 view .LVU808
 3305 0008 044C     		ldr	r4, .L146+4	@ tmp114,
 3306              	@ src/b2d_lite.c:409:     g_numBodies++;
 3307              		.loc 1 409 16 view .LVU809
 3308 000a 1960     		str	r1, [r3]	@ tmp116, g_numBodies
 3309              	@ src/b2d_lite.c:408:     g_bodies[g_numBodies]=b;
 408:src/b2d_lite.c ****     g_bodies[g_numBodies]=b;
 3310              		.loc 1 408 26 view .LVU810
 3311 000c 44F82200 		str	r0, [r4, r2, lsl #2]	@ tmp117, g_bodies
 3312              		.loc 1 409 5 is_stmt 1 view .LVU811
 3313              	@ src/b2d_lite.c:410: }
 410:src/b2d_lite.c **** }
 3314              		.loc 1 410 1 is_stmt 0 view .LVU812
 3315 0010 5DF8044B 		ldr	r4, [sp], #4	@,
 3316              	.LCFI52:
 3317              		.cfi_restore 4
 3318              		.cfi_def_cfa_offset 0
 3319 0014 7047     		bx	lr	@
 3320              	.L147:
 3321 0016 00BF     		.align	2
 3322              	.L146:
 3323 0018 00000000 		.word	g_numBodies
 3324 001c 00000000 		.word	g_bodies
ARM GAS  /tmp/ccPfsSwR.s 			page 75


 3325              		.cfi_endproc
 3326              	.LFE13:
 3327              		.size	addBody, .-addBody
 3328              		.section	.text.getBody,"ax",%progbits
 3329              		.align	1
 3330              		.p2align 4,,15
 3331              		.global	getBody
 3332              		.syntax unified
 3333              		.thumb
 3334              		.thumb_func
 3335              		.fpu fpv5-sp-d16
 3336              		.type	getBody, %function
 3337              	getBody:
 3338              	.LVL211:
 3339              	.LFB14:
 411:src/b2d_lite.c **** 
 412:src/b2d_lite.c **** struct Body* getBody(int i)
 413:src/b2d_lite.c **** {
 3340              		.loc 1 413 1 is_stmt 1 view -0
 3341              		.cfi_startproc
 3342              		@ args = 0, pretend = 0, frame = 0
 3343              		@ frame_needed = 0, uses_anonymous_args = 0
 3344              		@ link register save eliminated.
 414:src/b2d_lite.c ****     return g_bodies[i];
 3345              		.loc 1 414 5 view .LVU814
 3346              	@ src/b2d_lite.c:414:     return g_bodies[i];
 3347              		.loc 1 414 20 is_stmt 0 view .LVU815
 3348 0000 014B     		ldr	r3, .L149	@ tmp113,
 3349              	@ src/b2d_lite.c:415: }
 415:src/b2d_lite.c **** }
 3350              		.loc 1 415 1 view .LVU816
 3351 0002 53F82000 		ldr	r0, [r3, r0, lsl #2]	@, g_bodies
 3352              	.LVL212:
 3353              		.loc 1 415 1 view .LVU817
 3354 0006 7047     		bx	lr	@
 3355              	.L150:
 3356              		.align	2
 3357              	.L149:
 3358 0008 00000000 		.word	g_bodies
 3359              		.cfi_endproc
 3360              	.LFE14:
 3361              		.size	getBody, .-getBody
 3362              		.global	positionCorrection
 3363              		.global	warmStarting
 3364              		.global	accumulateImpulses
 3365              		.comm	iterations,4,4
 3366              		.comm	gravity,8,4
 3367              		.comm	g_numArbiters,4,4
 3368              		.comm	g_arbiterKeys,800,4
 3369              		.comm	g_arbiters,14400,4
 3370              		.comm	g_numBodies,4,4
 3371              		.comm	g_bodies,400,4
 3372              		.section	.data.accumulateImpulses,"aw"
 3373              		.align	2
 3374              		.set	.LANCHOR2,. + 0
 3375              		.type	accumulateImpulses, %object
 3376              		.size	accumulateImpulses, 4
ARM GAS  /tmp/ccPfsSwR.s 			page 76


 3377              	accumulateImpulses:
 3378 0000 01000000 		.word	1
 3379              		.section	.data.positionCorrection,"aw"
 3380              		.align	2
 3381              		.set	.LANCHOR1,. + 0
 3382              		.type	positionCorrection, %object
 3383              		.size	positionCorrection, 4
 3384              	positionCorrection:
 3385 0000 01000000 		.word	1
 3386              		.section	.data.warmStarting,"aw"
 3387              		.align	2
 3388              		.set	.LANCHOR0,. + 0
 3389              		.type	warmStarting, %object
 3390              		.size	warmStarting, 4
 3391              	warmStarting:
 3392 0000 01000000 		.word	1
 3393              		.text
 3394              	.Letext0:
 3395              		.file 2 "/usr/lib/gcc/arm-none-eabi/9.2.1/include/stddef.h"
 3396              		.file 3 "/usr/include/newlib/sys/_types.h"
 3397              		.file 4 "/usr/include/newlib/sys/reent.h"
 3398              		.file 5 "/usr/include/newlib/sys/lock.h"
 3399              		.file 6 "/usr/include/newlib/math.h"
 3400              		.file 7 "/usr/include/newlib/stdlib.h"
 3401              		.file 8 "src/mathutils.h"
 3402              		.file 9 "src/collide.h"
 3403              		.file 10 "<built-in>"