ARM GAS  /tmp/ccEGVymn.s 			page 1


   1              		.cpu cortex-m7
   2              		.eabi_attribute 27, 1	@ Tag_ABI_HardFP_use
   3              		.eabi_attribute 28, 1	@ Tag_ABI_VFP_args
   4              		.eabi_attribute 20, 1	@ Tag_ABI_FP_denormal
   5              		.eabi_attribute 21, 1	@ Tag_ABI_FP_exceptions
   6              		.eabi_attribute 23, 3	@ Tag_ABI_FP_number_model
   7              		.eabi_attribute 24, 1	@ Tag_ABI_align8_needed
   8              		.eabi_attribute 25, 1	@ Tag_ABI_align8_preserved
   9              		.eabi_attribute 26, 1	@ Tag_ABI_enum_size
  10              		.eabi_attribute 30, 2	@ Tag_ABI_optimization_goals
  11              		.eabi_attribute 34, 1	@ Tag_CPU_unaligned_access
  12              		.eabi_attribute 18, 4	@ Tag_ABI_PCS_wchar_t
  13              		.file	"b2d_lite.c"
  14              	@ GNU C17 (15:9-2019-q4-0ubuntu1) version 9.2.1 20191025 (release) [ARM/arm-9-branch revision 27759
  15              	@	compiled by GNU C version 9.2.1 20200306, GMP version 6.2.0, MPFR version 4.0.2, MPC version 1.1.
  16              	
  17              	@ GGC heuristics: --param ggc-min-expand=100 --param ggc-min-heapsize=131072
  18              	@ options passed:  -I . -I .
  19              	@ -I /home/george/projects/PlaydateSDK-1.11.1//C_API
  20              	@ -imultilib thumb/v7e-m+fp/hard -MD build/src/b2d_lite.d
  21              	@ -MF build/dep/b2d_lite.o.d -MP -MQ build/src/b2d_lite.o
  22              	@ -D__USES_INITFINI__ -D __FPU_USED=1 -D TARGET_PLAYDATE=1
  23              	@ -D TARGET_EXTENSION=1 src/b2d_lite.c -mthumb -mcpu=cortex-m7
  24              	@ -mfloat-abi=hard -mfpu=fpv5-sp-d16 -march=armv7e-m+fpv5
  25              	@ -auxbase-strip build/src/b2d_lite.o -g -gdwarf-2 -O2 -Wall -Wno-unused
  26              	@ -Wstrict-prototypes -Wno-unknown-pragmas -Wdouble-promotion
  27              	@ -falign-functions=16 -fomit-frame-pointer -fverbose-asm
  28              	@ -ffunction-sections -fdata-sections
  29              	@ options enabled:  -faggressive-loop-optimizations -falign-functions
  30              	@ -falign-jumps -falign-labels -falign-loops -fassume-phsa -fauto-inc-dec
  31              	@ -fbranch-count-reg -fcaller-saves -fcombine-stack-adjustments -fcommon
  32              	@ -fcompare-elim -fcprop-registers -fcrossjumping -fcse-follow-jumps
  33              	@ -fdata-sections -fdefer-pop -fdelete-null-pointer-checks -fdevirtualize
  34              	@ -fdevirtualize-speculatively -fdwarf2-cfi-asm -fearly-inlining
  35              	@ -feliminate-unused-debug-types -fexpensive-optimizations
  36              	@ -fforward-propagate -ffp-int-builtin-inexact -ffunction-cse
  37              	@ -ffunction-sections -fgcse -fgcse-lm -fgnu-runtime -fgnu-unique
  38              	@ -fguess-branch-probability -fhoist-adjacent-loads -fident -fif-conversion
  39              	@ -fif-conversion2 -findirect-inlining -finline -finline-atomics
  40              	@ -finline-functions-called-once -finline-small-functions -fipa-bit-cp
  41              	@ -fipa-cp -fipa-icf -fipa-icf-functions -fipa-icf-variables -fipa-profile
  42              	@ -fipa-pure-const -fipa-ra -fipa-reference -fipa-reference-addressable
  43              	@ -fipa-sra -fipa-stack-alignment -fipa-vrp -fira-hoist-pressure
  44              	@ -fira-share-save-slots -fira-share-spill-slots
  45              	@ -fisolate-erroneous-paths-dereference -fivopts -fkeep-static-consts
  46              	@ -fleading-underscore -flifetime-dse -flra-remat -flto-odr-type-merging
  47              	@ -fmath-errno -fmerge-constants -fmerge-debug-strings
  48              	@ -fmove-loop-invariants -fomit-frame-pointer -foptimize-sibling-calls
  49              	@ -foptimize-strlen -fpartial-inlining -fpeephole -fpeephole2 -fplt
  50              	@ -fprefetch-loop-arrays -freg-struct-return -freorder-blocks
  51              	@ -freorder-functions -frerun-cse-after-loop
  52              	@ -fsched-critical-path-heuristic -fsched-dep-count-heuristic
  53              	@ -fsched-group-heuristic -fsched-interblock -fsched-last-insn-heuristic
  54              	@ -fsched-pressure -fsched-rank-heuristic -fsched-spec
  55              	@ -fsched-spec-insn-heuristic -fsched-stalled-insns-dep -fschedule-insns
  56              	@ -fschedule-insns2 -fsection-anchors -fsemantic-interposition
  57              	@ -fshow-column -fshrink-wrap -fshrink-wrap-separate -fsigned-zeros
ARM GAS  /tmp/ccEGVymn.s 			page 2


  58              	@ -fsplit-ivs-in-unroller -fsplit-wide-types -fssa-backprop -fssa-phiopt
  59              	@ -fstdarg-opt -fstore-merging -fstrict-aliasing
  60              	@ -fstrict-volatile-bitfields -fsync-libcalls -fthread-jumps
  61              	@ -ftoplevel-reorder -ftrapping-math -ftree-bit-ccp -ftree-builtin-call-dce
  62              	@ -ftree-ccp -ftree-ch -ftree-coalesce-vars -ftree-copy-prop -ftree-cselim
  63              	@ -ftree-dce -ftree-dominator-opts -ftree-dse -ftree-forwprop -ftree-fre
  64              	@ -ftree-loop-if-convert -ftree-loop-im -ftree-loop-ivcanon
  65              	@ -ftree-loop-optimize -ftree-parallelize-loops= -ftree-phiprop -ftree-pre
  66              	@ -ftree-pta -ftree-reassoc -ftree-scev-cprop -ftree-sink -ftree-slsr
  67              	@ -ftree-sra -ftree-switch-conversion -ftree-tail-merge -ftree-ter
  68              	@ -ftree-vrp -funit-at-a-time -fvar-tracking -fvar-tracking-assignments
  69              	@ -fverbose-asm -fzero-initialized-in-bss -masm-syntax-unified -mbe32
  70              	@ -mlittle-endian -mpic-data-is-text-relative -msched-prolog -mthumb
  71              	@ -munaligned-access -mvectorize-with-neon-quad
  72              	
  73              		.text
  74              	.Ltext0:
  75              		.cfi_sections	.debug_frame
  76              		.section	.text.findArbiter,"ax",%progbits
  77              		.align	1
  78              		.p2align 4,,15
  79              		.global	findArbiter
  80              		.arch armv7e-m
  81              		.syntax unified
  82              		.thumb
  83              		.thumb_func
  84              		.fpu fpv5-sp-d16
  85              		.type	findArbiter, %function
  86              	findArbiter:
  87              	.LFB3:
  88              		.file 1 "src/b2d_lite.c"
   1:src/b2d_lite.c **** /*
   2:src/b2d_lite.c ****  * Copyright (c) 2006-2007 Erin Catto http://www.gphysics.com
   3:src/b2d_lite.c ****  *
   4:src/b2d_lite.c ****  * Permission to use, copy, modify, distribute and sell this software
   5:src/b2d_lite.c ****  * and its documentation for any purpose is hereby granted without fee,
   6:src/b2d_lite.c ****  * provided that the above copyright notice appear in all copies.
   7:src/b2d_lite.c ****  * Erin Catto makes no representations about the suitability
   8:src/b2d_lite.c ****  * of this software for any purpose.
   9:src/b2d_lite.c ****  * It is provided "as is" without express or implied warranty.
  10:src/b2d_lite.c ****  */
  11:src/b2d_lite.c **** 
  12:src/b2d_lite.c **** #include <stdio.h>
  13:src/b2d_lite.c **** #include <float.h>
  14:src/b2d_lite.c **** #include <math.h>
  15:src/b2d_lite.c **** #include <stdlib.h>
  16:src/b2d_lite.c **** 
  17:src/b2d_lite.c **** #include "mathutils.h"
  18:src/b2d_lite.c **** #include "collide.h"
  19:src/b2d_lite.c **** 
  20:src/b2d_lite.c **** struct Arbiter
  21:src/b2d_lite.c **** {
  22:src/b2d_lite.c **** 	struct Contact contacts[2];
  23:src/b2d_lite.c **** 	int numContacts;
  24:src/b2d_lite.c **** 
  25:src/b2d_lite.c **** 	struct Body *body1;
  26:src/b2d_lite.c **** 	struct Body *body2;
ARM GAS  /tmp/ccEGVymn.s 			page 3


  27:src/b2d_lite.c **** 
  28:src/b2d_lite.c **** 	// Combined friction
  29:src/b2d_lite.c **** 	float friction;
  30:src/b2d_lite.c **** };
  31:src/b2d_lite.c **** 
  32:src/b2d_lite.c **** struct ArbiterKey
  33:src/b2d_lite.c **** {
  34:src/b2d_lite.c **** 	struct Body *body1;
  35:src/b2d_lite.c **** 	struct Body *body2;
  36:src/b2d_lite.c **** };
  37:src/b2d_lite.c **** 
  38:src/b2d_lite.c **** // was in World
  39:src/b2d_lite.c **** 
  40:src/b2d_lite.c **** struct Body *g_bodies[100];
  41:src/b2d_lite.c **** int g_numBodies;
  42:src/b2d_lite.c **** 
  43:src/b2d_lite.c **** struct Arbiter g_arbiters[100];
  44:src/b2d_lite.c **** struct ArbiterKey g_arbiterKeys[100];
  45:src/b2d_lite.c **** int g_numArbiters;
  46:src/b2d_lite.c **** 
  47:src/b2d_lite.c **** struct Vec2 gravity;
  48:src/b2d_lite.c **** int iterations;
  49:src/b2d_lite.c **** int accumulateImpulses = 1;
  50:src/b2d_lite.c **** int warmStarting = 1;
  51:src/b2d_lite.c **** int positionCorrection = 1;
  52:src/b2d_lite.c **** 
  53:src/b2d_lite.c **** struct Arbiter *findArbiter(struct ArbiterKey key)
  54:src/b2d_lite.c **** {
  89              		.loc 1 54 1 view -0
  90              		.cfi_startproc
  91              		@ args = 0, pretend = 0, frame = 8
  92              		@ frame_needed = 0, uses_anonymous_args = 0
  93              		@ link register save eliminated.
  55:src/b2d_lite.c **** 	for (int i = 0; i < g_numArbiters; i++)
  94              		.loc 1 55 2 view .LVU1
  95              	.LBB26:
  96              		.loc 1 55 7 view .LVU2
  97              	.LVL0:
  98              		.loc 1 55 18 view .LVU3
  99              	@ src/b2d_lite.c:55: 	for (int i = 0; i < g_numArbiters; i++)
 100              		.loc 1 55 20 is_stmt 0 view .LVU4
 101 0000 124B     		ldr	r3, .L9	@ tmp120,
 102              	.LBE26:
 103              	@ src/b2d_lite.c:54: {
  54:src/b2d_lite.c **** 	for (int i = 0; i < g_numArbiters; i++)
 104              		.loc 1 54 1 view .LVU5
 105 0002 F0B4     		push	{r4, r5, r6, r7}	@
 106              	.LCFI0:
 107              		.cfi_def_cfa_offset 16
 108              		.cfi_offset 4, -16
 109              		.cfi_offset 5, -12
 110              		.cfi_offset 6, -8
 111              		.cfi_offset 7, -4
 112              	.LBB27:
 113              	@ src/b2d_lite.c:55: 	for (int i = 0; i < g_numArbiters; i++)
 114              		.loc 1 55 20 view .LVU6
 115 0004 1C68     		ldr	r4, [r3]	@ g_numArbiters.0_12, g_numArbiters
ARM GAS  /tmp/ccEGVymn.s 			page 4


 116              	.LBE27:
 117              	@ src/b2d_lite.c:54: {
  54:src/b2d_lite.c **** 	for (int i = 0; i < g_numArbiters; i++)
 118              		.loc 1 54 1 view .LVU7
 119 0006 82B0     		sub	sp, sp, #8	@,,
 120              	.LCFI1:
 121              		.cfi_def_cfa_offset 24
 122              	.LBB28:
 123              	@ src/b2d_lite.c:55: 	for (int i = 0; i < g_numArbiters; i++)
 124              		.loc 1 55 2 view .LVU8
 125 0008 002C     		cmp	r4, #0	@ g_numArbiters.0_12,
 126              	.LBE28:
 127              	@ src/b2d_lite.c:54: {
  54:src/b2d_lite.c **** 	for (int i = 0; i < g_numArbiters; i++)
 128              		.loc 1 54 1 view .LVU9
 129 000a 02AB     		add	r3, sp, #8	@ tmp138,,
 130 000c 03E90300 		stmdb	r3, {r0, r1}	@ tmp138,,
 131              	.LBB29:
 132              	@ src/b2d_lite.c:55: 	for (int i = 0; i < g_numArbiters; i++)
 133              		.loc 1 55 2 view .LVU10
 134 0010 18DD     		ble	.L5		@,
 135 0012 0F49     		ldr	r1, .L9+4	@ tmp135,
 136              	@ src/b2d_lite.c:55: 	for (int i = 0; i < g_numArbiters; i++)
 137              		.loc 1 55 11 view .LVU11
 138 0014 0023     		movs	r3, #0	@ i,
 139              	@ src/b2d_lite.c:57: 		if (g_arbiterKeys[i].body1 == key.body1 &&
  56:src/b2d_lite.c **** 	{
  57:src/b2d_lite.c **** 		if (g_arbiterKeys[i].body1 == key.body1 &&
 140              		.loc 1 57 36 view .LVU12
 141 0016 0098     		ldr	r0, [sp]	@ _2, key.body1
 142              	@ src/b2d_lite.c:58: 			g_arbiterKeys[i].body2 == key.body2)
  58:src/b2d_lite.c **** 			g_arbiterKeys[i].body2 == key.body2)
 143              		.loc 1 58 20 view .LVU13
 144 0018 0F1D     		adds	r7, r1, #4	@ tmp136, tmp135,
 145              	@ src/b2d_lite.c:58: 			g_arbiterKeys[i].body2 == key.body2)
 146              		.loc 1 58 33 view .LVU14
 147 001a 019E     		ldr	r6, [sp, #4]	@ _4, key.body2
 148 001c 02E0     		b	.L4		@
 149              	.LVL1:
 150              	.L3:
 151              	@ src/b2d_lite.c:55: 	for (int i = 0; i < g_numArbiters; i++)
  55:src/b2d_lite.c **** 	{
 152              		.loc 1 55 38 discriminator 2 view .LVU15
 153 001e 0133     		adds	r3, r3, #1	@ i, i,
 154              	.LVL2:
  55:src/b2d_lite.c **** 	{
 155              		.loc 1 55 18 is_stmt 1 discriminator 2 view .LVU16
 156              	@ src/b2d_lite.c:55: 	for (int i = 0; i < g_numArbiters; i++)
  55:src/b2d_lite.c **** 	{
 157              		.loc 1 55 2 is_stmt 0 discriminator 2 view .LVU17
 158 0020 A342     		cmp	r3, r4	@ i, g_numArbiters.0_12
 159 0022 0FD0     		beq	.L5		@,
 160              	.LVL3:
 161              	.L4:
  57:src/b2d_lite.c **** 			g_arbiterKeys[i].body2 == key.body2)
 162              		.loc 1 57 3 is_stmt 1 view .LVU18
  55:src/b2d_lite.c **** 	{
ARM GAS  /tmp/ccEGVymn.s 			page 5


 163              		.loc 1 55 37 view .LVU19
 164              	@ src/b2d_lite.c:57: 		if (g_arbiterKeys[i].body1 == key.body1 &&
  57:src/b2d_lite.c **** 			g_arbiterKeys[i].body2 == key.body2)
 165              		.loc 1 57 6 is_stmt 0 view .LVU20
 166 0024 51F83320 		ldr	r2, [r1, r3, lsl #3]	@ MEM[symbol: g_arbiterKeys, index: _8, step: 8, offset: 0B], MEM[symbol:
 167              	@ src/b2d_lite.c:57: 		if (g_arbiterKeys[i].body1 == key.body1 &&
  57:src/b2d_lite.c **** 			g_arbiterKeys[i].body2 == key.body2)
 168              		.loc 1 57 23 view .LVU21
 169 0028 DD00     		lsls	r5, r3, #3	@ tmp121, i,
 170              	@ src/b2d_lite.c:57: 		if (g_arbiterKeys[i].body1 == key.body1 &&
  57:src/b2d_lite.c **** 			g_arbiterKeys[i].body2 == key.body2)
 171              		.loc 1 57 6 view .LVU22
 172 002a 8242     		cmp	r2, r0	@ MEM[symbol: g_arbiterKeys, index: _8, step: 8, offset: 0B], _2
 173 002c F7D1     		bne	.L3		@,
 174              	@ src/b2d_lite.c:57: 		if (g_arbiterKeys[i].body1 == key.body1 &&
  57:src/b2d_lite.c **** 			g_arbiterKeys[i].body2 == key.body2)
 175              		.loc 1 57 43 discriminator 1 view .LVU23
 176 002e 57F83320 		ldr	r2, [r7, r3, lsl #3]	@ MEM[symbol: g_arbiterKeys, index: _8, step: 8, offset: 4B], MEM[symbol:
 177 0032 B242     		cmp	r2, r6	@ MEM[symbol: g_arbiterKeys, index: _8, step: 8, offset: 4B], _4
 178 0034 F3D1     		bne	.L3		@,
  59:src/b2d_lite.c **** 			return &g_arbiters[i];
 179              		.loc 1 59 4 is_stmt 1 view .LVU24
 180              	@ src/b2d_lite.c:59: 			return &g_arbiters[i];
 181              		.loc 1 59 11 is_stmt 0 view .LVU25
 182 0036 2B44     		add	r3, r3, r5	@ tmp131, tmp121
 183              	.LVL4:
 184              		.loc 1 59 11 view .LVU26
 185 0038 0648     		ldr	r0, .L9+8	@ tmp133,
 186 003a 00EB0310 		add	r0, r0, r3, lsl #4	@ <retval>, tmp133, tmp131,
 187              	.LBE29:
 188              	@ src/b2d_lite.c:63: }
  60:src/b2d_lite.c **** 	}
  61:src/b2d_lite.c **** 
  62:src/b2d_lite.c **** 	return NULL;
  63:src/b2d_lite.c **** }
 189              		.loc 1 63 1 view .LVU27
 190 003e 02B0     		add	sp, sp, #8	@,,
 191              	.LCFI2:
 192              		.cfi_remember_state
 193              		.cfi_def_cfa_offset 16
 194              		@ sp needed	@
 195 0040 F0BC     		pop	{r4, r5, r6, r7}	@
 196              	.LCFI3:
 197              		.cfi_restore 7
 198              		.cfi_restore 6
 199              		.cfi_restore 5
 200              		.cfi_restore 4
 201              		.cfi_def_cfa_offset 0
 202 0042 7047     		bx	lr	@
 203              	.L5:
 204              	.LCFI4:
 205              		.cfi_restore_state
 206              	@ src/b2d_lite.c:62: 	return NULL;
  62:src/b2d_lite.c **** }
 207              		.loc 1 62 9 view .LVU28
 208 0044 0020     		movs	r0, #0	@ <retval>,
 209              	@ src/b2d_lite.c:63: }
ARM GAS  /tmp/ccEGVymn.s 			page 6


 210              		.loc 1 63 1 view .LVU29
 211 0046 02B0     		add	sp, sp, #8	@,,
 212              	.LCFI5:
 213              		.cfi_def_cfa_offset 16
 214              		@ sp needed	@
 215 0048 F0BC     		pop	{r4, r5, r6, r7}	@
 216              	.LCFI6:
 217              		.cfi_restore 7
 218              		.cfi_restore 6
 219              		.cfi_restore 5
 220              		.cfi_restore 4
 221              		.cfi_def_cfa_offset 0
 222 004a 7047     		bx	lr	@
 223              	.L10:
 224              		.align	2
 225              	.L9:
 226 004c 00000000 		.word	g_numArbiters
 227 0050 00000000 		.word	g_arbiterKeys
 228 0054 00000000 		.word	g_arbiters
 229              		.cfi_endproc
 230              	.LFE3:
 231              		.size	findArbiter, .-findArbiter
 232              		.section	.text.insertArbiter,"ax",%progbits
 233              		.align	1
 234              		.p2align 4,,15
 235              		.global	insertArbiter
 236              		.syntax unified
 237              		.thumb
 238              		.thumb_func
 239              		.fpu fpv5-sp-d16
 240              		.type	insertArbiter, %function
 241              	insertArbiter:
 242              	.LFB4:
  64:src/b2d_lite.c **** 
  65:src/b2d_lite.c **** void insertArbiter(struct ArbiterKey key, struct Arbiter value)
  66:src/b2d_lite.c **** {
 243              		.loc 1 66 1 is_stmt 1 view -0
 244              		.cfi_startproc
 245              		@ args = 144, pretend = 8, frame = 8
 246              		@ frame_needed = 0, uses_anonymous_args = 0
  67:src/b2d_lite.c **** 	if (g_numArbiters >= 100)
 247              		.loc 1 67 2 view .LVU31
 248              	@ src/b2d_lite.c:66: {
  66:src/b2d_lite.c **** 	if (g_numArbiters >= 100)
 249              		.loc 1 66 1 is_stmt 0 view .LVU32
 250 0000 82B0     		sub	sp, sp, #8	@,,
 251              	.LCFI7:
 252              		.cfi_def_cfa_offset 8
 253 0002 F0B5     		push	{r4, r5, r6, r7, lr}	@
 254              	.LCFI8:
 255              		.cfi_def_cfa_offset 28
 256              		.cfi_offset 4, -28
 257              		.cfi_offset 5, -24
 258              		.cfi_offset 6, -20
 259              		.cfi_offset 7, -16
 260              		.cfi_offset 14, -12
 261 0004 83B0     		sub	sp, sp, #12	@,,
ARM GAS  /tmp/ccEGVymn.s 			page 7


 262              	.LCFI9:
 263              		.cfi_def_cfa_offset 40
 264              	@ src/b2d_lite.c:67: 	if (g_numArbiters >= 100)
 265              		.loc 1 67 20 view .LVU33
 266 0006 104E     		ldr	r6, .L14	@ tmp113,
 267              	@ src/b2d_lite.c:66: {
  66:src/b2d_lite.c **** 	if (g_numArbiters >= 100)
 268              		.loc 1 66 1 view .LVU34
 269 0008 08AC     		add	r4, sp, #32	@ tmp130,,
 270 000a 6D46     		mov	r5, sp	@ tmp112,
 271 000c 84E80C00 		stm	r4, {r2, r3}	@ tmp130,,
 272              	@ src/b2d_lite.c:67: 	if (g_numArbiters >= 100)
 273              		.loc 1 67 20 view .LVU35
 274 0010 3468     		ldr	r4, [r6]	@ g_numArbiters.1_1, g_numArbiters
 275              	@ src/b2d_lite.c:67: 	if (g_numArbiters >= 100)
 276              		.loc 1 67 5 view .LVU36
 277 0012 632C     		cmp	r4, #99	@ g_numArbiters.1_1,
 278              	@ src/b2d_lite.c:66: {
  66:src/b2d_lite.c **** 	if (g_numArbiters >= 100)
 279              		.loc 1 66 1 view .LVU37
 280 0014 85E80300 		stm	r5, {r0, r1}	@ tmp112,,
 281              	@ src/b2d_lite.c:67: 	if (g_numArbiters >= 100)
 282              		.loc 1 67 5 view .LVU38
 283 0018 11DC     		bgt	.L11		@,
  68:src/b2d_lite.c **** 	{
  69:src/b2d_lite.c **** 		return;
  70:src/b2d_lite.c **** 	}
  71:src/b2d_lite.c **** 	else
  72:src/b2d_lite.c **** 	{
  73:src/b2d_lite.c **** 		g_arbiterKeys[g_numArbiters] = key;
 284              		.loc 1 73 3 is_stmt 1 view .LVU39
 285              	@ src/b2d_lite.c:73: 		g_arbiterKeys[g_numArbiters] = key;
 286              		.loc 1 73 32 is_stmt 0 view .LVU40
 287 001a 0C4B     		ldr	r3, .L14+4	@ tmp114,
 288              	@ src/b2d_lite.c:74: 		g_arbiters[g_numArbiters] = value;
  74:src/b2d_lite.c **** 		g_arbiters[g_numArbiters] = value;
 289              		.loc 1 74 29 view .LVU41
 290 001c 04EBC40C 		add	ip, r4, r4, lsl #3	@ tmp121, g_numArbiters.1_1, g_numArbiters.1_1,
 291 0020 0B4F     		ldr	r7, .L14+8	@ tmp118,
 292 0022 9022     		movs	r2, #144	@,
 293              	@ src/b2d_lite.c:73: 		g_arbiterKeys[g_numArbiters] = key;
  73:src/b2d_lite.c **** 		g_arbiters[g_numArbiters] = value;
 294              		.loc 1 73 32 view .LVU42
 295 0024 03EBC403 		add	r3, r3, r4, lsl #3	@ tmp115, tmp114, g_numArbiters.1_1,
 296              	@ src/b2d_lite.c:75: 		g_numArbiters++;
  75:src/b2d_lite.c **** 		g_numArbiters++;
 297              		.loc 1 75 16 view .LVU43
 298 0028 0134     		adds	r4, r4, #1	@ tmp129, g_numArbiters.1_1,
 299              	@ src/b2d_lite.c:73: 		g_arbiterKeys[g_numArbiters] = key;
  73:src/b2d_lite.c **** 		g_arbiters[g_numArbiters] = value;
 300              		.loc 1 73 32 view .LVU44
 301 002a 95E80300 		ldm	r5, {r0, r1}	@ tmp112,,
 302 002e 83E80300 		stm	r3, {r0, r1}	@ tmp115,,
  74:src/b2d_lite.c **** 		g_arbiters[g_numArbiters] = value;
 303              		.loc 1 74 3 is_stmt 1 view .LVU45
 304              	@ src/b2d_lite.c:74: 		g_arbiters[g_numArbiters] = value;
  74:src/b2d_lite.c **** 		g_arbiters[g_numArbiters] = value;
ARM GAS  /tmp/ccEGVymn.s 			page 8


 305              		.loc 1 74 29 is_stmt 0 view .LVU46
 306 0032 07EB0C10 		add	r0, r7, ip, lsl #4	@, tmp118, tmp121,
 307 0036 08A9     		add	r1, sp, #32	@,,
 308 0038 FFF7FEFF 		bl	memcpy		@
 309              	.LVL5:
 310              		.loc 1 75 3 is_stmt 1 view .LVU47
 311              	@ src/b2d_lite.c:75: 		g_numArbiters++;
 312              		.loc 1 75 16 is_stmt 0 view .LVU48
 313 003c 3460     		str	r4, [r6]	@ tmp129, g_numArbiters
 314              	.L11:
 315              	@ src/b2d_lite.c:77: }
  76:src/b2d_lite.c **** 	}
  77:src/b2d_lite.c **** }
 316              		.loc 1 77 1 view .LVU49
 317 003e 03B0     		add	sp, sp, #12	@,,
 318              	.LCFI10:
 319              		.cfi_def_cfa_offset 28
 320              		@ sp needed	@
 321 0040 BDE8F040 		pop	{r4, r5, r6, r7, lr}	@
 322              	.LCFI11:
 323              		.cfi_restore 14
 324              		.cfi_restore 7
 325              		.cfi_restore 6
 326              		.cfi_restore 5
 327              		.cfi_restore 4
 328              		.cfi_def_cfa_offset 8
 329 0044 02B0     		add	sp, sp, #8	@,,
 330              	.LCFI12:
 331              		.cfi_def_cfa_offset 0
 332 0046 7047     		bx	lr	@
 333              	.L15:
 334              		.align	2
 335              	.L14:
 336 0048 00000000 		.word	g_numArbiters
 337 004c 00000000 		.word	g_arbiterKeys
 338 0050 00000000 		.word	g_arbiters
 339              		.cfi_endproc
 340              	.LFE4:
 341              		.size	insertArbiter, .-insertArbiter
 342              		.section	.text.eraseArbiter,"ax",%progbits
 343              		.align	1
 344              		.p2align 4,,15
 345              		.global	eraseArbiter
 346              		.syntax unified
 347              		.thumb
 348              		.thumb_func
 349              		.fpu fpv5-sp-d16
 350              		.type	eraseArbiter, %function
 351              	eraseArbiter:
 352              	.LFB5:
  78:src/b2d_lite.c **** 
  79:src/b2d_lite.c **** void eraseArbiter(struct ArbiterKey key)
  80:src/b2d_lite.c **** {
 353              		.loc 1 80 1 is_stmt 1 view -0
 354              		.cfi_startproc
 355              		@ args = 0, pretend = 0, frame = 16
 356              		@ frame_needed = 0, uses_anonymous_args = 0
ARM GAS  /tmp/ccEGVymn.s 			page 9


  81:src/b2d_lite.c **** 	for (int i = 0; i < g_numArbiters; i++)
 357              		.loc 1 81 2 view .LVU51
 358              	.LBB30:
 359              		.loc 1 81 7 view .LVU52
 360              	.LVL6:
 361              		.loc 1 81 18 view .LVU53
 362              	.LBE30:
 363              	@ src/b2d_lite.c:80: {
  80:src/b2d_lite.c **** 	for (int i = 0; i < g_numArbiters; i++)
 364              		.loc 1 80 1 is_stmt 0 view .LVU54
 365 0000 2DE9F04F 		push	{r4, r5, r6, r7, r8, r9, r10, fp, lr}	@
 366              	.LCFI13:
 367              		.cfi_def_cfa_offset 36
 368              		.cfi_offset 4, -36
 369              		.cfi_offset 5, -32
 370              		.cfi_offset 6, -28
 371              		.cfi_offset 7, -24
 372              		.cfi_offset 8, -20
 373              		.cfi_offset 9, -16
 374              		.cfi_offset 10, -12
 375              		.cfi_offset 11, -8
 376              		.cfi_offset 14, -4
 377              	.LBB33:
 378              	@ src/b2d_lite.c:81: 	for (int i = 0; i < g_numArbiters; i++)
 379              		.loc 1 81 20 view .LVU55
 380 0004 DFF89880 		ldr	r8, .L29+12	@ tmp158,
 381              	.LBE33:
 382              	@ src/b2d_lite.c:80: {
  80:src/b2d_lite.c **** 	for (int i = 0; i < g_numArbiters; i++)
 383              		.loc 1 80 1 view .LVU56
 384 0008 85B0     		sub	sp, sp, #20	@,,
 385              	.LCFI14:
 386              		.cfi_def_cfa_offset 56
 387              	.LBB34:
 388              	@ src/b2d_lite.c:81: 	for (int i = 0; i < g_numArbiters; i++)
 389              		.loc 1 81 20 view .LVU57
 390 000a D8F80050 		ldr	r5, [r8]	@ prephitmp_8, g_numArbiters
 391              	.LBE34:
 392              	@ src/b2d_lite.c:80: {
  80:src/b2d_lite.c **** 	for (int i = 0; i < g_numArbiters; i++)
 393              		.loc 1 80 1 view .LVU58
 394 000e 04AB     		add	r3, sp, #16	@ tmp171,,
 395              	.LBB35:
 396              	@ src/b2d_lite.c:81: 	for (int i = 0; i < g_numArbiters; i++)
 397              		.loc 1 81 2 view .LVU59
 398 0010 002D     		cmp	r5, #0	@ prephitmp_8,
 399              	.LBE35:
 400              	@ src/b2d_lite.c:80: {
  80:src/b2d_lite.c **** 	for (int i = 0; i < g_numArbiters; i++)
 401              		.loc 1 80 1 view .LVU60
 402 0012 03E90300 		stmdb	r3, {r0, r1}	@ tmp171,,
 403              	.LBB36:
 404              	@ src/b2d_lite.c:81: 	for (int i = 0; i < g_numArbiters; i++)
 405              		.loc 1 81 2 view .LVU61
 406 0016 3ADD     		ble	.L16		@,
 407 0018 1E4E     		ldr	r6, .L29	@ tmp157,
 408              	@ src/b2d_lite.c:81: 	for (int i = 0; i < g_numArbiters; i++)
ARM GAS  /tmp/ccEGVymn.s 			page 10


 409              		.loc 1 81 11 view .LVU62
 410 001a 0024     		movs	r4, #0	@ i,
 411 001c DDF80890 		ldr	r9, [sp, #8]	@ pretmp_21, key.body1
 412              	@ src/b2d_lite.c:84: 			g_arbiterKeys[i].body2 == key.body2)
  82:src/b2d_lite.c **** 	{
  83:src/b2d_lite.c **** 		if (g_arbiterKeys[i].body1 == key.body1 &&
  84:src/b2d_lite.c **** 			g_arbiterKeys[i].body2 == key.body2)
 413              		.loc 1 84 20 view .LVU63
 414 0020 06F1040B 		add	fp, r6, #4	@ tmp160, tmp157,
 415 0024 04E0     		b	.L24		@
 416              	.LVL7:
 417              	.L20:
 418              		.loc 1 84 20 view .LVU64
 419 0026 D8F80050 		ldr	r5, [r8]	@ prephitmp_8, g_numArbiters
  81:src/b2d_lite.c **** 	{
 420              		.loc 1 81 37 is_stmt 1 view .LVU65
 421              	@ src/b2d_lite.c:81: 	for (int i = 0; i < g_numArbiters; i++)
  81:src/b2d_lite.c **** 	{
 422              		.loc 1 81 38 is_stmt 0 view .LVU66
 423 002a 0134     		adds	r4, r4, #1	@ i, i,
 424              	.LVL8:
  81:src/b2d_lite.c **** 	{
 425              		.loc 1 81 18 is_stmt 1 view .LVU67
 426              	@ src/b2d_lite.c:81: 	for (int i = 0; i < g_numArbiters; i++)
  81:src/b2d_lite.c **** 	{
 427              		.loc 1 81 2 is_stmt 0 view .LVU68
 428 002c A542     		cmp	r5, r4	@ prephitmp_8, i
 429 002e 2EDD     		ble	.L16		@,
 430              	.LVL9:
 431              	.L24:
  83:src/b2d_lite.c **** 			g_arbiterKeys[i].body2 == key.body2)
 432              		.loc 1 83 3 is_stmt 1 view .LVU69
 433              	@ src/b2d_lite.c:83: 		if (g_arbiterKeys[i].body1 == key.body1 &&
  83:src/b2d_lite.c **** 			g_arbiterKeys[i].body2 == key.body2)
 434              		.loc 1 83 6 is_stmt 0 view .LVU70
 435 0030 56F83410 		ldr	r1, [r6, r4, lsl #3]	@ MEM[symbol: g_arbiterKeys, index: _44, step: 8, offset: 0B], MEM[symbol
 436              	@ src/b2d_lite.c:83: 		if (g_arbiterKeys[i].body1 == key.body1 &&
  83:src/b2d_lite.c **** 			g_arbiterKeys[i].body2 == key.body2)
 437              		.loc 1 83 23 view .LVU71
 438 0034 E300     		lsls	r3, r4, #3	@ tmp132, i,
 439 0036 06EBC402 		add	r2, r6, r4, lsl #3	@ tmp133, tmp157, i,
 440              	@ src/b2d_lite.c:83: 		if (g_arbiterKeys[i].body1 == key.body1 &&
  83:src/b2d_lite.c **** 			g_arbiterKeys[i].body2 == key.body2)
 441              		.loc 1 83 6 view .LVU72
 442 003a 4945     		cmp	r1, r9	@ MEM[symbol: g_arbiterKeys, index: _44, step: 8, offset: 0B], pretmp_21
 443 003c F3D1     		bne	.L20		@,
 444              	@ src/b2d_lite.c:83: 		if (g_arbiterKeys[i].body1 == key.body1 &&
  83:src/b2d_lite.c **** 			g_arbiterKeys[i].body2 == key.body2)
 445              		.loc 1 83 43 discriminator 1 view .LVU73
 446 003e 5BF83400 		ldr	r0, [fp, r4, lsl #3]	@ MEM[symbol: g_arbiterKeys, index: _44, step: 8, offset: 4B], MEM[symbol
 447 0042 0399     		ldr	r1, [sp, #12]	@ key.body2, key.body2
 448 0044 8842     		cmp	r0, r1	@ MEM[symbol: g_arbiterKeys, index: _44, step: 8, offset: 4B], key.body2
 449 0046 EED1     		bne	.L20		@,
 450              	.LVL10:
 451              	.LBB31:
  85:src/b2d_lite.c **** 		{
  86:src/b2d_lite.c **** 			for (int j = i; j < g_numArbiters - 1; j++)
ARM GAS  /tmp/ccEGVymn.s 			page 11


 452              		.loc 1 86 20 is_stmt 1 view .LVU74
 453              	@ src/b2d_lite.c:86: 			for (int j = i; j < g_numArbiters - 1; j++)
 454              		.loc 1 86 38 is_stmt 0 view .LVU75
 455 0048 691E     		subs	r1, r5, #1	@ _23, prephitmp_8,
 456              	@ src/b2d_lite.c:86: 			for (int j = i; j < g_numArbiters - 1; j++)
 457              		.loc 1 86 4 view .LVU76
 458 004a A142     		cmp	r1, r4	@ _23, i
 459              	@ src/b2d_lite.c:86: 			for (int j = i; j < g_numArbiters - 1; j++)
 460              		.loc 1 86 38 view .LVU77
 461 004c 0191     		str	r1, [sp, #4]	@ _23, %sfp
 462              	@ src/b2d_lite.c:86: 			for (int j = i; j < g_numArbiters - 1; j++)
 463              		.loc 1 86 4 view .LVU78
 464 004e 17DD     		ble	.L23		@,
 465 0050 1149     		ldr	r1, .L29+4	@ tmp177,
 466 0052 2344     		add	r3, r3, r4	@ tmp146, i
 467 0054 01EBC505 		add	r5, r1, r5, lsl #3	@ _41, tmp177, prephitmp_8,
 468 0058 1049     		ldr	r1, .L29+8	@ tmp178,
 469 005a 01EB031C 		add	ip, r1, r3, lsl #4	@ ivtmp.68, tmp178, tmp146,
 470              	.LVL11:
 471              	.L22:
  87:src/b2d_lite.c **** 			{
  88:src/b2d_lite.c **** 				g_arbiterKeys[j] = g_arbiterKeys[j + 1];
 472              		.loc 1 88 5 is_stmt 1 discriminator 3 view .LVU79
 473              	@ src/b2d_lite.c:88: 				g_arbiterKeys[j] = g_arbiterKeys[j + 1];
 474              		.loc 1 88 22 is_stmt 0 discriminator 3 view .LVU80
 475 005e 02F10807 		add	r7, r2, #8	@ tmp152, ivtmp.67,
 476              	@ src/b2d_lite.c:89: 				g_arbiters[j] = g_arbiters[j + 1];
  89:src/b2d_lite.c **** 				g_arbiters[j] = g_arbiters[j + 1];
 477              		.loc 1 89 19 discriminator 3 view .LVU81
 478 0062 0CF1900A 		add	r10, ip, #144	@ tmp154, ivtmp.68,
 479              	@ src/b2d_lite.c:88: 				g_arbiterKeys[j] = g_arbiterKeys[j + 1];
  88:src/b2d_lite.c **** 				g_arbiters[j] = g_arbiters[j + 1];
 480              		.loc 1 88 22 discriminator 3 view .LVU82
 481 0066 97E80300 		ldm	r7, {r0, r1}	@ tmp152,,
 482 006a 82E80300 		stm	r2, {r0, r1}	@ ivtmp.67,,
 483              		.loc 1 89 5 is_stmt 1 discriminator 3 view .LVU83
 484              	@ src/b2d_lite.c:89: 				g_arbiters[j] = g_arbiters[j + 1];
 485              		.loc 1 89 19 is_stmt 0 discriminator 3 view .LVU84
 486 006e 9022     		movs	r2, #144	@,
 487 0070 6046     		mov	r0, ip	@, ivtmp.68
 488 0072 5146     		mov	r1, r10	@, tmp154
 489 0074 FFF7FEFF 		bl	memcpy		@
 490              	.LVL12:
  86:src/b2d_lite.c **** 			{
 491              		.loc 1 86 43 is_stmt 1 discriminator 3 view .LVU85
  86:src/b2d_lite.c **** 			{
 492              		.loc 1 86 20 discriminator 3 view .LVU86
 493              	@ src/b2d_lite.c:86: 			for (int j = i; j < g_numArbiters - 1; j++)
  86:src/b2d_lite.c **** 			{
 494              		.loc 1 86 4 is_stmt 0 discriminator 3 view .LVU87
 495 0078 AF42     		cmp	r7, r5	@ ivtmp.67, _41
 496 007a 3A46     		mov	r2, r7	@ ivtmp.67, tmp152
 497 007c D446     		mov	ip, r10	@ ivtmp.68, tmp154
 498 007e EED1     		bne	.L22		@,
 499              	.L23:
 500              	.LBE31:
  90:src/b2d_lite.c **** 			}
ARM GAS  /tmp/ccEGVymn.s 			page 12


  91:src/b2d_lite.c **** 			g_numArbiters--;
 501              		.loc 1 91 4 is_stmt 1 view .LVU88
 502              	@ src/b2d_lite.c:91: 			g_numArbiters--;
 503              		.loc 1 91 17 is_stmt 0 view .LVU89
 504 0080 019B     		ldr	r3, [sp, #4]	@ _23, %sfp
 505              	@ src/b2d_lite.c:81: 	for (int i = 0; i < g_numArbiters; i++)
  81:src/b2d_lite.c **** 	{
 506              		.loc 1 81 38 view .LVU90
 507 0082 0134     		adds	r4, r4, #1	@ i, i,
 508              	.LVL13:
 509              	.LBB32:
 510              	@ src/b2d_lite.c:86: 			for (int j = i; j < g_numArbiters - 1; j++)
  86:src/b2d_lite.c **** 			{
 511              		.loc 1 86 38 view .LVU91
 512 0084 1D46     		mov	r5, r3	@ prephitmp_8, _23
 513              	.LBE32:
  81:src/b2d_lite.c **** 	{
 514              		.loc 1 81 37 is_stmt 1 view .LVU92
 515              	.LVL14:
  81:src/b2d_lite.c **** 	{
 516              		.loc 1 81 18 view .LVU93
 517              	@ src/b2d_lite.c:91: 			g_numArbiters--;
 518              		.loc 1 91 17 is_stmt 0 view .LVU94
 519 0086 C8F80030 		str	r3, [r8]	@ _23, g_numArbiters
 520              	@ src/b2d_lite.c:81: 	for (int i = 0; i < g_numArbiters; i++)
  81:src/b2d_lite.c **** 	{
 521              		.loc 1 81 2 view .LVU95
 522 008a A542     		cmp	r5, r4	@ prephitmp_8, i
 523 008c D0DC     		bgt	.L24		@,
 524              	.LVL15:
 525              	.L16:
  81:src/b2d_lite.c **** 	{
 526              		.loc 1 81 2 view .LVU96
 527              	.LBE36:
 528              	@ src/b2d_lite.c:94: }
  92:src/b2d_lite.c **** 		}
  93:src/b2d_lite.c **** 	}
  94:src/b2d_lite.c **** }
 529              		.loc 1 94 1 view .LVU97
 530 008e 05B0     		add	sp, sp, #20	@,,
 531              	.LCFI15:
 532              		.cfi_def_cfa_offset 36
 533              		@ sp needed	@
 534 0090 BDE8F08F 		pop	{r4, r5, r6, r7, r8, r9, r10, fp, pc}	@
 535              	.L30:
 536              		.align	2
 537              	.L29:
 538 0094 00000000 		.word	g_arbiterKeys
 539 0098 F8FFFFFF 		.word	g_arbiterKeys-8
 540 009c 00000000 		.word	g_arbiters
 541 00a0 00000000 		.word	g_numArbiters
 542              		.cfi_endproc
 543              	.LFE5:
 544              		.size	eraseArbiter, .-eraseArbiter
 545              		.section	.text.initContact,"ax",%progbits
 546              		.align	1
 547              		.p2align 4,,15
ARM GAS  /tmp/ccEGVymn.s 			page 13


 548              		.global	initContact
 549              		.syntax unified
 550              		.thumb
 551              		.thumb_func
 552              		.fpu fpv5-sp-d16
 553              		.type	initContact, %function
 554              	initContact:
 555              	.LVL16:
 556              	.LFB6:
  95:src/b2d_lite.c **** 
  96:src/b2d_lite.c **** void initContact(struct Contact *c)
  97:src/b2d_lite.c **** {
 557              		.loc 1 97 1 is_stmt 1 view -0
 558              		.cfi_startproc
 559              		@ args = 0, pretend = 0, frame = 0
 560              		@ frame_needed = 0, uses_anonymous_args = 0
 561              		@ link register save eliminated.
  98:src/b2d_lite.c **** 	c->Pn = 0.0f;
 562              		.loc 1 98 2 view .LVU99
 563              	@ src/b2d_lite.c:98: 	c->Pn = 0.0f;
 564              		.loc 1 98 8 is_stmt 0 view .LVU100
 565 0000 0023     		movs	r3, #0	@ tmp111,
 566 0002 4362     		str	r3, [r0, #36]	@ float	@ tmp111, c_2(D)->Pn
  99:src/b2d_lite.c **** 	c->Pt = 0.0f;
 567              		.loc 1 99 2 is_stmt 1 view .LVU101
 568              	@ src/b2d_lite.c:99: 	c->Pt = 0.0f;
 569              		.loc 1 99 8 is_stmt 0 view .LVU102
 570 0004 8362     		str	r3, [r0, #40]	@ float	@ tmp111, c_2(D)->Pt
 100:src/b2d_lite.c **** 	c->Pnb = 0.0f;
 571              		.loc 1 100 2 is_stmt 1 view .LVU103
 572              	@ src/b2d_lite.c:100: 	c->Pnb = 0.0f;
 573              		.loc 1 100 9 is_stmt 0 view .LVU104
 574 0006 C362     		str	r3, [r0, #44]	@ float	@ tmp111, c_2(D)->Pnb
 575              	@ src/b2d_lite.c:101: }
 101:src/b2d_lite.c **** }
 576              		.loc 1 101 1 view .LVU105
 577 0008 7047     		bx	lr	@
 578              		.cfi_endproc
 579              	.LFE6:
 580              		.size	initContact, .-initContact
 581 000a 00BF     		.section	.text.UpdateArbiter,"ax",%progbits
 582              		.align	1
 583              		.p2align 4,,15
 584              		.global	UpdateArbiter
 585              		.syntax unified
 586              		.thumb
 587              		.thumb_func
 588              		.fpu fpv5-sp-d16
 589              		.type	UpdateArbiter, %function
 590              	UpdateArbiter:
 591              	.LVL17:
 592              	.LFB7:
 102:src/b2d_lite.c **** 
 103:src/b2d_lite.c **** void UpdateArbiter(struct Arbiter *a, struct Contact *newContacts, int numNewContacts)
 104:src/b2d_lite.c **** {
 593              		.loc 1 104 1 is_stmt 1 view -0
 594              		.cfi_startproc
ARM GAS  /tmp/ccEGVymn.s 			page 14


 595              		@ args = 0, pretend = 0, frame = 136
 596              		@ frame_needed = 0, uses_anonymous_args = 0
 597              		.loc 1 104 1 is_stmt 0 view .LVU107
 598 0000 2DE9F04F 		push	{r4, r5, r6, r7, r8, r9, r10, fp, lr}	@
 599              	.LCFI16:
 600              		.cfi_def_cfa_offset 36
 601              		.cfi_offset 4, -36
 602              		.cfi_offset 5, -32
 603              		.cfi_offset 6, -28
 604              		.cfi_offset 7, -24
 605              		.cfi_offset 8, -20
 606              		.cfi_offset 9, -16
 607              		.cfi_offset 10, -12
 608              		.cfi_offset 11, -8
 609              		.cfi_offset 14, -4
 610              	.LBB37:
 611              	.LBB38:
 612              	@ src/b2d_lite.c:98: 	c->Pn = 0.0f;
  98:src/b2d_lite.c **** 	c->Pt = 0.0f;
 613              		.loc 1 98 8 view .LVU108
 614 0004 0023     		movs	r3, #0	@ tmp133,
 615              	.LBE38:
 616              	.LBE37:
 617              	@ src/b2d_lite.c:104: {
 618              		.loc 1 104 1 view .LVU109
 619 0006 A3B0     		sub	sp, sp, #140	@,,
 620              	.LCFI17:
 621              		.cfi_def_cfa_offset 176
 622              	.LBB40:
 623              	@ src/b2d_lite.c:109: 	for (int i = 0; i < numNewContacts; ++i)
 105:src/b2d_lite.c **** 	struct Contact mergedContacts[2];
 106:src/b2d_lite.c **** 	initContact(&mergedContacts[0]);
 107:src/b2d_lite.c **** 	initContact(&mergedContacts[1]);
 108:src/b2d_lite.c **** 
 109:src/b2d_lite.c **** 	for (int i = 0; i < numNewContacts; ++i)
 624              		.loc 1 109 2 view .LVU110
 625 0008 B2F10009 		subs	r9, r2, #0	@ numNewContacts, tmp161
 626              	.LBE40:
 627              	@ src/b2d_lite.c:104: {
 104:src/b2d_lite.c **** 	struct Contact mergedContacts[2];
 628              		.loc 1 104 1 view .LVU111
 629 000c 8046     		mov	r8, r0	@ a, tmp159
 105:src/b2d_lite.c **** 	struct Contact mergedContacts[2];
 630              		.loc 1 105 2 is_stmt 1 view .LVU112
 106:src/b2d_lite.c **** 	initContact(&mergedContacts[1]);
 631              		.loc 1 106 2 view .LVU113
 632              	.LVL18:
 633              	.LBB51:
 634              	.LBI37:
  96:src/b2d_lite.c **** {
 635              		.loc 1 96 6 view .LVU114
 636              	.LBB39:
  98:src/b2d_lite.c **** 	c->Pt = 0.0f;
 637              		.loc 1 98 2 view .LVU115
 638              	@ src/b2d_lite.c:98: 	c->Pn = 0.0f;
  98:src/b2d_lite.c **** 	c->Pt = 0.0f;
 639              		.loc 1 98 8 is_stmt 0 view .LVU116
ARM GAS  /tmp/ccEGVymn.s 			page 15


 640 000e 0B93     		str	r3, [sp, #44]	@ float	@ tmp133, MEM[(struct Contact *)&mergedContacts].Pn
  99:src/b2d_lite.c **** 	c->Pnb = 0.0f;
 641              		.loc 1 99 2 is_stmt 1 view .LVU117
 642              	@ src/b2d_lite.c:99: 	c->Pt = 0.0f;
  99:src/b2d_lite.c **** 	c->Pnb = 0.0f;
 643              		.loc 1 99 8 is_stmt 0 view .LVU118
 644 0010 0C93     		str	r3, [sp, #48]	@ float	@ tmp133, MEM[(struct Contact *)&mergedContacts].Pt
 100:src/b2d_lite.c **** }
 645              		.loc 1 100 2 is_stmt 1 view .LVU119
 646              	@ src/b2d_lite.c:100: 	c->Pnb = 0.0f;
 100:src/b2d_lite.c **** }
 647              		.loc 1 100 9 is_stmt 0 view .LVU120
 648 0012 0D93     		str	r3, [sp, #52]	@ float	@ tmp133, MEM[(struct Contact *)&mergedContacts].Pnb
 649              	.LVL19:
 100:src/b2d_lite.c **** }
 650              		.loc 1 100 9 view .LVU121
 651              	.LBE39:
 652              	.LBE51:
 107:src/b2d_lite.c **** 
 653              		.loc 1 107 2 is_stmt 1 view .LVU122
 654              	.LBB52:
 655              	.LBI52:
  96:src/b2d_lite.c **** {
 656              		.loc 1 96 6 view .LVU123
 657              	.LBB53:
  98:src/b2d_lite.c **** 	c->Pt = 0.0f;
 658              		.loc 1 98 2 view .LVU124
 659              	@ src/b2d_lite.c:98: 	c->Pn = 0.0f;
  98:src/b2d_lite.c **** 	c->Pt = 0.0f;
 660              		.loc 1 98 8 is_stmt 0 view .LVU125
 661 0014 1B93     		str	r3, [sp, #108]	@ float	@ tmp133, MEM[(struct Contact *)&mergedContacts + 64B].Pn
  99:src/b2d_lite.c **** 	c->Pnb = 0.0f;
 662              		.loc 1 99 2 is_stmt 1 view .LVU126
 663              	@ src/b2d_lite.c:99: 	c->Pt = 0.0f;
  99:src/b2d_lite.c **** 	c->Pnb = 0.0f;
 664              		.loc 1 99 8 is_stmt 0 view .LVU127
 665 0016 1C93     		str	r3, [sp, #112]	@ float	@ tmp133, MEM[(struct Contact *)&mergedContacts + 64B].Pt
 100:src/b2d_lite.c **** }
 666              		.loc 1 100 2 is_stmt 1 view .LVU128
 667              	@ src/b2d_lite.c:100: 	c->Pnb = 0.0f;
 100:src/b2d_lite.c **** }
 668              		.loc 1 100 9 is_stmt 0 view .LVU129
 669 0018 1D93     		str	r3, [sp, #116]	@ float	@ tmp133, MEM[(struct Contact *)&mergedContacts + 64B].Pnb
 670              	.LVL20:
 100:src/b2d_lite.c **** }
 671              		.loc 1 100 9 view .LVU130
 672              	.LBE53:
 673              	.LBE52:
 674              		.loc 1 109 2 is_stmt 1 view .LVU131
 675              	.LBB54:
 676              		.loc 1 109 7 view .LVU132
 677              		.loc 1 109 18 view .LVU133
 678              	@ src/b2d_lite.c:109: 	for (int i = 0; i < numNewContacts; ++i)
 679              		.loc 1 109 2 is_stmt 0 view .LVU134
 680 001a 4EDD     		ble	.L40		@,
 681              	.LBB41:
 682              	.LBB42:
ARM GAS  /tmp/ccEGVymn.s 			page 16


 683              	@ src/b2d_lite.c:136: 				c->Pn = 0.0f;
 110:src/b2d_lite.c **** 	{
 111:src/b2d_lite.c **** 		struct Contact *cNew = newContacts + i;
 112:src/b2d_lite.c **** 		int k = -1;
 113:src/b2d_lite.c **** 		for (int j = 0; j < a->numContacts; ++j)
 114:src/b2d_lite.c **** 		{
 115:src/b2d_lite.c **** 			struct Contact *cOld = a->contacts + j;
 116:src/b2d_lite.c **** 			if (cNew->feature.value == cOld->feature.value)
 117:src/b2d_lite.c **** 			{
 118:src/b2d_lite.c **** 				k = j;
 119:src/b2d_lite.c **** 				break;
 120:src/b2d_lite.c **** 			}
 121:src/b2d_lite.c **** 		}
 122:src/b2d_lite.c **** 
 123:src/b2d_lite.c **** 		if (k > -1)
 124:src/b2d_lite.c **** 		{
 125:src/b2d_lite.c **** 			struct Contact *c = mergedContacts + i;
 126:src/b2d_lite.c **** 			struct Contact *cOld = a->contacts + k;
 127:src/b2d_lite.c **** 			*c = *cNew;
 128:src/b2d_lite.c **** 			if (warmStarting)
 129:src/b2d_lite.c **** 			{
 130:src/b2d_lite.c **** 				c->Pn = cOld->Pn;
 131:src/b2d_lite.c **** 				c->Pt = cOld->Pt;
 132:src/b2d_lite.c **** 				c->Pnb = cOld->Pnb;
 133:src/b2d_lite.c **** 			}
 134:src/b2d_lite.c **** 			else
 135:src/b2d_lite.c **** 			{
 136:src/b2d_lite.c **** 				c->Pn = 0.0f;
 684              		.loc 1 136 11 view .LVU135
 685 001c 07EE903A 		vmov	s15, r3	@ tmp157, tmp133
 686 0020 8C46     		mov	ip, r1	@ ivtmp.101, newContacts
 687 0022 4FEA8913 		lsl	r3, r9, #6	@ _56, numNewContacts,
 688 0026 D0F88070 		ldr	r7, [r0, #128]	@ pretmp_54, a_25(D)->numContacts
 689 002a 01EB891A 		add	r10, r1, r9, lsl #6	@ _65, ivtmp.101, numNewContacts,
 690 002e 0DF1080E 		add	lr, sp, #8	@ ivtmp.100,,
 691              	@ src/b2d_lite.c:128: 			if (warmStarting)
 128:src/b2d_lite.c **** 			{
 692              		.loc 1 128 8 view .LVU136
 693 0032 DFF8B8B0 		ldr	fp, .L51	@ tmp156,
 694 0036 0193     		str	r3, [sp, #4]	@ _56, %sfp
 695              	.LVL21:
 696              	.L38:
 128:src/b2d_lite.c **** 			{
 697              		.loc 1 128 8 view .LVU137
 698              	.LBE42:
 111:src/b2d_lite.c **** 		int k = -1;
 699              		.loc 1 111 3 is_stmt 1 view .LVU138
 112:src/b2d_lite.c **** 		for (int j = 0; j < a->numContacts; ++j)
 700              		.loc 1 112 3 view .LVU139
 113:src/b2d_lite.c **** 		{
 701              		.loc 1 113 3 view .LVU140
 702              	.LBB43:
 113:src/b2d_lite.c **** 		{
 703              		.loc 1 113 8 view .LVU141
 113:src/b2d_lite.c **** 		{
 704              		.loc 1 113 19 view .LVU142
 705              	@ src/b2d_lite.c:113: 		for (int j = 0; j < a->numContacts; ++j)
ARM GAS  /tmp/ccEGVymn.s 			page 17


 113:src/b2d_lite.c **** 		{
 706              		.loc 1 113 3 is_stmt 0 view .LVU143
 707 0038 002F     		cmp	r7, #0	@ pretmp_54,
 708 003a 43DD     		ble	.L34		@,
 709              	.LBB44:
 710              	@ src/b2d_lite.c:116: 			if (cNew->feature.value == cOld->feature.value)
 116:src/b2d_lite.c **** 			{
 711              		.loc 1 116 21 view .LVU144
 712 003c DCF83C10 		ldr	r1, [ip, #60]	@ _6, MEM[base: _76, offset: 60B]
 713 0040 4446     		mov	r4, r8	@ ivtmp.95, a
 714              	.LBE44:
 715              	@ src/b2d_lite.c:113: 		for (int j = 0; j < a->numContacts; ++j)
 113:src/b2d_lite.c **** 		{
 716              		.loc 1 113 12 view .LVU145
 717 0042 0023     		movs	r3, #0	@ j,
 718 0044 03E0     		b	.L36		@
 719              	.LVL22:
 720              	.L49:
 721              	@ src/b2d_lite.c:113: 		for (int j = 0; j < a->numContacts; ++j)
 113:src/b2d_lite.c **** 		{
 722              		.loc 1 113 3 discriminator 2 view .LVU146
 723 0046 BB42     		cmp	r3, r7	@ j, pretmp_54
 724 0048 04F14004 		add	r4, r4, #64	@ ivtmp.95, ivtmp.95,
 725              	.LVL23:
 113:src/b2d_lite.c **** 		{
 726              		.loc 1 113 3 discriminator 2 view .LVU147
 727 004c 3AD0     		beq	.L34		@,
 728              	.LVL24:
 729              	.L36:
 730              	.LBB45:
 115:src/b2d_lite.c **** 			if (cNew->feature.value == cOld->feature.value)
 731              		.loc 1 115 4 is_stmt 1 view .LVU148
 116:src/b2d_lite.c **** 			{
 732              		.loc 1 116 4 view .LVU149
 733              	.LBE45:
 113:src/b2d_lite.c **** 		{
 734              		.loc 1 113 39 view .LVU150
 735              	.LBB46:
 736              	@ src/b2d_lite.c:116: 			if (cNew->feature.value == cOld->feature.value)
 116:src/b2d_lite.c **** 			{
 737              		.loc 1 116 7 is_stmt 0 view .LVU151
 738 004e E26B     		ldr	r2, [r4, #60]	@ MEM[base: cOld_32, offset: 60B], MEM[base: cOld_32, offset: 60B]
 739              	.LBE46:
 740              	@ src/b2d_lite.c:113: 		for (int j = 0; j < a->numContacts; ++j)
 113:src/b2d_lite.c **** 		{
 741              		.loc 1 113 39 view .LVU152
 742 0050 0133     		adds	r3, r3, #1	@ j, j,
 743              	.LVL25:
 113:src/b2d_lite.c **** 		{
 744              		.loc 1 113 19 is_stmt 1 view .LVU153
 745              	.LBB47:
 746              	@ src/b2d_lite.c:116: 			if (cNew->feature.value == cOld->feature.value)
 116:src/b2d_lite.c **** 			{
 747              		.loc 1 116 7 is_stmt 0 view .LVU154
 748 0052 9142     		cmp	r1, r2	@ _6, MEM[base: cOld_32, offset: 60B]
 749 0054 F7D1     		bne	.L49		@,
 750              	.LVL26:
ARM GAS  /tmp/ccEGVymn.s 			page 18


 116:src/b2d_lite.c **** 			{
 751              		.loc 1 116 7 view .LVU155
 752              	.LBE47:
 753              	.LBE43:
 123:src/b2d_lite.c **** 		{
 754              		.loc 1 123 3 is_stmt 1 view .LVU156
 755              	.LBB48:
 125:src/b2d_lite.c **** 			struct Contact *cOld = a->contacts + k;
 756              		.loc 1 125 4 view .LVU157
 126:src/b2d_lite.c **** 			*c = *cNew;
 757              		.loc 1 126 4 view .LVU158
 127:src/b2d_lite.c **** 			if (warmStarting)
 758              		.loc 1 127 4 view .LVU159
 759              	@ src/b2d_lite.c:127: 			*c = *cNew;
 127:src/b2d_lite.c **** 			if (warmStarting)
 760              		.loc 1 127 7 is_stmt 0 view .LVU160
 761 0056 6646     		mov	r6, ip	@ _76, ivtmp.101
 762 0058 7546     		mov	r5, lr	@ _67, ivtmp.100
 763 005a 0FCE     		ldmia	r6!, {r0, r1, r2, r3}	@ _76,,,,
 764              	.LVL27:
 127:src/b2d_lite.c **** 			if (warmStarting)
 765              		.loc 1 127 7 view .LVU161
 766 005c 0FC5     		stmia	r5!, {r0, r1, r2, r3}	@ _67,,,,
 767 005e 0FCE     		ldmia	r6!, {r0, r1, r2, r3}	@ _76,,,,
 768 0060 0FC5     		stmia	r5!, {r0, r1, r2, r3}	@ _67,,,,
 769 0062 0FCE     		ldmia	r6!, {r0, r1, r2, r3}	@ _76,,,,
 770 0064 0FC5     		stmia	r5!, {r0, r1, r2, r3}	@ _67,,,,
 771 0066 96E80F00 		ldm	r6, {r0, r1, r2, r3}	@ _76,,,,
 772 006a 85E80F00 		stm	r5, {r0, r1, r2, r3}	@ _67,,,,
 128:src/b2d_lite.c **** 			{
 773              		.loc 1 128 4 is_stmt 1 view .LVU162
 774              	@ src/b2d_lite.c:128: 			if (warmStarting)
 128:src/b2d_lite.c **** 			{
 775              		.loc 1 128 7 is_stmt 0 view .LVU163
 776 006e DBF80030 		ldr	r3, [fp]	@ warmStarting, warmStarting
 777 0072 002B     		cmp	r3, #0	@ warmStarting
 778 0074 33D0     		beq	.L50	@
 130:src/b2d_lite.c **** 				c->Pt = cOld->Pt;
 779              		.loc 1 130 5 is_stmt 1 view .LVU164
 780              	@ src/b2d_lite.c:130: 				c->Pn = cOld->Pn;
 130:src/b2d_lite.c **** 				c->Pt = cOld->Pt;
 781              		.loc 1 130 11 is_stmt 0 view .LVU165
 782 0076 616A     		ldr	r1, [r4, #36]	@ float	@ cOld_32->Pn, cOld_32->Pn
 783              	@ src/b2d_lite.c:131: 				c->Pt = cOld->Pt;
 131:src/b2d_lite.c **** 				c->Pnb = cOld->Pnb;
 784              		.loc 1 131 11 view .LVU166
 785 0078 A26A     		ldr	r2, [r4, #40]	@ float	@ cOld_32->Pt, cOld_32->Pt
 786              	@ src/b2d_lite.c:132: 				c->Pnb = cOld->Pnb;
 132:src/b2d_lite.c **** 			}
 787              		.loc 1 132 12 view .LVU167
 788 007a E36A     		ldr	r3, [r4, #44]	@ float	@ cOld_32->Pnb, cOld_32->Pnb
 789              	@ src/b2d_lite.c:130: 				c->Pn = cOld->Pn;
 130:src/b2d_lite.c **** 				c->Pt = cOld->Pt;
 790              		.loc 1 130 11 view .LVU168
 791 007c CEF82410 		str	r1, [lr, #36]	@ float	@ cOld_32->Pn, MEM[base: _67, offset: 36B]
 131:src/b2d_lite.c **** 				c->Pnb = cOld->Pnb;
 792              		.loc 1 131 5 is_stmt 1 view .LVU169
ARM GAS  /tmp/ccEGVymn.s 			page 19


 793              	@ src/b2d_lite.c:131: 				c->Pt = cOld->Pt;
 131:src/b2d_lite.c **** 				c->Pnb = cOld->Pnb;
 794              		.loc 1 131 11 is_stmt 0 view .LVU170
 795 0080 CEF82820 		str	r2, [lr, #40]	@ float	@ cOld_32->Pt, MEM[base: _67, offset: 40B]
 132:src/b2d_lite.c **** 			}
 796              		.loc 1 132 5 is_stmt 1 view .LVU171
 797              	@ src/b2d_lite.c:132: 				c->Pnb = cOld->Pnb;
 132:src/b2d_lite.c **** 			}
 798              		.loc 1 132 12 is_stmt 0 view .LVU172
 799 0084 CEF82C30 		str	r3, [lr, #44]	@ float	@ cOld_32->Pnb, MEM[base: _67, offset: 44B]
 800              	.LVL28:
 801              	.L37:
 132:src/b2d_lite.c **** 			}
 802              		.loc 1 132 12 view .LVU173
 803              	.LBE48:
 804              	.LBE41:
 109:src/b2d_lite.c **** 	{
 805              		.loc 1 109 38 is_stmt 1 discriminator 2 view .LVU174
 109:src/b2d_lite.c **** 	{
 806              		.loc 1 109 18 discriminator 2 view .LVU175
 807 0088 0CF1400C 		add	ip, ip, #64	@ ivtmp.101, ivtmp.101,
 808              	.LVL29:
 109:src/b2d_lite.c **** 	{
 809              		.loc 1 109 18 is_stmt 0 discriminator 2 view .LVU176
 810 008c 0EF1400E 		add	lr, lr, #64	@ ivtmp.100, ivtmp.100,
 811              	@ src/b2d_lite.c:109: 	for (int i = 0; i < numNewContacts; ++i)
 109:src/b2d_lite.c **** 	{
 812              		.loc 1 109 2 discriminator 2 view .LVU177
 813 0090 D445     		cmp	ip, r10	@ ivtmp.101, _65
 814 0092 D1D1     		bne	.L38		@,
 815 0094 0026     		movs	r6, #0	@ ivtmp.92,
 816 0096 019F     		ldr	r7, [sp, #4]	@ _56, %sfp
 817              	.L39:
 818              	.LBE54:
 819              	.LBB55:
 137:src/b2d_lite.c **** 				c->Pt = 0.0f;
 138:src/b2d_lite.c **** 				c->Pnb = 0.0f;
 139:src/b2d_lite.c **** 			}
 140:src/b2d_lite.c **** 		}
 141:src/b2d_lite.c **** 		else
 142:src/b2d_lite.c **** 		{
 143:src/b2d_lite.c **** 			mergedContacts[i] = newContacts[i];
 144:src/b2d_lite.c **** 		}
 145:src/b2d_lite.c **** 	}
 146:src/b2d_lite.c **** 
 147:src/b2d_lite.c **** 	for (int i = 0; i < numNewContacts; ++i)
 148:src/b2d_lite.c **** 		a->contacts[i] = mergedContacts[i];
 820              		.loc 1 148 3 is_stmt 1 discriminator 3 view .LVU178
 821              	@ src/b2d_lite.c:148: 		a->contacts[i] = mergedContacts[i];
 822              		.loc 1 148 18 is_stmt 0 discriminator 3 view .LVU179
 823 0098 02AB     		add	r3, sp, #8	@ tmp183,,
 824 009a 08EB0604 		add	r4, r8, r6	@ tmp147, a, ivtmp.92
 825 009e 9D19     		adds	r5, r3, r6	@ tmp148, tmp183, ivtmp.92
 826 00a0 4036     		adds	r6, r6, #64	@ ivtmp.92, ivtmp.92,
 827 00a2 0FCD     		ldmia	r5!, {r0, r1, r2, r3}	@ tmp148,,,,
 828 00a4 0FC4     		stmia	r4!, {r0, r1, r2, r3}	@ tmp147,,,,
 829 00a6 0FCD     		ldmia	r5!, {r0, r1, r2, r3}	@ tmp148,,,,
ARM GAS  /tmp/ccEGVymn.s 			page 20


 830 00a8 0FC4     		stmia	r4!, {r0, r1, r2, r3}	@ tmp147,,,,
 831 00aa 0FCD     		ldmia	r5!, {r0, r1, r2, r3}	@ tmp148,,,,
 832              	@ src/b2d_lite.c:147: 	for (int i = 0; i < numNewContacts; ++i)
 147:src/b2d_lite.c **** 		a->contacts[i] = mergedContacts[i];
 833              		.loc 1 147 2 discriminator 3 view .LVU180
 834 00ac BE42     		cmp	r6, r7	@ ivtmp.92, _56
 835              	@ src/b2d_lite.c:148: 		a->contacts[i] = mergedContacts[i];
 836              		.loc 1 148 18 discriminator 3 view .LVU181
 837 00ae 0FC4     		stmia	r4!, {r0, r1, r2, r3}	@ tmp147,,,,
 838 00b0 95E80F00 		ldm	r5, {r0, r1, r2, r3}	@ tmp148,,,,
 839 00b4 84E80F00 		stm	r4, {r0, r1, r2, r3}	@ tmp147,,,,
 147:src/b2d_lite.c **** 		a->contacts[i] = mergedContacts[i];
 840              		.loc 1 147 38 is_stmt 1 discriminator 3 view .LVU182
 147:src/b2d_lite.c **** 		a->contacts[i] = mergedContacts[i];
 841              		.loc 1 147 18 discriminator 3 view .LVU183
 842              	@ src/b2d_lite.c:147: 	for (int i = 0; i < numNewContacts; ++i)
 147:src/b2d_lite.c **** 		a->contacts[i] = mergedContacts[i];
 843              		.loc 1 147 2 is_stmt 0 discriminator 3 view .LVU184
 844 00b8 EED1     		bne	.L39		@,
 845              	.LVL30:
 846              	.L40:
 147:src/b2d_lite.c **** 		a->contacts[i] = mergedContacts[i];
 847              		.loc 1 147 2 discriminator 3 view .LVU185
 848              	.LBE55:
 149:src/b2d_lite.c **** 
 150:src/b2d_lite.c **** 	a->numContacts = numNewContacts;
 849              		.loc 1 150 2 is_stmt 1 view .LVU186
 850              	@ src/b2d_lite.c:150: 	a->numContacts = numNewContacts;
 851              		.loc 1 150 17 is_stmt 0 view .LVU187
 852 00ba C8F88090 		str	r9, [r8, #128]	@ numNewContacts, a_25(D)->numContacts
 853              	@ src/b2d_lite.c:151: }
 151:src/b2d_lite.c **** }
 854              		.loc 1 151 1 view .LVU188
 855 00be 23B0     		add	sp, sp, #140	@,,
 856              	.LCFI18:
 857              		.cfi_remember_state
 858              		.cfi_def_cfa_offset 36
 859              		@ sp needed	@
 860 00c0 BDE8F08F 		pop	{r4, r5, r6, r7, r8, r9, r10, fp, pc}	@
 861              	.LVL31:
 862              	.L34:
 863              	.LCFI19:
 864              		.cfi_restore_state
 865              	.LBB56:
 866              	.LBB50:
 123:src/b2d_lite.c **** 		{
 867              		.loc 1 123 3 is_stmt 1 view .LVU189
 143:src/b2d_lite.c **** 		}
 868              		.loc 1 143 4 view .LVU190
 869              	@ src/b2d_lite.c:143: 			mergedContacts[i] = newContacts[i];
 143:src/b2d_lite.c **** 		}
 870              		.loc 1 143 22 is_stmt 0 view .LVU191
 871 00c4 6546     		mov	r5, ip	@ ivtmp.101, ivtmp.101
 872 00c6 7446     		mov	r4, lr	@ ivtmp.100, ivtmp.100
 873 00c8 0FCD     		ldmia	r5!, {r0, r1, r2, r3}	@ ivtmp.101,,,,
 874 00ca 0FC4     		stmia	r4!, {r0, r1, r2, r3}	@ ivtmp.100,,,,
 875 00cc 0FCD     		ldmia	r5!, {r0, r1, r2, r3}	@ ivtmp.101,,,,
ARM GAS  /tmp/ccEGVymn.s 			page 21


 876 00ce 0FC4     		stmia	r4!, {r0, r1, r2, r3}	@ ivtmp.100,,,,
 877 00d0 0FCD     		ldmia	r5!, {r0, r1, r2, r3}	@ ivtmp.101,,,,
 878 00d2 0FC4     		stmia	r4!, {r0, r1, r2, r3}	@ ivtmp.100,,,,
 879 00d4 95E80F00 		ldm	r5, {r0, r1, r2, r3}	@ ivtmp.101,,,,
 880 00d8 84E80F00 		stm	r4, {r0, r1, r2, r3}	@ ivtmp.100,,,,
 881 00dc D4E7     		b	.L37		@
 882              	.LVL32:
 883              	.L50:
 884              	.LBB49:
 136:src/b2d_lite.c **** 				c->Pt = 0.0f;
 885              		.loc 1 136 5 is_stmt 1 view .LVU192
 886              	@ src/b2d_lite.c:136: 				c->Pn = 0.0f;
 136:src/b2d_lite.c **** 				c->Pt = 0.0f;
 887              		.loc 1 136 11 is_stmt 0 view .LVU193
 888 00de CEED097A 		vstr.32	s15, [lr, #36]	@ tmp157, MEM[base: _67, offset: 36B]
 137:src/b2d_lite.c **** 				c->Pnb = 0.0f;
 889              		.loc 1 137 5 is_stmt 1 view .LVU194
 890              	@ src/b2d_lite.c:137: 				c->Pt = 0.0f;
 137:src/b2d_lite.c **** 				c->Pnb = 0.0f;
 891              		.loc 1 137 11 is_stmt 0 view .LVU195
 892 00e2 CEED0A7A 		vstr.32	s15, [lr, #40]	@ tmp157, MEM[base: _67, offset: 40B]
 138:src/b2d_lite.c **** 			}
 893              		.loc 1 138 5 is_stmt 1 view .LVU196
 894              	@ src/b2d_lite.c:138: 				c->Pnb = 0.0f;
 138:src/b2d_lite.c **** 			}
 895              		.loc 1 138 12 is_stmt 0 view .LVU197
 896 00e6 CEED0B7A 		vstr.32	s15, [lr, #44]	@ tmp157, MEM[base: _67, offset: 44B]
 897 00ea CDE7     		b	.L37		@
 898              	.L52:
 899              		.align	2
 900              	.L51:
 901 00ec 00000000 		.word	.LANCHOR0
 902              	.LBE49:
 903              	.LBE50:
 904              	.LBE56:
 905              		.cfi_endproc
 906              	.LFE7:
 907              		.size	UpdateArbiter, .-UpdateArbiter
 908              		.section	.text.BroadPhase,"ax",%progbits
 909              		.align	1
 910              		.p2align 4,,15
 911              		.global	BroadPhase
 912              		.syntax unified
 913              		.thumb
 914              		.thumb_func
 915              		.fpu fpv5-sp-d16
 916              		.type	BroadPhase, %function
 917              	BroadPhase:
 918              	.LFB8:
 152:src/b2d_lite.c **** 
 153:src/b2d_lite.c **** void BroadPhase()
 154:src/b2d_lite.c **** {
 919              		.loc 1 154 1 is_stmt 1 view -0
 920              		.cfi_startproc
 921              		@ args = 0, pretend = 0, frame = 312
 922              		@ frame_needed = 0, uses_anonymous_args = 0
 155:src/b2d_lite.c **** 	for (int i = 0; i < g_numBodies; i++)
ARM GAS  /tmp/ccEGVymn.s 			page 22


 923              		.loc 1 155 2 view .LVU199
 924              	.LBB57:
 925              		.loc 1 155 7 view .LVU200
 926              	.LVL33:
 927              		.loc 1 155 18 view .LVU201
 928              	@ src/b2d_lite.c:155: 	for (int i = 0; i < g_numBodies; i++)
 929              		.loc 1 155 20 is_stmt 0 view .LVU202
 930 0000 5F4B     		ldr	r3, .L82	@ tmp266,
 931 0002 1B68     		ldr	r3, [r3]	@ g_numBodies.14_13, g_numBodies
 932              	@ src/b2d_lite.c:155: 	for (int i = 0; i < g_numBodies; i++)
 933              		.loc 1 155 2 view .LVU203
 934 0004 002B     		cmp	r3, #0	@ g_numBodies.14_13,
 935 0006 40F3B480 		ble	.L77		@,
 936 000a 5E4A     		ldr	r2, .L82+4	@ ivtmp.127,
 937              	.LBE57:
 938              	@ src/b2d_lite.c:154: {
 154:src/b2d_lite.c **** 	for (int i = 0; i < g_numBodies; i++)
 939              		.loc 1 154 1 view .LVU204
 940 000c 2DE9F04F 		push	{r4, r5, r6, r7, r8, r9, r10, fp, lr}	@
 941              	.LCFI20:
 942              		.cfi_def_cfa_offset 36
 943              		.cfi_offset 4, -36
 944              		.cfi_offset 5, -32
 945              		.cfi_offset 6, -28
 946              		.cfi_offset 7, -24
 947              		.cfi_offset 8, -20
 948              		.cfi_offset 9, -16
 949              		.cfi_offset 10, -12
 950              		.cfi_offset 11, -8
 951              		.cfi_offset 14, -4
 952 0010 2DED028B 		vpush.64	{d8}	@
 953              	.LCFI21:
 954              		.cfi_def_cfa_offset 44
 955              		.cfi_offset 80, -44
 956              		.cfi_offset 81, -40
 957 0014 CFB0     		sub	sp, sp, #316	@,,
 958              	.LCFI22:
 959              		.cfi_def_cfa_offset 360
 960              	.LBB92:
 961              	.LBB58:
 962              	.LBB59:
 963              	.LBB60:
 964              	.LBB61:
 965              	.LBB62:
 966              	@ src/b2d_lite.c:98: 	c->Pn = 0.0f;
  98:src/b2d_lite.c **** 	c->Pt = 0.0f;
 967              		.loc 1 98 8 view .LVU205
 968 0016 9FED5C8A 		vldr.32	s16, .L82+8	@ tmp245,
 969              	.LBE62:
 970              	.LBE61:
 971              	.LBB65:
 972              	.LBB66:
 973              	.LBB67:
 974              	@ src/b2d_lite.c:58: 			g_arbiterKeys[i].body2 == key.body2)
  58:src/b2d_lite.c **** 			return &g_arbiters[i];
 975              		.loc 1 58 20 view .LVU206
 976 001a DFF87CB1 		ldr	fp, .L82+24	@ tmp246,
ARM GAS  /tmp/ccEGVymn.s 			page 23


 977 001e 0392     		str	r2, [sp, #12]	@ ivtmp.127, %sfp
 978              	.LBE67:
 979              	.LBE66:
 980              	.LBE65:
 981              	.LBE60:
 982              	.LBE59:
 983              	.LBE58:
 984              	@ src/b2d_lite.c:155: 	for (int i = 0; i < g_numBodies; i++)
 985              		.loc 1 155 11 view .LVU207
 986 0020 0022     		movs	r2, #0	@ i,
 987 0022 0292     		str	r2, [sp, #8]	@ i, %sfp
 988              	.LVL34:
 989              	.L68:
 990              	.LBB90:
 156:src/b2d_lite.c **** 	{
 157:src/b2d_lite.c **** 		struct Body *bi = g_bodies[i];
 991              		.loc 1 157 3 is_stmt 1 view .LVU208
 992              	.LBB85:
 993              	@ src/b2d_lite.c:159: 		for (int j = i + 1; j < g_numBodies; j++)
 158:src/b2d_lite.c **** 
 159:src/b2d_lite.c **** 		for (int j = i + 1; j < g_numBodies; j++)
 994              		.loc 1 159 12 is_stmt 0 view .LVU209
 995 0024 029A     		ldr	r2, [sp, #8]	@ i, %sfp
 996              	.LBE85:
 997              	@ src/b2d_lite.c:157: 		struct Body *bi = g_bodies[i];
 157:src/b2d_lite.c **** 
 998              		.loc 1 157 16 view .LVU210
 999 0026 0398     		ldr	r0, [sp, #12]	@ ivtmp.127, %sfp
 1000              	.LBB86:
 1001              	@ src/b2d_lite.c:159: 		for (int j = i + 1; j < g_numBodies; j++)
 1002              		.loc 1 159 12 view .LVU211
 1003 0028 0132     		adds	r2, r2, #1	@ i, i,
 1004              	.LBE86:
 1005              	@ src/b2d_lite.c:157: 		struct Body *bi = g_bodies[i];
 157:src/b2d_lite.c **** 
 1006              		.loc 1 157 16 view .LVU212
 1007 002a 50F8049B 		ldr	r9, [r0], #4	@ bi, MEM[base: _76, offset: 0B]
 1008              	.LBB87:
 1009              	@ src/b2d_lite.c:159: 		for (int j = i + 1; j < g_numBodies; j++)
 1010              		.loc 1 159 3 view .LVU213
 1011 002e 9342     		cmp	r3, r2	@ g_numBodies.14_13, i
 1012              	@ src/b2d_lite.c:159: 		for (int j = i + 1; j < g_numBodies; j++)
 1013              		.loc 1 159 12 view .LVU214
 1014 0030 0292     		str	r2, [sp, #8]	@ i, %sfp
 1015              	.LVL35:
 1016              		.loc 1 159 12 view .LVU215
 1017              	.LBE87:
 1018              	@ src/b2d_lite.c:157: 		struct Body *bi = g_bodies[i];
 157:src/b2d_lite.c **** 
 1019              		.loc 1 157 16 view .LVU216
 1020 0032 0390     		str	r0, [sp, #12]	@ ivtmp.127, %sfp
 1021              	.LVL36:
 1022              		.loc 1 159 3 is_stmt 1 view .LVU217
 1023              	.LBB88:
 1024              		.loc 1 159 8 view .LVU218
 1025              		.loc 1 159 23 view .LVU219
 1026              	@ src/b2d_lite.c:159: 		for (int j = i + 1; j < g_numBodies; j++)
ARM GAS  /tmp/ccEGVymn.s 			page 24


 1027              		.loc 1 159 3 is_stmt 0 view .LVU220
 1028 0034 67DD     		ble	.L53		@,
 1029 0036 9246     		mov	r10, r2	@ j, i
 1030 0038 0190     		str	r0, [sp, #4]	@ ivtmp.127, %sfp
 1031              	.LVL37:
 1032              	.L57:
 1033              	.LBB83:
 160:src/b2d_lite.c **** 		{
 161:src/b2d_lite.c **** 			struct Body *bj = g_bodies[j];
 1034              		.loc 1 161 4 is_stmt 1 view .LVU221
 1035              	@ src/b2d_lite.c:163: 			if (bi->invMass == 0.0f && bj->invMass == 0.0f)
 162:src/b2d_lite.c **** 
 163:src/b2d_lite.c **** 			if (bi->invMass == 0.0f && bj->invMass == 0.0f)
 1036              		.loc 1 163 7 is_stmt 0 view .LVU222
 1037 003a D9ED0D7A 		vldr.32	s15, [r9, #52]	@ bi_24->invMass, bi_24->invMass
 1038              	@ src/b2d_lite.c:161: 			struct Body *bj = g_bodies[j];
 161:src/b2d_lite.c **** 
 1039              		.loc 1 161 17 view .LVU223
 1040 003e 019B     		ldr	r3, [sp, #4]	@ ivtmp.121, %sfp
 1041              	@ src/b2d_lite.c:163: 			if (bi->invMass == 0.0f && bj->invMass == 0.0f)
 1042              		.loc 1 163 7 view .LVU224
 1043 0040 F5EE407A 		vcmp.f32	s15, #0	@ bi_24->invMass
 1044              	@ src/b2d_lite.c:161: 			struct Body *bj = g_bodies[j];
 161:src/b2d_lite.c **** 
 1045              		.loc 1 161 17 view .LVU225
 1046 0044 53F8045B 		ldr	r5, [r3], #4	@ key$body1, MEM[base: _75, offset: 0B]
 1047              	@ src/b2d_lite.c:163: 			if (bi->invMass == 0.0f && bj->invMass == 0.0f)
 1048              		.loc 1 163 7 view .LVU226
 1049 0048 F1EE10FA 		vmrs	APSR_nzcv, FPSCR
 1050              	@ src/b2d_lite.c:161: 			struct Body *bj = g_bodies[j];
 161:src/b2d_lite.c **** 
 1051              		.loc 1 161 17 view .LVU227
 1052 004c 0193     		str	r3, [sp, #4]	@ ivtmp.121, %sfp
 1053              	.LVL38:
 1054              		.loc 1 163 4 is_stmt 1 view .LVU228
 1055              	@ src/b2d_lite.c:163: 			if (bi->invMass == 0.0f && bj->invMass == 0.0f)
 1056              		.loc 1 163 7 is_stmt 0 view .LVU229
 1057 004e 06D1     		bne	.L56		@,
 1058              	@ src/b2d_lite.c:163: 			if (bi->invMass == 0.0f && bj->invMass == 0.0f)
 1059              		.loc 1 163 28 discriminator 1 view .LVU230
 1060 0050 D5ED0D7A 		vldr.32	s15, [r5, #52]	@ bj_27->invMass, bj_27->invMass
 1061 0054 F5EE407A 		vcmp.f32	s15, #0	@ bj_27->invMass
 1062 0058 F1EE10FA 		vmrs	APSR_nzcv, FPSCR
 1063 005c 4AD0     		beq	.L65		@,
 1064              	.L56:
 164:src/b2d_lite.c **** 				continue;
 165:src/b2d_lite.c **** 
 166:src/b2d_lite.c **** 			struct Arbiter newArb;
 1065              		.loc 1 166 4 is_stmt 1 view .LVU231
 167:src/b2d_lite.c **** 			struct ArbiterKey key;
 1066              		.loc 1 167 4 view .LVU232
 168:src/b2d_lite.c **** 
 169:src/b2d_lite.c **** 			if (bi < bj)
 1067              		.loc 1 169 4 view .LVU233
 1068              	@ src/b2d_lite.c:169: 			if (bi < bj)
 1069              		.loc 1 169 7 is_stmt 0 view .LVU234
 1070 005e A945     		cmp	r9, r5	@ bi, key$body1
ARM GAS  /tmp/ccEGVymn.s 			page 25


 1071              	@ src/b2d_lite.c:171: 				newArb.body1 = bi;
 170:src/b2d_lite.c **** 			{
 171:src/b2d_lite.c **** 				newArb.body1 = bi;
 1072              		.loc 1 171 18 view .LVU235
 1073 0060 06AC     		add	r4, sp, #24	@ tmp238,,
 1074              	@ src/b2d_lite.c:169: 			if (bi < bj)
 169:src/b2d_lite.c **** 			{
 1075              		.loc 1 169 7 view .LVU236
 1076 0062 55D2     		bcs	.L59		@,
 1077              		.loc 1 171 5 is_stmt 1 view .LVU237
 1078 0064 A846     		mov	r8, r5	@ key$body2, key$body1
 1079              	@ src/b2d_lite.c:172: 				newArb.body2 = bj;
 172:src/b2d_lite.c **** 				newArb.body2 = bj;
 1080              		.loc 1 172 18 is_stmt 0 view .LVU238
 1081 0066 C4F88850 		str	r5, [r4, #136]	@ key$body1, newArb.body2
 1082 006a 4D46     		mov	r5, r9	@ key$body1, bi
 1083              	.LVL39:
 1084              	@ src/b2d_lite.c:171: 				newArb.body1 = bi;
 171:src/b2d_lite.c **** 				newArb.body2 = bj;
 1085              		.loc 1 171 18 view .LVU239
 1086 006c C4F88490 		str	r9, [r4, #132]	@ bi, newArb.body1
 1087              		.loc 1 172 5 is_stmt 1 view .LVU240
 173:src/b2d_lite.c **** 				key.body1 = bi;
 1088              		.loc 1 173 5 view .LVU241
 1089              	.LVL40:
 174:src/b2d_lite.c **** 				key.body2 = bj;
 1090              		.loc 1 174 5 view .LVU242
 1091              	.L60:
 175:src/b2d_lite.c **** 			}
 176:src/b2d_lite.c **** 			else
 177:src/b2d_lite.c **** 			{
 178:src/b2d_lite.c **** 				newArb.body1 = bj;
 179:src/b2d_lite.c **** 				newArb.body2 = bi;
 180:src/b2d_lite.c **** 				key.body1 = bj;
 181:src/b2d_lite.c **** 				key.body2 = bi;
 182:src/b2d_lite.c **** 			}
 183:src/b2d_lite.c **** 
 184:src/b2d_lite.c **** 			initContact(&newArb.contacts[0]);
 1092              		.loc 1 184 4 view .LVU243
 1093              	.LBB77:
 1094              	.LBI61:
  96:src/b2d_lite.c **** {
 1095              		.loc 1 96 6 view .LVU244
 1096              	.LBB63:
  98:src/b2d_lite.c **** 	c->Pt = 0.0f;
 1097              		.loc 1 98 2 view .LVU245
 1098              	.LBE63:
 1099              	.LBE77:
 1100              	@ src/b2d_lite.c:187: 			newArb.numContacts = Collide(newArb.contacts, newArb.body1, newArb.body2);
 185:src/b2d_lite.c **** 			initContact(&newArb.contacts[1]);
 186:src/b2d_lite.c **** 
 187:src/b2d_lite.c **** 			newArb.numContacts = Collide(newArb.contacts, newArb.body1, newArb.body2);
 1101              		.loc 1 187 25 is_stmt 0 view .LVU246
 1102 0070 4246     		mov	r2, r8	@, key$body2
 1103 0072 2946     		mov	r1, r5	@, key$body1
 1104 0074 2046     		mov	r0, r4	@, tmp238
 1105              	.LBB78:
ARM GAS  /tmp/ccEGVymn.s 			page 26


 1106              	.LBB64:
 1107              	@ src/b2d_lite.c:98: 	c->Pn = 0.0f;
  98:src/b2d_lite.c **** 	c->Pt = 0.0f;
 1108              		.loc 1 98 8 view .LVU247
 1109 0076 84ED098A 		vstr.32	s16, [r4, #36]	@ tmp245, MEM[(struct Contact *)&newArb].Pn
  99:src/b2d_lite.c **** 	c->Pnb = 0.0f;
 1110              		.loc 1 99 2 is_stmt 1 view .LVU248
 1111              	@ src/b2d_lite.c:99: 	c->Pt = 0.0f;
  99:src/b2d_lite.c **** 	c->Pnb = 0.0f;
 1112              		.loc 1 99 8 is_stmt 0 view .LVU249
 1113 007a 84ED0A8A 		vstr.32	s16, [r4, #40]	@ tmp245, MEM[(struct Contact *)&newArb].Pt
 100:src/b2d_lite.c **** }
 1114              		.loc 1 100 2 is_stmt 1 view .LVU250
 1115              	@ src/b2d_lite.c:100: 	c->Pnb = 0.0f;
 100:src/b2d_lite.c **** }
 1116              		.loc 1 100 9 is_stmt 0 view .LVU251
 1117 007e 84ED0B8A 		vstr.32	s16, [r4, #44]	@ tmp245, MEM[(struct Contact *)&newArb].Pnb
 1118              	.LVL41:
 100:src/b2d_lite.c **** }
 1119              		.loc 1 100 9 view .LVU252
 1120              	.LBE64:
 1121              	.LBE78:
 185:src/b2d_lite.c **** 			initContact(&newArb.contacts[1]);
 1122              		.loc 1 185 4 is_stmt 1 view .LVU253
 1123              	.LBB79:
 1124              	.LBI79:
  96:src/b2d_lite.c **** {
 1125              		.loc 1 96 6 view .LVU254
 1126              	.LBB80:
  98:src/b2d_lite.c **** 	c->Pt = 0.0f;
 1127              		.loc 1 98 2 view .LVU255
 1128              	@ src/b2d_lite.c:98: 	c->Pn = 0.0f;
  98:src/b2d_lite.c **** 	c->Pt = 0.0f;
 1129              		.loc 1 98 8 is_stmt 0 view .LVU256
 1130 0082 84ED198A 		vstr.32	s16, [r4, #100]	@ tmp245, MEM[(struct Contact *)&newArb + 64B].Pn
  99:src/b2d_lite.c **** 	c->Pnb = 0.0f;
 1131              		.loc 1 99 2 is_stmt 1 view .LVU257
 1132              	@ src/b2d_lite.c:99: 	c->Pt = 0.0f;
  99:src/b2d_lite.c **** 	c->Pnb = 0.0f;
 1133              		.loc 1 99 8 is_stmt 0 view .LVU258
 1134 0086 84ED1A8A 		vstr.32	s16, [r4, #104]	@ tmp245, MEM[(struct Contact *)&newArb + 64B].Pt
 100:src/b2d_lite.c **** }
 1135              		.loc 1 100 2 is_stmt 1 view .LVU259
 1136              	@ src/b2d_lite.c:100: 	c->Pnb = 0.0f;
 100:src/b2d_lite.c **** }
 1137              		.loc 1 100 9 is_stmt 0 view .LVU260
 1138 008a 84ED1B8A 		vstr.32	s16, [r4, #108]	@ tmp245, MEM[(struct Contact *)&newArb + 64B].Pnb
 1139              	.LVL42:
 100:src/b2d_lite.c **** }
 1140              		.loc 1 100 9 view .LVU261
 1141              	.LBE80:
 1142              	.LBE79:
 1143              		.loc 1 187 4 is_stmt 1 view .LVU262
 1144              	@ src/b2d_lite.c:187: 			newArb.numContacts = Collide(newArb.contacts, newArb.body1, newArb.body2);
 1145              		.loc 1 187 25 is_stmt 0 view .LVU263
 1146 008e FFF7FEFF 		bl	Collide		@
 1147              	.LVL43:
ARM GAS  /tmp/ccEGVymn.s 			page 27


 1148              	@ src/b2d_lite.c:188: 			newArb.friction = sqrtf(newArb.body1->friction * newArb.body2->friction);
 188:src/b2d_lite.c **** 			newArb.friction = sqrtf(newArb.body1->friction * newArb.body2->friction);
 1149              		.loc 1 188 65 view .LVU264
 1150 0092 D4E92123 		ldrd	r2, r3, [r4, #132]	@ newArb.body1, newArb.body2, tmp238,
 1151              	@ src/b2d_lite.c:188: 			newArb.friction = sqrtf(newArb.body1->friction * newArb.body2->friction);
 1152              		.loc 1 188 22 view .LVU265
 1153 0096 92ED0B0A 		vldr.32	s0, [r2, #44]	@ _6->friction, _6->friction
 1154 009a D3ED0B7A 		vldr.32	s15, [r3, #44]	@ _8->friction, _8->friction
 1155              	@ src/b2d_lite.c:187: 			newArb.numContacts = Collide(newArb.contacts, newArb.body1, newArb.body2);
 187:src/b2d_lite.c **** 			newArb.friction = sqrtf(newArb.body1->friction * newArb.body2->friction);
 1156              		.loc 1 187 23 view .LVU266
 1157 009e C4F88000 		str	r0, [r4, #128]	@ _5, newArb.numContacts
 1158              		.loc 1 188 4 is_stmt 1 view .LVU267
 1159              	@ src/b2d_lite.c:188: 			newArb.friction = sqrtf(newArb.body1->friction * newArb.body2->friction);
 1160              		.loc 1 188 22 is_stmt 0 view .LVU268
 1161 00a2 20EE270A 		vmul.f32	s0, s0, s15	@ _10, _6->friction, _8->friction
 1162 00a6 B5EE400A 		vcmp.f32	s0, #0	@ _10
 1163 00aa F1EEC08A 		vsqrt.f32	s17, s0	@ _11, _10
 1164 00ae F1EE10FA 		vmrs	APSR_nzcv, FPSCR
 1165 00b2 5FD4     		bmi	.L80		@,
 1166              	.L61:
 1167              	@ src/b2d_lite.c:190: 			if (newArb.numContacts > 0)
 189:src/b2d_lite.c **** 
 190:src/b2d_lite.c **** 			if (newArb.numContacts > 0)
 1168              		.loc 1 190 7 view .LVU269
 1169 00b4 0028     		cmp	r0, #0	@ _5,
 1170              	@ src/b2d_lite.c:188: 			newArb.friction = sqrtf(newArb.body1->friction * newArb.body2->friction);
 188:src/b2d_lite.c **** 
 1171              		.loc 1 188 20 view .LVU270
 1172 00b6 C4ED238A 		vstr.32	s17, [r4, #140]	@ _11, newArb.friction
 1173              		.loc 1 190 4 is_stmt 1 view .LVU271
 1174              	@ src/b2d_lite.c:190: 			if (newArb.numContacts > 0)
 1175              		.loc 1 190 7 is_stmt 0 view .LVU272
 1176 00ba 2DDD     		ble	.L62		@,
 1177              	.LVL44:
 1178              	.LBB81:
 1179              	.LBB70:
 1180              	.LBB68:
  55:src/b2d_lite.c **** 	{
 1181              		.loc 1 55 18 is_stmt 1 view .LVU273
 1182              	@ src/b2d_lite.c:55: 	for (int i = 0; i < g_numArbiters; i++)
  55:src/b2d_lite.c **** 	{
 1183              		.loc 1 55 20 is_stmt 0 view .LVU274
 1184 00bc 334B     		ldr	r3, .L82+12	@ tmp281,
 1185 00be 1E68     		ldr	r6, [r3]	@ g_numArbiters.0_73, g_numArbiters
 1186              	@ src/b2d_lite.c:55: 	for (int i = 0; i < g_numArbiters; i++)
  55:src/b2d_lite.c **** 	{
 1187              		.loc 1 55 2 view .LVU275
 1188 00c0 002E     		cmp	r6, #0	@ g_numArbiters.0_73,
 1189 00c2 4DDD     		ble	.L63		@,
 1190              	@ src/b2d_lite.c:55: 	for (int i = 0; i < g_numArbiters; i++)
  55:src/b2d_lite.c **** 	{
 1191              		.loc 1 55 11 view .LVU276
 1192 00c4 0023     		movs	r3, #0	@ i,
 1193 00c6 324F     		ldr	r7, .L82+16	@ tmp237,
 1194 00c8 02E0     		b	.L66		@
 1195              	.LVL45:
ARM GAS  /tmp/ccEGVymn.s 			page 28


 1196              	.L64:
 1197              	@ src/b2d_lite.c:55: 	for (int i = 0; i < g_numArbiters; i++)
  55:src/b2d_lite.c **** 	{
 1198              		.loc 1 55 38 view .LVU277
 1199 00ca 0133     		adds	r3, r3, #1	@ i, i,
 1200              	.LVL46:
  55:src/b2d_lite.c **** 	{
 1201              		.loc 1 55 18 is_stmt 1 view .LVU278
 1202              	@ src/b2d_lite.c:55: 	for (int i = 0; i < g_numArbiters; i++)
  55:src/b2d_lite.c **** 	{
 1203              		.loc 1 55 2 is_stmt 0 view .LVU279
 1204 00cc B342     		cmp	r3, r6	@ i, g_numArbiters.0_73
 1205 00ce 2BD0     		beq	.L81		@,
 1206              	.LVL47:
 1207              	.L66:
  57:src/b2d_lite.c **** 			g_arbiterKeys[i].body2 == key.body2)
 1208              		.loc 1 57 3 is_stmt 1 view .LVU280
  55:src/b2d_lite.c **** 	{
 1209              		.loc 1 55 37 view .LVU281
 1210              	@ src/b2d_lite.c:57: 		if (g_arbiterKeys[i].body1 == key.body1 &&
  57:src/b2d_lite.c **** 			g_arbiterKeys[i].body2 == key.body2)
 1211              		.loc 1 57 6 is_stmt 0 view .LVU282
 1212 00d0 57F83320 		ldr	r2, [r7, r3, lsl #3]	@ MEM[symbol: g_arbiterKeys, index: _78, step: 8, offset: 0B], MEM[symbol
 1213              	@ src/b2d_lite.c:57: 		if (g_arbiterKeys[i].body1 == key.body1 &&
  57:src/b2d_lite.c **** 			g_arbiterKeys[i].body2 == key.body2)
 1214              		.loc 1 57 23 view .LVU283
 1215 00d4 4FEAC30C 		lsl	ip, r3, #3	@ tmp189, i,
 1216              	@ src/b2d_lite.c:57: 		if (g_arbiterKeys[i].body1 == key.body1 &&
  57:src/b2d_lite.c **** 			g_arbiterKeys[i].body2 == key.body2)
 1217              		.loc 1 57 6 view .LVU284
 1218 00d8 9542     		cmp	r5, r2	@ key$body1, MEM[symbol: g_arbiterKeys, index: _78, step: 8, offset: 0B]
 1219 00da F6D1     		bne	.L64		@,
 1220              	@ src/b2d_lite.c:57: 		if (g_arbiterKeys[i].body1 == key.body1 &&
  57:src/b2d_lite.c **** 			g_arbiterKeys[i].body2 == key.body2)
 1221              		.loc 1 57 43 view .LVU285
 1222 00dc 5BF83320 		ldr	r2, [fp, r3, lsl #3]	@ MEM[symbol: g_arbiterKeys, index: _78, step: 8, offset: 4B], MEM[symbol
 1223 00e0 9045     		cmp	r8, r2	@ key$body2, MEM[symbol: g_arbiterKeys, index: _78, step: 8, offset: 4B]
 1224 00e2 F2D1     		bne	.L64		@,
  59:src/b2d_lite.c **** 	}
 1225              		.loc 1 59 4 is_stmt 1 view .LVU286
 1226              	.LVL48:
  59:src/b2d_lite.c **** 	}
 1227              		.loc 1 59 4 is_stmt 0 view .LVU287
 1228              	.LBE68:
 1229              	.LBE70:
 191:src/b2d_lite.c **** 			{
 192:src/b2d_lite.c **** 				struct Arbiter *a = findArbiter(key);
 193:src/b2d_lite.c **** 				if (a == NULL)
 1230              		.loc 1 193 5 is_stmt 1 view .LVU288
 194:src/b2d_lite.c **** 				{
 195:src/b2d_lite.c **** 					insertArbiter(key, newArb);
 196:src/b2d_lite.c **** 				}
 197:src/b2d_lite.c **** 				else
 198:src/b2d_lite.c **** 				{
 199:src/b2d_lite.c **** 					UpdateArbiter(a, newArb.contacts, newArb.numContacts);
 1231              		.loc 1 199 6 view .LVU289
 1232              	.LBB71:
ARM GAS  /tmp/ccEGVymn.s 			page 29


 1233              	.LBB69:
 1234              	@ src/b2d_lite.c:59: 			return &g_arbiters[i];
  59:src/b2d_lite.c **** 	}
 1235              		.loc 1 59 11 is_stmt 0 view .LVU290
 1236 00e4 6344     		add	r3, r3, ip	@ tmp200, tmp189
 1237              	.LVL49:
  59:src/b2d_lite.c **** 	}
 1238              		.loc 1 59 11 view .LVU291
 1239 00e6 2B4D     		ldr	r5, .L82+20	@ tmp203,
 1240              	.LVL50:
  59:src/b2d_lite.c **** 	}
 1241              		.loc 1 59 11 view .LVU292
 1242              	.LBE69:
 1243              	.LBE71:
 1244              	@ src/b2d_lite.c:199: 					UpdateArbiter(a, newArb.contacts, newArb.numContacts);
 1245              		.loc 1 199 6 view .LVU293
 1246 00e8 0246     		mov	r2, r0	@, _5
 1247 00ea 2146     		mov	r1, r4	@, tmp238
 1248 00ec 05EB0310 		add	r0, r5, r3, lsl #4	@, tmp203, tmp200,
 1249 00f0 FFF7FEFF 		bl	UpdateArbiter		@
 1250              	.LVL51:
 1251              	.L65:
 1252              		.loc 1 199 6 view .LVU294
 1253              	.LBE81:
 164:src/b2d_lite.c **** 
 1254              		.loc 1 164 5 is_stmt 1 view .LVU295
 164:src/b2d_lite.c **** 
 1255              		.loc 1 164 5 is_stmt 0 view .LVU296
 1256              	.LBE83:
 159:src/b2d_lite.c **** 		{
 1257              		.loc 1 159 40 is_stmt 1 view .LVU297
 1258              	@ src/b2d_lite.c:159: 		for (int j = i + 1; j < g_numBodies; j++)
 159:src/b2d_lite.c **** 		{
 1259              		.loc 1 159 25 is_stmt 0 view .LVU298
 1260 00f4 224B     		ldr	r3, .L82	@ tmp280,
 1261              	@ src/b2d_lite.c:159: 		for (int j = i + 1; j < g_numBodies; j++)
 159:src/b2d_lite.c **** 		{
 1262              		.loc 1 159 41 view .LVU299
 1263 00f6 0AF1010A 		add	r10, r10, #1	@ j, j,
 1264              	.LVL52:
 159:src/b2d_lite.c **** 		{
 1265              		.loc 1 159 23 is_stmt 1 view .LVU300
 1266              	@ src/b2d_lite.c:159: 		for (int j = i + 1; j < g_numBodies; j++)
 159:src/b2d_lite.c **** 		{
 1267              		.loc 1 159 25 is_stmt 0 view .LVU301
 1268 00fa 1B68     		ldr	r3, [r3]	@ g_numBodies.14_13, g_numBodies
 1269              	@ src/b2d_lite.c:159: 		for (int j = i + 1; j < g_numBodies; j++)
 159:src/b2d_lite.c **** 		{
 1270              		.loc 1 159 3 view .LVU302
 1271 00fc 5345     		cmp	r3, r10	@ g_numBodies.14_13, j
 1272 00fe 9CDC     		bgt	.L57		@,
 1273              	.LVL53:
 159:src/b2d_lite.c **** 		{
 1274              		.loc 1 159 3 view .LVU303
 1275              	.LBE88:
 1276              	.LBE90:
 155:src/b2d_lite.c **** 	{
ARM GAS  /tmp/ccEGVymn.s 			page 30


 1277              		.loc 1 155 18 is_stmt 1 view .LVU304
 1278              	@ src/b2d_lite.c:155: 	for (int i = 0; i < g_numBodies; i++)
 155:src/b2d_lite.c **** 	{
 1279              		.loc 1 155 2 is_stmt 0 view .LVU305
 1280 0100 029A     		ldr	r2, [sp, #8]	@ i, %sfp
 1281 0102 9342     		cmp	r3, r2	@ g_numBodies.14_13, i
 1282 0104 8EDC     		bgt	.L68		@,
 1283              	.LVL54:
 1284              	.L53:
 155:src/b2d_lite.c **** 	{
 1285              		.loc 1 155 2 view .LVU306
 1286              	.LBE92:
 1287              	@ src/b2d_lite.c:208: }
 200:src/b2d_lite.c **** 				}
 201:src/b2d_lite.c **** 			}
 202:src/b2d_lite.c **** 			else
 203:src/b2d_lite.c **** 			{
 204:src/b2d_lite.c **** 				eraseArbiter(key);
 205:src/b2d_lite.c **** 			}
 206:src/b2d_lite.c **** 		}
 207:src/b2d_lite.c **** 	}
 208:src/b2d_lite.c **** }
 1288              		.loc 1 208 1 view .LVU307
 1289 0106 4FB0     		add	sp, sp, #316	@,,
 1290              	.LCFI23:
 1291              		.cfi_remember_state
 1292              		.cfi_def_cfa_offset 44
 1293              		@ sp needed	@
 1294 0108 BDEC028B 		vldm	sp!, {d8}	@
 1295              	.LCFI24:
 1296              		.cfi_restore 80
 1297              		.cfi_restore 81
 1298              		.cfi_def_cfa_offset 36
 1299 010c BDE8F08F 		pop	{r4, r5, r6, r7, r8, r9, r10, fp, pc}	@
 1300              	.LVL55:
 1301              	.L59:
 1302              	.LCFI25:
 1303              		.cfi_restore_state
 1304              	.LBB93:
 1305              	.LBB91:
 1306              	.LBB89:
 1307              	.LBB84:
 178:src/b2d_lite.c **** 				newArb.body2 = bi;
 1308              		.loc 1 178 5 is_stmt 1 view .LVU308
 1309              	@ src/b2d_lite.c:179: 				newArb.body2 = bi;
 179:src/b2d_lite.c **** 				key.body1 = bj;
 1310              		.loc 1 179 18 is_stmt 0 view .LVU309
 1311 0110 C846     		mov	r8, r9	@ key$body2, bi
 1312 0112 C4E92159 		strd	r5, r9, [r4, #132]	@ key$body1, bi, tmp238,
 180:src/b2d_lite.c **** 				key.body2 = bi;
 1313              		.loc 1 180 5 is_stmt 1 view .LVU310
 1314              	.LVL56:
 181:src/b2d_lite.c **** 			}
 1315              		.loc 1 181 5 view .LVU311
 181:src/b2d_lite.c **** 			}
 1316              		.loc 1 181 5 is_stmt 0 view .LVU312
 1317 0116 ABE7     		b	.L60		@
ARM GAS  /tmp/ccEGVymn.s 			page 31


 1318              	.LVL57:
 1319              	.L62:
 204:src/b2d_lite.c **** 			}
 1320              		.loc 1 204 5 is_stmt 1 view .LVU313
 1321 0118 04AB     		add	r3, sp, #16	@ tmp219,,
 1322 011a CDE90458 		strd	r5, r8, [sp, #16]	@ key$body1, key$body2,,
 1323 011e 93E80300 		ldm	r3, {r0, r1}	@ tmp219,,
 1324 0122 FFF7FEFF 		bl	eraseArbiter		@
 1325              	.LVL58:
 1326 0126 E5E7     		b	.L65		@
 1327              	.LVL59:
 1328              	.L81:
 1329              	.LBB82:
 193:src/b2d_lite.c **** 				{
 1330              		.loc 1 193 5 view .LVU314
 195:src/b2d_lite.c **** 				}
 1331              		.loc 1 195 6 view .LVU315
 195:src/b2d_lite.c **** 				}
 1332              		.loc 1 195 6 is_stmt 0 view .LVU316
 1333 0128 2AAB     		add	r3, sp, #168	@ tmp240,,
 1334 012a 2146     		mov	r1, r4	@, tmp238
 1335 012c 9022     		movs	r2, #144	@,
 1336 012e 1846     		mov	r0, r3	@, tmp240
 1337 0130 FFF7FEFF 		bl	memcpy		@
 1338              	.LVL60:
 1339              	.LBB72:
 1340              	.LBB73:
 1341              	@ src/b2d_lite.c:67: 	if (g_numArbiters >= 100)
  67:src/b2d_lite.c **** 	{
 1342              		.loc 1 67 5 view .LVU317
 1343 0134 632E     		cmp	r6, #99	@ g_numArbiters.0_73,
 1344 0136 0346     		mov	r3, r0	@ tmp240,
 1345              	.LBE73:
 1346              	.LBI72:
  65:src/b2d_lite.c **** {
 1347              		.loc 1 65 6 is_stmt 1 view .LVU318
 1348              	.LBB74:
  67:src/b2d_lite.c **** 	{
 1349              		.loc 1 67 2 view .LVU319
 1350              	@ src/b2d_lite.c:67: 	if (g_numArbiters >= 100)
  67:src/b2d_lite.c **** 	{
 1351              		.loc 1 67 5 is_stmt 0 view .LVU320
 1352 0138 DCDC     		bgt	.L65		@,
 1353              	.L70:
  73:src/b2d_lite.c **** 		g_arbiters[g_numArbiters] = value;
 1354              		.loc 1 73 3 is_stmt 1 view .LVU321
 1355              	@ src/b2d_lite.c:73: 		g_arbiterKeys[g_numArbiters] = key;
  73:src/b2d_lite.c **** 		g_arbiters[g_numArbiters] = value;
 1356              		.loc 1 73 32 is_stmt 0 view .LVU322
 1357 013a 47F83650 		str	r5, [r7, r6, lsl #3]	@ key$body1, MEM[(struct ArbiterKey *)_22]
 1358              	@ src/b2d_lite.c:74: 		g_arbiters[g_numArbiters] = value;
  74:src/b2d_lite.c **** 		g_numArbiters++;
 1359              		.loc 1 74 29 view .LVU323
 1360 013e 06EBC600 		add	r0, r6, r6, lsl #3	@ tmp209, g_numArbiters.0_73, g_numArbiters.0_73,
 1361 0142 144A     		ldr	r2, .L82+20	@ tmp206,
 1362              	@ src/b2d_lite.c:73: 		g_arbiterKeys[g_numArbiters] = key;
  73:src/b2d_lite.c **** 		g_arbiters[g_numArbiters] = value;
ARM GAS  /tmp/ccEGVymn.s 			page 32


 1363              		.loc 1 73 32 view .LVU324
 1364 0144 07EBC607 		add	r7, r7, r6, lsl #3	@ _22, tmp237, g_numArbiters.0_73,
 1365              	@ src/b2d_lite.c:74: 		g_arbiters[g_numArbiters] = value;
  74:src/b2d_lite.c **** 		g_numArbiters++;
 1366              		.loc 1 74 29 view .LVU325
 1367 0148 1946     		mov	r1, r3	@, tmp240
 1368              	@ src/b2d_lite.c:75: 		g_numArbiters++;
  75:src/b2d_lite.c **** 	}
 1369              		.loc 1 75 16 view .LVU326
 1370 014a 0136     		adds	r6, r6, #1	@ tmp217, g_numArbiters.0_73,
 1371              	@ src/b2d_lite.c:74: 		g_arbiters[g_numArbiters] = value;
  74:src/b2d_lite.c **** 		g_numArbiters++;
 1372              		.loc 1 74 29 view .LVU327
 1373 014c 02EB0010 		add	r0, r2, r0, lsl #4	@, tmp206, tmp209,
 1374              	@ src/b2d_lite.c:73: 		g_arbiterKeys[g_numArbiters] = key;
  73:src/b2d_lite.c **** 		g_arbiters[g_numArbiters] = value;
 1375              		.loc 1 73 32 view .LVU328
 1376 0150 C7F80480 		str	r8, [r7, #4]	@ key$body2, MEM[(struct ArbiterKey *)_22 + 4B]
  74:src/b2d_lite.c **** 		g_numArbiters++;
 1377              		.loc 1 74 3 is_stmt 1 view .LVU329
 1378              	@ src/b2d_lite.c:74: 		g_arbiters[g_numArbiters] = value;
  74:src/b2d_lite.c **** 		g_numArbiters++;
 1379              		.loc 1 74 29 is_stmt 0 view .LVU330
 1380 0154 9022     		movs	r2, #144	@,
 1381 0156 FFF7FEFF 		bl	memcpy		@
 1382              	.LVL61:
  75:src/b2d_lite.c **** 	}
 1383              		.loc 1 75 3 is_stmt 1 view .LVU331
 1384              	@ src/b2d_lite.c:75: 		g_numArbiters++;
  75:src/b2d_lite.c **** 	}
 1385              		.loc 1 75 16 is_stmt 0 view .LVU332
 1386 015a 0C4B     		ldr	r3, .L82+12	@ tmp282,
 1387 015c 1E60     		str	r6, [r3]	@ tmp217, g_numArbiters
 1388              	.LVL62:
  75:src/b2d_lite.c **** 	}
 1389              		.loc 1 75 16 view .LVU333
 1390 015e C9E7     		b	.L65		@
 1391              	.LVL63:
 1392              	.L63:
  75:src/b2d_lite.c **** 	}
 1393              		.loc 1 75 16 view .LVU334
 1394              	.LBE74:
 1395              	.LBE72:
 193:src/b2d_lite.c **** 				{
 1396              		.loc 1 193 5 is_stmt 1 view .LVU335
 195:src/b2d_lite.c **** 				}
 1397              		.loc 1 195 6 view .LVU336
 195:src/b2d_lite.c **** 				}
 1398              		.loc 1 195 6 is_stmt 0 view .LVU337
 1399 0160 2AAB     		add	r3, sp, #168	@ tmp240,,
 1400 0162 2146     		mov	r1, r4	@, tmp238
 1401 0164 9022     		movs	r2, #144	@,
 1402 0166 0A4F     		ldr	r7, .L82+16	@ tmp237,
 1403 0168 1846     		mov	r0, r3	@, tmp240
 1404 016a FFF7FEFF 		bl	memcpy		@
 1405              	.LVL64:
 1406 016e 0346     		mov	r3, r0	@ tmp240,
ARM GAS  /tmp/ccEGVymn.s 			page 33


 1407              	.LBB76:
  65:src/b2d_lite.c **** {
 1408              		.loc 1 65 6 is_stmt 1 view .LVU338
 1409              	.LBB75:
  67:src/b2d_lite.c **** 	{
 1410              		.loc 1 67 2 view .LVU339
 1411 0170 E3E7     		b	.L70		@
 1412              	.LVL65:
 1413              	.L77:
 1414              	.LCFI26:
 1415              		.cfi_def_cfa_offset 0
 1416              		.cfi_restore 4
 1417              		.cfi_restore 5
 1418              		.cfi_restore 6
 1419              		.cfi_restore 7
 1420              		.cfi_restore 8
 1421              		.cfi_restore 9
 1422              		.cfi_restore 10
 1423              		.cfi_restore 11
 1424              		.cfi_restore 14
 1425              		.cfi_restore 80
 1426              		.cfi_restore 81
  67:src/b2d_lite.c **** 	{
 1427              		.loc 1 67 2 is_stmt 0 view .LVU340
 1428 0172 7047     		bx	lr	@
 1429              	.LVL66:
 1430              	.L80:
 1431              	.LCFI27:
 1432              		.cfi_def_cfa_offset 360
 1433              		.cfi_offset 4, -36
 1434              		.cfi_offset 5, -32
 1435              		.cfi_offset 6, -28
 1436              		.cfi_offset 7, -24
 1437              		.cfi_offset 8, -20
 1438              		.cfi_offset 9, -16
 1439              		.cfi_offset 10, -12
 1440              		.cfi_offset 11, -8
 1441              		.cfi_offset 14, -4
 1442              		.cfi_offset 80, -44
 1443              		.cfi_offset 81, -40
  67:src/b2d_lite.c **** 	{
 1444              		.loc 1 67 2 view .LVU341
 1445              	.LBE75:
 1446              	.LBE76:
 1447              	.LBE82:
 1448              	@ src/b2d_lite.c:188: 			newArb.friction = sqrtf(newArb.body1->friction * newArb.body2->friction);
 188:src/b2d_lite.c **** 
 1449              		.loc 1 188 22 view .LVU342
 1450 0174 FFF7FEFF 		bl	sqrtf		@
 1451              	.LVL67:
 1452 0178 D4F88000 		ldr	r0, [r4, #128]	@ _5, newArb.numContacts
 1453 017c 9AE7     		b	.L61		@
 1454              	.L83:
 1455 017e 00BF     		.align	2
 1456              	.L82:
 1457 0180 00000000 		.word	g_numBodies
 1458 0184 00000000 		.word	g_bodies
ARM GAS  /tmp/ccEGVymn.s 			page 34


 1459 0188 00000000 		.word	0
 1460 018c 00000000 		.word	g_numArbiters
 1461 0190 00000000 		.word	g_arbiterKeys
 1462 0194 00000000 		.word	g_arbiters
 1463 0198 04000000 		.word	g_arbiterKeys+4
 1464              	.LBE84:
 1465              	.LBE89:
 1466              	.LBE91:
 1467              	.LBE93:
 1468              		.cfi_endproc
 1469              	.LFE8:
 1470              		.size	BroadPhase, .-BroadPhase
 1471              		.section	.text.PreStep,"ax",%progbits
 1472              		.align	1
 1473              		.p2align 4,,15
 1474              		.global	PreStep
 1475              		.syntax unified
 1476              		.thumb
 1477              		.thumb_func
 1478              		.fpu fpv5-sp-d16
 1479              		.type	PreStep, %function
 1480              	PreStep:
 1481              	.LVL68:
 1482              	.LFB9:
 209:src/b2d_lite.c **** 
 210:src/b2d_lite.c **** void PreStep(struct Arbiter *a, float inv_dt)
 211:src/b2d_lite.c **** {
 1483              		.loc 1 211 1 is_stmt 1 view -0
 1484              		.cfi_startproc
 1485              		@ args = 0, pretend = 0, frame = 64
 1486              		@ frame_needed = 0, uses_anonymous_args = 0
 212:src/b2d_lite.c **** 	const float k_allowedPenetration = 0.01f;
 1487              		.loc 1 212 2 view .LVU344
 213:src/b2d_lite.c **** 	float k_biasFactor = positionCorrection ? 0.2f : 0.0f;
 1488              		.loc 1 213 2 view .LVU345
 1489              	@ src/b2d_lite.c:213: 	float k_biasFactor = positionCorrection ? 0.2f : 0.0f;
 1490              		.loc 1 213 42 is_stmt 0 view .LVU346
 1491 0000 C44B     		ldr	r3, .L96	@ tmp189,
 1492              	@ src/b2d_lite.c:213: 	float k_biasFactor = positionCorrection ? 0.2f : 0.0f;
 1493              		.loc 1 213 49 view .LVU347
 1494 0002 1B68     		ldr	r3, [r3]	@ positionCorrection, positionCorrection
 1495              	@ src/b2d_lite.c:211: {
 211:src/b2d_lite.c **** 	const float k_allowedPenetration = 0.01f;
 1496              		.loc 1 211 1 view .LVU348
 1497 0004 2DE9F041 		push	{r4, r5, r6, r7, r8, lr}	@
 1498              	.LCFI28:
 1499              		.cfi_def_cfa_offset 24
 1500              		.cfi_offset 4, -24
 1501              		.cfi_offset 5, -20
 1502              		.cfi_offset 6, -16
 1503              		.cfi_offset 7, -12
 1504              		.cfi_offset 8, -8
 1505              		.cfi_offset 14, -4
 1506              	@ src/b2d_lite.c:213: 	float k_biasFactor = positionCorrection ? 0.2f : 0.0f;
 1507              		.loc 1 213 49 view .LVU349
 1508 0008 002B     		cmp	r3, #0	@ positionCorrection,
 1509              	.LBB94:
ARM GAS  /tmp/ccEGVymn.s 			page 35


 1510              	@ src/b2d_lite.c:215: 	for (int i = 0; i < a->numContacts; ++i)
 214:src/b2d_lite.c **** 
 215:src/b2d_lite.c **** 	for (int i = 0; i < a->numContacts; ++i)
 1511              		.loc 1 215 2 view .LVU350
 1512 000a D0F88030 		ldr	r3, [r0, #128]	@ a_72(D)->numContacts, a_72(D)->numContacts
 1513              	.LBE94:
 1514              	@ src/b2d_lite.c:211: {
 211:src/b2d_lite.c **** 	const float k_allowedPenetration = 0.01f;
 1515              		.loc 1 211 1 view .LVU351
 1516 000e 2DED0A8B 		vpush.64	{d8, d9, d10, d11, d12}	@
 1517              	.LCFI29:
 1518              		.cfi_def_cfa_offset 64
 1519              		.cfi_offset 80, -64
 1520              		.cfi_offset 81, -60
 1521              		.cfi_offset 82, -56
 1522              		.cfi_offset 83, -52
 1523              		.cfi_offset 84, -48
 1524              		.cfi_offset 85, -44
 1525              		.cfi_offset 86, -40
 1526              		.cfi_offset 87, -36
 1527              		.cfi_offset 88, -32
 1528              		.cfi_offset 89, -28
 1529              	@ src/b2d_lite.c:213: 	float k_biasFactor = positionCorrection ? 0.2f : 0.0f;
 213:src/b2d_lite.c **** 
 1530              		.loc 1 213 49 view .LVU352
 1531 0012 DFEDC19A 		vldr.32	s19, .L96+4	@ tmp319,
 1532              	@ src/b2d_lite.c:211: {
 211:src/b2d_lite.c **** 	const float k_allowedPenetration = 0.01f;
 1533              		.loc 1 211 1 view .LVU353
 1534 0016 90B0     		sub	sp, sp, #64	@,,
 1535              	.LCFI30:
 1536              		.cfi_def_cfa_offset 128
 1537              	@ src/b2d_lite.c:213: 	float k_biasFactor = positionCorrection ? 0.2f : 0.0f;
 213:src/b2d_lite.c **** 
 1538              		.loc 1 213 49 view .LVU354
 1539 0018 9FEDC0AA 		vldr.32	s20, .L96+8	@ tmp320,
 1540 001c 4AFE299A 		vseleq.f32	s19, s20, s19	@, iftmp.16_68, tmp320, tmp319
 1541              	.LVL69:
 1542              		.loc 1 215 2 is_stmt 1 view .LVU355
 1543              	.LBB101:
 1544              		.loc 1 215 7 view .LVU356
 1545              		.loc 1 215 18 view .LVU357
 1546              	@ src/b2d_lite.c:215: 	for (int i = 0; i < a->numContacts; ++i)
 1547              		.loc 1 215 2 is_stmt 0 view .LVU358
 1548 0020 002B     		cmp	r3, #0	@ a_72(D)->numContacts,
 1549 0022 40F37181 		ble	.L84		@,
 1550 0026 69EEC09A 		vnmul.f32	s19, s19, s0	@ _40, iftmp.16_68, inv_dt
 1551              	.LVL70:
 1552              		.loc 1 215 2 view .LVU359
 1553 002a 0546     		mov	r5, r0	@ a, tmp322
 1554              	.LBB95:
 1555              	@ src/b2d_lite.c:227: 		c->massNormal = 1.0f / kNormal;
 216:src/b2d_lite.c **** 	{
 217:src/b2d_lite.c **** 		struct Contact *c = a->contacts + i;
 218:src/b2d_lite.c **** 
 219:src/b2d_lite.c **** 		struct Vec2 r1 = diffVec2(c->position, a->body1->position);
 220:src/b2d_lite.c **** 		struct Vec2 r2 = diffVec2(c->position, a->body2->position);
ARM GAS  /tmp/ccEGVymn.s 			page 36


 221:src/b2d_lite.c **** 
 222:src/b2d_lite.c **** 		// Precompute normal mass, tangent mass, and bias.
 223:src/b2d_lite.c **** 		float rn1 = Dot(r1, c->normal);
 224:src/b2d_lite.c **** 		float rn2 = Dot(r2, c->normal);
 225:src/b2d_lite.c **** 		float kNormal = a->body1->invMass + a->body2->invMass;
 226:src/b2d_lite.c **** 		kNormal += a->body1->invI * (Dot(r1, r1) - rn1 * rn1) + a->body2->invI * (Dot(r2, r2) - rn2 * rn2
 227:src/b2d_lite.c **** 		c->massNormal = 1.0f / kNormal;
 1556              		.loc 1 227 24 view .LVU360
 1557 002c B7EE009A 		vmov.f32	s18, #1.0e+0	@ tmp231,
 1558 0030 0446     		mov	r4, r0	@ ivtmp.135, a
 1559              	.LBE95:
 1560              	@ src/b2d_lite.c:215: 	for (int i = 0; i < a->numContacts; ++i)
 215:src/b2d_lite.c **** 	{
 1561              		.loc 1 215 11 view .LVU361
 1562 0032 0026     		movs	r6, #0	@ i,
 1563 0034 BA4F     		ldr	r7, .L96+12	@ tmp315,
 1564              	.LBB98:
 1565              	@ src/b2d_lite.c:236: 		c->bias = -k_biasFactor * inv_dt * Min(0.0f, c->separation + k_allowedPenet
 228:src/b2d_lite.c **** 
 229:src/b2d_lite.c **** 		struct Vec2 tangent = Crossvs(c->normal, 1.0f);
 230:src/b2d_lite.c **** 		float rt1 = Dot(r1, tangent);
 231:src/b2d_lite.c **** 		float rt2 = Dot(r2, tangent);
 232:src/b2d_lite.c **** 		float kTangent = a->body1->invMass + a->body2->invMass;
 233:src/b2d_lite.c **** 		kTangent += a->body1->invI * (Dot(r1, r1) - rt1 * rt1) + a->body2->invI * (Dot(r2, r2) - rt2 * rt
 234:src/b2d_lite.c **** 		c->massTangent = 1.0f / kTangent;
 235:src/b2d_lite.c **** 
 236:src/b2d_lite.c **** 		c->bias = -k_biasFactor * inv_dt * Min(0.0f, c->separation + k_allowedPenetration);
 1566              		.loc 1 236 38 view .LVU362
 1567 0036 DFEDBBAA 		vldr.32	s21, .L96+16	@ tmp264,
 1568 003a 06E0     		b	.L88		@
 1569              	.LVL71:
 1570              	.L87:
 1571              		.loc 1 236 38 view .LVU363
 1572              	.LBE98:
 215:src/b2d_lite.c **** 	{
 1573              		.loc 1 215 38 is_stmt 1 discriminator 1 view .LVU364
 1574 003c 0136     		adds	r6, r6, #1	@ i, i,
 1575              	.LVL72:
 215:src/b2d_lite.c **** 	{
 1576              		.loc 1 215 18 discriminator 1 view .LVU365
 1577              	@ src/b2d_lite.c:215: 	for (int i = 0; i < a->numContacts; ++i)
 215:src/b2d_lite.c **** 	{
 1578              		.loc 1 215 2 is_stmt 0 discriminator 1 view .LVU366
 1579 003e D5F88030 		ldr	r3, [r5, #128]	@ a_72(D)->numContacts, a_72(D)->numContacts
 1580 0042 4034     		adds	r4, r4, #64	@ ivtmp.135, ivtmp.135,
 1581              	.LVL73:
 215:src/b2d_lite.c **** 	{
 1582              		.loc 1 215 2 discriminator 1 view .LVU367
 1583 0044 B342     		cmp	r3, r6	@ a_72(D)->numContacts, i
 1584 0046 40F35F81 		ble	.L84		@,
 1585              	.LVL74:
 1586              	.L88:
 1587              	.LBB99:
 217:src/b2d_lite.c **** 
 1588              		.loc 1 217 3 is_stmt 1 view .LVU368
 219:src/b2d_lite.c **** 		struct Vec2 r2 = diffVec2(c->position, a->body2->position);
 1589              		.loc 1 219 3 view .LVU369
ARM GAS  /tmp/ccEGVymn.s 			page 37


 1590              	@ src/b2d_lite.c:219: 		struct Vec2 r1 = diffVec2(c->position, a->body1->position);
 219:src/b2d_lite.c **** 		struct Vec2 r2 = diffVec2(c->position, a->body2->position);
 1591              		.loc 1 219 20 is_stmt 0 view .LVU370
 1592 004a D5F88430 		ldr	r3, [r5, #132]	@ a_72(D)->body1, a_72(D)->body1
 1593 004e 94ED000A 		vldr.32	s0, [r4]	@, c_73->position
 1594 0052 D4ED010A 		vldr.32	s1, [r4, #4]	@, c_73->position
 1595 0056 93ED001A 		vldr.32	s2, [r3]	@, _5->position
 1596 005a D3ED011A 		vldr.32	s3, [r3, #4]	@, _5->position
 1597 005e FFF7FEFF 		bl	diffVec2		@
 1598              	.LVL75:
 1599              	@ src/b2d_lite.c:220: 		struct Vec2 r2 = diffVec2(c->position, a->body2->position);
 220:src/b2d_lite.c **** 
 1600              		.loc 1 220 20 view .LVU371
 1601 0062 D5F88830 		ldr	r3, [r5, #136]	@ a_72(D)->body2, a_72(D)->body2
 1602              	@ src/b2d_lite.c:219: 		struct Vec2 r1 = diffVec2(c->position, a->body1->position);
 219:src/b2d_lite.c **** 		struct Vec2 r2 = diffVec2(c->position, a->body2->position);
 1603              		.loc 1 219 20 view .LVU372
 1604 0066 B0EE407A 		vmov.f32	s14, s0	@ tmp324,
 1605              	@ src/b2d_lite.c:220: 		struct Vec2 r2 = diffVec2(c->position, a->body2->position);
 220:src/b2d_lite.c **** 
 1606              		.loc 1 220 20 view .LVU373
 1607 006a 94ED000A 		vldr.32	s0, [r4]	@, c_73->position
 1608              	@ src/b2d_lite.c:219: 		struct Vec2 r1 = diffVec2(c->position, a->body1->position);
 219:src/b2d_lite.c **** 		struct Vec2 r2 = diffVec2(c->position, a->body2->position);
 1609              		.loc 1 219 20 view .LVU374
 1610 006e F0EE607A 		vmov.f32	s15, s1	@ tmp325,
 1611              	@ src/b2d_lite.c:220: 		struct Vec2 r2 = diffVec2(c->position, a->body2->position);
 220:src/b2d_lite.c **** 
 1612              		.loc 1 220 20 view .LVU375
 1613 0072 D4ED010A 		vldr.32	s1, [r4, #4]	@, c_73->position
 1614 0076 93ED001A 		vldr.32	s2, [r3]	@, _6->position
 1615 007a D3ED011A 		vldr.32	s3, [r3, #4]	@, _6->position
 1616              	@ src/b2d_lite.c:219: 		struct Vec2 r1 = diffVec2(c->position, a->body1->position);
 219:src/b2d_lite.c **** 		struct Vec2 r2 = diffVec2(c->position, a->body2->position);
 1617              		.loc 1 219 20 view .LVU376
 1618 007e 8DED007A 		vstr.32	s14, [sp]	@ tmp324, r1
 1619 0082 CDED017A 		vstr.32	s15, [sp, #4]	@ tmp325, r1
 220:src/b2d_lite.c **** 
 1620              		.loc 1 220 3 is_stmt 1 view .LVU377
 1621              	@ src/b2d_lite.c:220: 		struct Vec2 r2 = diffVec2(c->position, a->body2->position);
 220:src/b2d_lite.c **** 
 1622              		.loc 1 220 20 is_stmt 0 view .LVU378
 1623 0086 FFF7FEFF 		bl	diffVec2		@
 1624              	.LVL76:
 1625 008a B0EE407A 		vmov.f32	s14, s0	@ tmp326,
 1626              	@ src/b2d_lite.c:223: 		float rn1 = Dot(r1, c->normal);
 223:src/b2d_lite.c **** 		float rn2 = Dot(r2, c->normal);
 1627              		.loc 1 223 15 view .LVU379
 1628 008e 94ED021A 		vldr.32	s2, [r4, #8]	@, c_73->normal
 1629              	@ src/b2d_lite.c:220: 		struct Vec2 r2 = diffVec2(c->position, a->body2->position);
 220:src/b2d_lite.c **** 
 1630              		.loc 1 220 20 view .LVU380
 1631 0092 F0EE607A 		vmov.f32	s15, s1	@ tmp327,
 1632              	@ src/b2d_lite.c:223: 		float rn1 = Dot(r1, c->normal);
 223:src/b2d_lite.c **** 		float rn2 = Dot(r2, c->normal);
 1633              		.loc 1 223 15 view .LVU381
 1634 0096 D4ED031A 		vldr.32	s3, [r4, #12]	@, c_73->normal
ARM GAS  /tmp/ccEGVymn.s 			page 38


 1635 009a DDED010A 		vldr.32	s1, [sp, #4]	@, r1
 1636 009e 9DED000A 		vldr.32	s0, [sp]	@, r1
 1637              	@ src/b2d_lite.c:220: 		struct Vec2 r2 = diffVec2(c->position, a->body2->position);
 220:src/b2d_lite.c **** 
 1638              		.loc 1 220 20 view .LVU382
 1639 00a2 8DED027A 		vstr.32	s14, [sp, #8]	@ tmp326, r2
 1640 00a6 CDED037A 		vstr.32	s15, [sp, #12]	@ tmp327, r2
 223:src/b2d_lite.c **** 		float rn2 = Dot(r2, c->normal);
 1641              		.loc 1 223 3 is_stmt 1 view .LVU383
 1642              	@ src/b2d_lite.c:223: 		float rn1 = Dot(r1, c->normal);
 223:src/b2d_lite.c **** 		float rn2 = Dot(r2, c->normal);
 1643              		.loc 1 223 15 is_stmt 0 view .LVU384
 1644 00aa FFF7FEFF 		bl	Dot		@
 1645              	.LVL77:
 1646              	@ src/b2d_lite.c:224: 		float rn2 = Dot(r2, c->normal);
 224:src/b2d_lite.c **** 		float kNormal = a->body1->invMass + a->body2->invMass;
 1647              		.loc 1 224 15 view .LVU385
 1648 00ae 94ED021A 		vldr.32	s2, [r4, #8]	@, c_73->normal
 1649              	@ src/b2d_lite.c:223: 		float rn1 = Dot(r1, c->normal);
 223:src/b2d_lite.c **** 		float rn2 = Dot(r2, c->normal);
 1650              		.loc 1 223 15 view .LVU386
 1651 00b2 F0EE408A 		vmov.f32	s17, s0	@ tmp328,
 1652              	@ src/b2d_lite.c:224: 		float rn2 = Dot(r2, c->normal);
 224:src/b2d_lite.c **** 		float kNormal = a->body1->invMass + a->body2->invMass;
 1653              		.loc 1 224 15 view .LVU387
 1654 00b6 D4ED031A 		vldr.32	s3, [r4, #12]	@, c_73->normal
 1655 00ba DDED030A 		vldr.32	s1, [sp, #12]	@, r2
 1656              	.LVL78:
 224:src/b2d_lite.c **** 		float kNormal = a->body1->invMass + a->body2->invMass;
 1657              		.loc 1 224 3 is_stmt 1 view .LVU388
 1658              	@ src/b2d_lite.c:224: 		float rn2 = Dot(r2, c->normal);
 224:src/b2d_lite.c **** 		float kNormal = a->body1->invMass + a->body2->invMass;
 1659              		.loc 1 224 15 is_stmt 0 view .LVU389
 1660 00be 9DED020A 		vldr.32	s0, [sp, #8]	@, r2
 1661              	.LVL79:
 224:src/b2d_lite.c **** 		float kNormal = a->body1->invMass + a->body2->invMass;
 1662              		.loc 1 224 15 view .LVU390
 1663 00c2 FFF7FEFF 		bl	Dot		@
 1664              	.LVL80:
 1665              	@ src/b2d_lite.c:226: 		kNormal += a->body1->invI * (Dot(r1, r1) - rn1 * rn1) + a->body2->invI * (D
 226:src/b2d_lite.c **** 		c->massNormal = 1.0f / kNormal;
 1666              		.loc 1 226 32 view .LVU391
 1667 00c6 9DED001A 		vldr.32	s2, [sp]	@ r1, r1
 1668 00ca DDED011A 		vldr.32	s3, [sp, #4]	@ r1, r1
 1669              	@ src/b2d_lite.c:224: 		float rn2 = Dot(r2, c->normal);
 224:src/b2d_lite.c **** 		float kNormal = a->body1->invMass + a->body2->invMass;
 1670              		.loc 1 224 15 view .LVU392
 1671 00ce B0EE40BA 		vmov.f32	s22, s0	@ rn2, tmp329
 1672              	.LVL81:
 225:src/b2d_lite.c **** 		kNormal += a->body1->invI * (Dot(r1, r1) - rn1 * rn1) + a->body2->invI * (Dot(r2, r2) - rn2 * rn2
 1673              		.loc 1 225 3 is_stmt 1 view .LVU393
 1674              	@ src/b2d_lite.c:226: 		kNormal += a->body1->invI * (Dot(r1, r1) - rn1 * rn1) + a->body2->invI * (D
 226:src/b2d_lite.c **** 		c->massNormal = 1.0f / kNormal;
 1675              		.loc 1 226 32 is_stmt 0 view .LVU394
 1676 00d2 B0EE410A 		vmov.f32	s0, s2	@,
 1677              	.LVL82:
 226:src/b2d_lite.c **** 		c->massNormal = 1.0f / kNormal;
ARM GAS  /tmp/ccEGVymn.s 			page 39


 1678              		.loc 1 226 32 view .LVU395
 1679 00d6 F0EE610A 		vmov.f32	s1, s3	@,
 1680              	@ src/b2d_lite.c:225: 		float kNormal = a->body1->invMass + a->body2->invMass;
 225:src/b2d_lite.c **** 		kNormal += a->body1->invI * (Dot(r1, r1) - rn1 * rn1) + a->body2->invI * (Dot(r2, r2) - rn2 * rn2
 1681              		.loc 1 225 47 view .LVU396
 1682 00da D5E92132 		ldrd	r3, r2, [r5, #132]	@ _7, a_72(D)->body2, a,
 1683              	@ src/b2d_lite.c:225: 		float kNormal = a->body1->invMass + a->body2->invMass;
 225:src/b2d_lite.c **** 		kNormal += a->body1->invI * (Dot(r1, r1) - rn1 * rn1) + a->body2->invI * (Dot(r2, r2) - rn2 * rn2
 1684              		.loc 1 225 9 view .LVU397
 1685 00de 92ED0D8A 		vldr.32	s16, [r2, #52]	@ _9->invMass, _9->invMass
 1686 00e2 D3ED0D7A 		vldr.32	s15, [r3, #52]	@ _7->invMass, _7->invMass
 1687              	@ src/b2d_lite.c:226: 		kNormal += a->body1->invI * (Dot(r1, r1) - rn1 * rn1) + a->body2->invI * (D
 226:src/b2d_lite.c **** 		c->massNormal = 1.0f / kNormal;
 1688              		.loc 1 226 22 view .LVU398
 1689 00e6 93ED0FCA 		vldr.32	s24, [r3, #60]	@ _11, _7->invI
 1690              	@ src/b2d_lite.c:225: 		float kNormal = a->body1->invMass + a->body2->invMass;
 225:src/b2d_lite.c **** 		kNormal += a->body1->invI * (Dot(r1, r1) - rn1 * rn1) + a->body2->invI * (Dot(r2, r2) - rn2 * rn2
 1691              		.loc 1 225 9 view .LVU399
 1692 00ea 38EE278A 		vadd.f32	s16, s16, s15	@ kNormal, _9->invMass, _7->invMass
 1693              	.LVL83:
 226:src/b2d_lite.c **** 		c->massNormal = 1.0f / kNormal;
 1694              		.loc 1 226 3 is_stmt 1 view .LVU400
 1695              	@ src/b2d_lite.c:226: 		kNormal += a->body1->invI * (Dot(r1, r1) - rn1 * rn1) + a->body2->invI * (D
 226:src/b2d_lite.c **** 		c->massNormal = 1.0f / kNormal;
 1696              		.loc 1 226 32 is_stmt 0 view .LVU401
 1697 00ee FFF7FEFF 		bl	Dot		@
 1698              	.LVL84:
 1699              	@ src/b2d_lite.c:226: 		kNormal += a->body1->invI * (Dot(r1, r1) - rn1 * rn1) + a->body2->invI * (D
 226:src/b2d_lite.c **** 		c->massNormal = 1.0f / kNormal;
 1700              		.loc 1 226 44 view .LVU402
 1701 00f2 A8EEE80A 		vfms.f32	s0, s17, s17	@ tmp330, rn1, rn1
 1702              	@ src/b2d_lite.c:226: 		kNormal += a->body1->invI * (Dot(r1, r1) - rn1 * rn1) + a->body2->invI * (D
 226:src/b2d_lite.c **** 		c->massNormal = 1.0f / kNormal;
 1703              		.loc 1 226 77 view .LVU403
 1704 00f6 DDED031A 		vldr.32	s3, [sp, #12]	@ r2, r2
 1705 00fa 9DED021A 		vldr.32	s2, [sp, #8]	@ r2, r2
 1706              	@ src/b2d_lite.c:226: 		kNormal += a->body1->invI * (Dot(r1, r1) - rn1 * rn1) + a->body2->invI * (D
 226:src/b2d_lite.c **** 		c->massNormal = 1.0f / kNormal;
 1707              		.loc 1 226 67 view .LVU404
 1708 00fe D5F88830 		ldr	r3, [r5, #136]	@ a_72(D)->body2, a_72(D)->body2
 1709              	@ src/b2d_lite.c:226: 		kNormal += a->body1->invI * (Dot(r1, r1) - rn1 * rn1) + a->body2->invI * (D
 226:src/b2d_lite.c **** 		c->massNormal = 1.0f / kNormal;
 1710              		.loc 1 226 77 view .LVU405
 1711 0102 F0EE610A 		vmov.f32	s1, s3	@,
 1712              	@ src/b2d_lite.c:226: 		kNormal += a->body1->invI * (Dot(r1, r1) - rn1 * rn1) + a->body2->invI * (D
 226:src/b2d_lite.c **** 		c->massNormal = 1.0f / kNormal;
 1713              		.loc 1 226 67 view .LVU406
 1714 0106 D3ED0F8A 		vldr.32	s17, [r3, #60]	@ _17, _16->invI
 1715              	.LVL85:
 1716              	@ src/b2d_lite.c:226: 		kNormal += a->body1->invI * (Dot(r1, r1) - rn1 * rn1) + a->body2->invI * (D
 226:src/b2d_lite.c **** 		c->massNormal = 1.0f / kNormal;
 1717              		.loc 1 226 44 view .LVU407
 1718 010a F0EE40BA 		vmov.f32	s23, s0	@ _14, tmp330
 1719              	@ src/b2d_lite.c:226: 		kNormal += a->body1->invI * (Dot(r1, r1) - rn1 * rn1) + a->body2->invI * (D
 226:src/b2d_lite.c **** 		c->massNormal = 1.0f / kNormal;
 1720              		.loc 1 226 77 view .LVU408
 1721 010e B0EE410A 		vmov.f32	s0, s2	@,
ARM GAS  /tmp/ccEGVymn.s 			page 40


 1722 0112 FFF7FEFF 		bl	Dot		@
 1723              	.LVL86:
 1724              	@ src/b2d_lite.c:226: 		kNormal += a->body1->invI * (Dot(r1, r1) - rn1 * rn1) + a->body2->invI * (D
 226:src/b2d_lite.c **** 		c->massNormal = 1.0f / kNormal;
 1725              		.loc 1 226 89 view .LVU409
 1726 0116 F0EE407A 		vmov.f32	s15, s0	@ tmp331, tmp331
 1727              	@ src/b2d_lite.c:229: 		struct Vec2 tangent = Crossvs(c->normal, 1.0f);
 229:src/b2d_lite.c **** 		float rt1 = Dot(r1, tangent);
 1728              		.loc 1 229 25 view .LVU410
 1729 011a D4ED030A 		vldr.32	s1, [r4, #12]	@, c_73->normal
 1730 011e B7EE001A 		vmov.f32	s2, #1.0e+0	@,
 1731 0122 94ED020A 		vldr.32	s0, [r4, #8]	@, c_73->normal
 1732              	@ src/b2d_lite.c:226: 		kNormal += a->body1->invI * (Dot(r1, r1) - rn1 * rn1) + a->body2->invI * (D
 226:src/b2d_lite.c **** 		c->massNormal = 1.0f / kNormal;
 1733              		.loc 1 226 89 view .LVU411
 1734 0126 EBEE4B7A 		vfms.f32	s15, s22, s22	@ tmp331, rn2, rn2
 1735              	@ src/b2d_lite.c:226: 		kNormal += a->body1->invI * (Dot(r1, r1) - rn1 * rn1) + a->body2->invI * (D
 226:src/b2d_lite.c **** 		c->massNormal = 1.0f / kNormal;
 1736              		.loc 1 226 74 view .LVU412
 1737 012a 68EEA78A 		vmul.f32	s17, s17, s15	@ tmp228, _17, _20
 1738              	@ src/b2d_lite.c:226: 		kNormal += a->body1->invI * (Dot(r1, r1) - rn1 * rn1) + a->body2->invI * (D
 226:src/b2d_lite.c **** 		c->massNormal = 1.0f / kNormal;
 1739              		.loc 1 226 57 view .LVU413
 1740 012e ECEE2B8A 		vfma.f32	s17, s24, s23	@ _83, _11, _14
 1741              	.LVL87:
 227:src/b2d_lite.c **** 
 1742              		.loc 1 227 3 is_stmt 1 view .LVU414
 1743              	@ src/b2d_lite.c:226: 		kNormal += a->body1->invI * (Dot(r1, r1) - rn1 * rn1) + a->body2->invI * (D
 226:src/b2d_lite.c **** 		c->massNormal = 1.0f / kNormal;
 1744              		.loc 1 226 11 is_stmt 0 view .LVU415
 1745 0132 38EE288A 		vadd.f32	s16, s16, s17	@ kNormal, kNormal, _83
 1746              	.LVL88:
 1747              	@ src/b2d_lite.c:227: 		c->massNormal = 1.0f / kNormal;
 227:src/b2d_lite.c **** 
 1748              		.loc 1 227 24 view .LVU416
 1749 0136 C9EE087A 		vdiv.f32	s15, s18, s16	@ tmp230, tmp231, kNormal
 1750              	@ src/b2d_lite.c:227: 		c->massNormal = 1.0f / kNormal;
 227:src/b2d_lite.c **** 
 1751              		.loc 1 227 17 view .LVU417
 1752 013a C4ED0C7A 		vstr.32	s15, [r4, #48]	@ tmp230, MEM[base: c_73, offset: 48B]
 229:src/b2d_lite.c **** 		float rt1 = Dot(r1, tangent);
 1753              		.loc 1 229 3 is_stmt 1 view .LVU418
 1754              	@ src/b2d_lite.c:229: 		struct Vec2 tangent = Crossvs(c->normal, 1.0f);
 229:src/b2d_lite.c **** 		float rt1 = Dot(r1, tangent);
 1755              		.loc 1 229 25 is_stmt 0 view .LVU419
 1756 013e FFF7FEFF 		bl	Crossvs		@
 1757              	.LVL89:
 1758 0142 B0EE401A 		vmov.f32	s2, s0	@ tmp332,
 1759 0146 F0EE601A 		vmov.f32	s3, s1	@ tmp333,
 1760              	@ src/b2d_lite.c:230: 		float rt1 = Dot(r1, tangent);
 230:src/b2d_lite.c **** 		float rt2 = Dot(r2, tangent);
 1761              		.loc 1 230 15 view .LVU420
 1762 014a 9DED000A 		vldr.32	s0, [sp]	@, r1
 1763 014e DDED010A 		vldr.32	s1, [sp, #4]	@, r1
 1764              	@ src/b2d_lite.c:229: 		struct Vec2 tangent = Crossvs(c->normal, 1.0f);
 229:src/b2d_lite.c **** 		float rt1 = Dot(r1, tangent);
 1765              		.loc 1 229 25 view .LVU421
ARM GAS  /tmp/ccEGVymn.s 			page 41


 1766 0152 8DED041A 		vstr.32	s2, [sp, #16]	@ tmp234, tangent
 1767 0156 CDED051A 		vstr.32	s3, [sp, #20]	@ tmp235, tangent
 230:src/b2d_lite.c **** 		float rt2 = Dot(r2, tangent);
 1768              		.loc 1 230 3 is_stmt 1 view .LVU422
 1769              	@ src/b2d_lite.c:230: 		float rt1 = Dot(r1, tangent);
 230:src/b2d_lite.c **** 		float rt2 = Dot(r2, tangent);
 1770              		.loc 1 230 15 is_stmt 0 view .LVU423
 1771 015a FFF7FEFF 		bl	Dot		@
 1772              	.LVL90:
 1773              	@ src/b2d_lite.c:231: 		float rt2 = Dot(r2, tangent);
 231:src/b2d_lite.c **** 		float kTangent = a->body1->invMass + a->body2->invMass;
 1774              		.loc 1 231 15 view .LVU424
 1775 015e 9DED041A 		vldr.32	s2, [sp, #16]	@, tangent
 1776              	@ src/b2d_lite.c:230: 		float rt1 = Dot(r1, tangent);
 230:src/b2d_lite.c **** 		float rt2 = Dot(r2, tangent);
 1777              		.loc 1 230 15 view .LVU425
 1778 0162 F0EE408A 		vmov.f32	s17, s0	@ tmp334,
 1779              	@ src/b2d_lite.c:231: 		float rt2 = Dot(r2, tangent);
 231:src/b2d_lite.c **** 		float kTangent = a->body1->invMass + a->body2->invMass;
 1780              		.loc 1 231 15 view .LVU426
 1781 0166 DDED051A 		vldr.32	s3, [sp, #20]	@, tangent
 1782 016a DDED030A 		vldr.32	s1, [sp, #12]	@, r2
 1783              	.LVL91:
 231:src/b2d_lite.c **** 		float kTangent = a->body1->invMass + a->body2->invMass;
 1784              		.loc 1 231 3 is_stmt 1 view .LVU427
 1785              	@ src/b2d_lite.c:231: 		float rt2 = Dot(r2, tangent);
 231:src/b2d_lite.c **** 		float kTangent = a->body1->invMass + a->body2->invMass;
 1786              		.loc 1 231 15 is_stmt 0 view .LVU428
 1787 016e 9DED020A 		vldr.32	s0, [sp, #8]	@, r2
 1788              	.LVL92:
 231:src/b2d_lite.c **** 		float kTangent = a->body1->invMass + a->body2->invMass;
 1789              		.loc 1 231 15 view .LVU429
 1790 0172 FFF7FEFF 		bl	Dot		@
 1791              	.LVL93:
 1792              	@ src/b2d_lite.c:233: 		kTangent += a->body1->invI * (Dot(r1, r1) - rt1 * rt1) + a->body2->invI * (
 233:src/b2d_lite.c **** 		c->massTangent = 1.0f / kTangent;
 1793              		.loc 1 233 33 view .LVU430
 1794 0176 9DED001A 		vldr.32	s2, [sp]	@ r1, r1
 1795 017a DDED011A 		vldr.32	s3, [sp, #4]	@ r1, r1
 1796              	@ src/b2d_lite.c:231: 		float rt2 = Dot(r2, tangent);
 231:src/b2d_lite.c **** 		float kTangent = a->body1->invMass + a->body2->invMass;
 1797              		.loc 1 231 15 view .LVU431
 1798 017e B0EE40BA 		vmov.f32	s22, s0	@ rt2, tmp335
 1799              	.LVL94:
 232:src/b2d_lite.c **** 		kTangent += a->body1->invI * (Dot(r1, r1) - rt1 * rt1) + a->body2->invI * (Dot(r2, r2) - rt2 * rt
 1800              		.loc 1 232 3 is_stmt 1 view .LVU432
 1801              	@ src/b2d_lite.c:233: 		kTangent += a->body1->invI * (Dot(r1, r1) - rt1 * rt1) + a->body2->invI * (
 233:src/b2d_lite.c **** 		c->massTangent = 1.0f / kTangent;
 1802              		.loc 1 233 33 is_stmt 0 view .LVU433
 1803 0182 B0EE410A 		vmov.f32	s0, s2	@,
 1804              	.LVL95:
 233:src/b2d_lite.c **** 		c->massTangent = 1.0f / kTangent;
 1805              		.loc 1 233 33 view .LVU434
 1806 0186 F0EE610A 		vmov.f32	s1, s3	@,
 1807              	@ src/b2d_lite.c:232: 		float kTangent = a->body1->invMass + a->body2->invMass;
 232:src/b2d_lite.c **** 		kTangent += a->body1->invI * (Dot(r1, r1) - rt1 * rt1) + a->body2->invI * (Dot(r2, r2) - rt2 * rt
 1808              		.loc 1 232 48 view .LVU435
ARM GAS  /tmp/ccEGVymn.s 			page 42


 1809 018a D5E92132 		ldrd	r3, r2, [r5, #132]	@ _23, a_72(D)->body2, a,
 1810              	@ src/b2d_lite.c:232: 		float kTangent = a->body1->invMass + a->body2->invMass;
 232:src/b2d_lite.c **** 		kTangent += a->body1->invI * (Dot(r1, r1) - rt1 * rt1) + a->body2->invI * (Dot(r2, r2) - rt2 * rt
 1811              		.loc 1 232 9 view .LVU436
 1812 018e D3ED0D7A 		vldr.32	s15, [r3, #52]	@ _23->invMass, _23->invMass
 1813 0192 92ED0D8A 		vldr.32	s16, [r2, #52]	@ _25->invMass, _25->invMass
 1814              	.LVL96:
 1815              	@ src/b2d_lite.c:233: 		kTangent += a->body1->invI * (Dot(r1, r1) - rt1 * rt1) + a->body2->invI * (
 233:src/b2d_lite.c **** 		c->massTangent = 1.0f / kTangent;
 1816              		.loc 1 233 23 view .LVU437
 1817 0196 93ED0FCA 		vldr.32	s24, [r3, #60]	@ _27, _23->invI
 1818              	@ src/b2d_lite.c:232: 		float kTangent = a->body1->invMass + a->body2->invMass;
 232:src/b2d_lite.c **** 		kTangent += a->body1->invI * (Dot(r1, r1) - rt1 * rt1) + a->body2->invI * (Dot(r2, r2) - rt2 * rt
 1819              		.loc 1 232 9 view .LVU438
 1820 019a 38EE278A 		vadd.f32	s16, s16, s15	@ kTangent, _25->invMass, _23->invMass
 1821              	.LVL97:
 233:src/b2d_lite.c **** 		c->massTangent = 1.0f / kTangent;
 1822              		.loc 1 233 3 is_stmt 1 view .LVU439
 1823              	@ src/b2d_lite.c:233: 		kTangent += a->body1->invI * (Dot(r1, r1) - rt1 * rt1) + a->body2->invI * (
 233:src/b2d_lite.c **** 		c->massTangent = 1.0f / kTangent;
 1824              		.loc 1 233 33 is_stmt 0 view .LVU440
 1825 019e FFF7FEFF 		bl	Dot		@
 1826              	.LVL98:
 1827              	@ src/b2d_lite.c:233: 		kTangent += a->body1->invI * (Dot(r1, r1) - rt1 * rt1) + a->body2->invI * (
 233:src/b2d_lite.c **** 		c->massTangent = 1.0f / kTangent;
 1828              		.loc 1 233 45 view .LVU441
 1829 01a2 A8EEE80A 		vfms.f32	s0, s17, s17	@ tmp336, rt1, rt1
 1830              	@ src/b2d_lite.c:233: 		kTangent += a->body1->invI * (Dot(r1, r1) - rt1 * rt1) + a->body2->invI * (
 233:src/b2d_lite.c **** 		c->massTangent = 1.0f / kTangent;
 1831              		.loc 1 233 78 view .LVU442
 1832 01a6 9DED021A 		vldr.32	s2, [sp, #8]	@ r2, r2
 1833 01aa DDED031A 		vldr.32	s3, [sp, #12]	@ r2, r2
 1834              	@ src/b2d_lite.c:233: 		kTangent += a->body1->invI * (Dot(r1, r1) - rt1 * rt1) + a->body2->invI * (
 233:src/b2d_lite.c **** 		c->massTangent = 1.0f / kTangent;
 1835              		.loc 1 233 68 view .LVU443
 1836 01ae D5F88830 		ldr	r3, [r5, #136]	@ a_72(D)->body2, a_72(D)->body2
 1837              	@ src/b2d_lite.c:233: 		kTangent += a->body1->invI * (Dot(r1, r1) - rt1 * rt1) + a->body2->invI * (
 233:src/b2d_lite.c **** 		c->massTangent = 1.0f / kTangent;
 1838              		.loc 1 233 78 view .LVU444
 1839 01b2 F0EE610A 		vmov.f32	s1, s3	@,
 1840              	@ src/b2d_lite.c:233: 		kTangent += a->body1->invI * (Dot(r1, r1) - rt1 * rt1) + a->body2->invI * (
 233:src/b2d_lite.c **** 		c->massTangent = 1.0f / kTangent;
 1841              		.loc 1 233 68 view .LVU445
 1842 01b6 D3ED0F8A 		vldr.32	s17, [r3, #60]	@ _33, _32->invI
 1843              	.LVL99:
 1844              	@ src/b2d_lite.c:233: 		kTangent += a->body1->invI * (Dot(r1, r1) - rt1 * rt1) + a->body2->invI * (
 233:src/b2d_lite.c **** 		c->massTangent = 1.0f / kTangent;
 1845              		.loc 1 233 45 view .LVU446
 1846 01ba F0EE40BA 		vmov.f32	s23, s0	@ _30, tmp336
 1847              	@ src/b2d_lite.c:233: 		kTangent += a->body1->invI * (Dot(r1, r1) - rt1 * rt1) + a->body2->invI * (
 233:src/b2d_lite.c **** 		c->massTangent = 1.0f / kTangent;
 1848              		.loc 1 233 78 view .LVU447
 1849 01be B0EE410A 		vmov.f32	s0, s2	@,
 1850 01c2 FFF7FEFF 		bl	Dot		@
 1851              	.LVL100:
 1852 01c6 F0EE407A 		vmov.f32	s15, s0	@ tmp337,
 1853              	@ src/b2d_lite.c:236: 		c->bias = -k_biasFactor * inv_dt * Min(0.0f, c->separation + k_allowedPenet
ARM GAS  /tmp/ccEGVymn.s 			page 43


 1854              		.loc 1 236 38 view .LVU448
 1855 01ca D4ED080A 		vldr.32	s1, [r4, #32]	@ MEM[base: c_73, offset: 32B], MEM[base: c_73, offset: 32B]
 1856 01ce B0EE4A0A 		vmov.f32	s0, s20	@, tmp321
 1857              	@ src/b2d_lite.c:233: 		kTangent += a->body1->invI * (Dot(r1, r1) - rt1 * rt1) + a->body2->invI * (
 233:src/b2d_lite.c **** 		c->massTangent = 1.0f / kTangent;
 1858              		.loc 1 233 90 view .LVU449
 1859 01d2 EBEE4B7A 		vfms.f32	s15, s22, s22	@ _36, rt2, rt2
 1860              	@ src/b2d_lite.c:236: 		c->bias = -k_biasFactor * inv_dt * Min(0.0f, c->separation + k_allowedPenet
 1861              		.loc 1 236 38 view .LVU450
 1862 01d6 70EEAA0A 		vadd.f32	s1, s1, s21	@, MEM[base: c_73, offset: 32B], tmp264
 1863              	@ src/b2d_lite.c:233: 		kTangent += a->body1->invI * (Dot(r1, r1) - rt1 * rt1) + a->body2->invI * (
 233:src/b2d_lite.c **** 		c->massTangent = 1.0f / kTangent;
 1864              		.loc 1 233 75 view .LVU451
 1865 01da 68EEA78A 		vmul.f32	s17, s17, s15	@ tmp258, _33, _36
 1866              	@ src/b2d_lite.c:233: 		kTangent += a->body1->invI * (Dot(r1, r1) - rt1 * rt1) + a->body2->invI * (
 233:src/b2d_lite.c **** 		c->massTangent = 1.0f / kTangent;
 1867              		.loc 1 233 58 view .LVU452
 1868 01de ECEE2B8A 		vfma.f32	s17, s24, s23	@ _94, _27, _30
 1869              	.LVL101:
 234:src/b2d_lite.c **** 
 1870              		.loc 1 234 3 is_stmt 1 view .LVU453
 1871              	@ src/b2d_lite.c:233: 		kTangent += a->body1->invI * (Dot(r1, r1) - rt1 * rt1) + a->body2->invI * (
 233:src/b2d_lite.c **** 		c->massTangent = 1.0f / kTangent;
 1872              		.loc 1 233 12 is_stmt 0 view .LVU454
 1873 01e2 38EE288A 		vadd.f32	s16, s16, s17	@ kTangent, kTangent, _94
 1874              	.LVL102:
 1875              	@ src/b2d_lite.c:234: 		c->massTangent = 1.0f / kTangent;
 234:src/b2d_lite.c **** 
 1876              		.loc 1 234 25 view .LVU455
 1877 01e6 C9EE087A 		vdiv.f32	s15, s18, s16	@ tmp260, tmp231, kTangent
 1878              	@ src/b2d_lite.c:234: 		c->massTangent = 1.0f / kTangent;
 234:src/b2d_lite.c **** 
 1879              		.loc 1 234 18 view .LVU456
 1880 01ea C4ED0D7A 		vstr.32	s15, [r4, #52]	@ tmp260, MEM[base: c_73, offset: 52B]
 1881              		.loc 1 236 3 is_stmt 1 view .LVU457
 1882              	@ src/b2d_lite.c:236: 		c->bias = -k_biasFactor * inv_dt * Min(0.0f, c->separation + k_allowedPenet
 1883              		.loc 1 236 38 is_stmt 0 view .LVU458
 1884 01ee FFF7FEFF 		bl	Min		@
 1885              	.LVL103:
 1886              	@ src/b2d_lite.c:236: 		c->bias = -k_biasFactor * inv_dt * Min(0.0f, c->separation + k_allowedPenet
 1887              		.loc 1 236 36 view .LVU459
 1888 01f2 29EE800A 		vmul.f32	s0, s19, s0	@ tmp266, _40, tmp338
 1889              	@ src/b2d_lite.c:238: 		if (accumulateImpulses)
 237:src/b2d_lite.c **** 
 238:src/b2d_lite.c **** 		if (accumulateImpulses)
 1890              		.loc 1 238 6 view .LVU460
 1891 01f6 3B68     		ldr	r3, [r7]	@ accumulateImpulses, accumulateImpulses
 1892              	@ src/b2d_lite.c:236: 		c->bias = -k_biasFactor * inv_dt * Min(0.0f, c->separation + k_allowedPenet
 236:src/b2d_lite.c **** 
 1893              		.loc 1 236 11 view .LVU461
 1894 01f8 84ED0E0A 		vstr.32	s0, [r4, #56]	@ tmp266, MEM[base: c_73, offset: 56B]
 1895              		.loc 1 238 3 is_stmt 1 view .LVU462
 1896              	@ src/b2d_lite.c:238: 		if (accumulateImpulses)
 1897              		.loc 1 238 6 is_stmt 0 view .LVU463
 1898 01fc 002B     		cmp	r3, #0	@ accumulateImpulses
 1899 01fe 3FF41DAF 		beq	.L87	@
 1900              	.LBB96:
ARM GAS  /tmp/ccEGVymn.s 			page 44


 239:src/b2d_lite.c **** 		{
 240:src/b2d_lite.c **** 			// Apply normal + friction impulse
 241:src/b2d_lite.c **** 			struct Vec2 P = sumVec2(scaledVec2(c->Pn, c->normal), scaledVec2(c->Pt, tangent));
 1901              		.loc 1 241 4 is_stmt 1 view .LVU464
 1902              	@ src/b2d_lite.c:241: 			struct Vec2 P = sumVec2(scaledVec2(c->Pn, c->normal), scaledVec2(c->Pt, ta
 1903              		.loc 1 241 20 is_stmt 0 view .LVU465
 1904 0202 D4ED020A 		vldr.32	s1, [r4, #8]	@, c_73->normal
 1905              	.LBE96:
 1906              	.LBE99:
 1907              	@ src/b2d_lite.c:215: 	for (int i = 0; i < a->numContacts; ++i)
 215:src/b2d_lite.c **** 	{
 1908              		.loc 1 215 38 view .LVU466
 1909 0206 0136     		adds	r6, r6, #1	@ i, i,
 1910              	.LVL104:
 1911              	.LBB100:
 1912              	.LBB97:
 1913              	@ src/b2d_lite.c:241: 			struct Vec2 P = sumVec2(scaledVec2(c->Pn, c->normal), scaledVec2(c->Pt, ta
 1914              		.loc 1 241 20 view .LVU467
 1915 0208 94ED090A 		vldr.32	s0, [r4, #36]	@, MEM[base: c_73, offset: 36B]
 1916 020c 4034     		adds	r4, r4, #64	@ ivtmp.135, ivtmp.135,
 1917              	.LVL105:
 1918              		.loc 1 241 20 view .LVU468
 1919 020e 14ED0D1A 		vldr.32	s2, [r4, #-52]	@, c_73->normal
 1920 0212 FFF7FEFF 		bl	scaledVec2		@
 1921              	.LVL106:
 1922 0216 B0EE407A 		vmov.f32	s14, s0	@ tmp339,
 1923 021a F0EE607A 		vmov.f32	s15, s1	@ tmp340,
 1924 021e 14ED060A 		vldr.32	s0, [r4, #-24]	@, MEM[base: c_73, offset: 40B]
 1925 0222 DDED040A 		vldr.32	s1, [sp, #16]	@, tangent
 1926 0226 9DED051A 		vldr.32	s2, [sp, #20]	@, tangent
 1927 022a 8DED087A 		vstr.32	s14, [sp, #32]	@ tmp339, D.7767
 1928 022e CDED097A 		vstr.32	s15, [sp, #36]	@ tmp340, D.7767
 1929 0232 FFF7FEFF 		bl	scaledVec2		@
 1930              	.LVL107:
 1931 0236 F0EE601A 		vmov.f32	s3, s1	@ tmp342,
 1932 023a DDED090A 		vldr.32	s1, [sp, #36]	@, D.7767
 1933 023e B0EE401A 		vmov.f32	s2, s0	@ tmp341,
 1934 0242 9DED080A 		vldr.32	s0, [sp, #32]	@, D.7767
 1935 0246 CDED0B1A 		vstr.32	s3, [sp, #44]	@ tmp278, D.7768
 1936 024a 8DED0A1A 		vstr.32	s2, [sp, #40]	@ tmp277, D.7768
 1937 024e FFF7FEFF 		bl	sumVec2		@
 1938              	.LVL108:
 1939              	@ src/b2d_lite.c:243: 			subfromVec2(&a->body1->velocity, scaledVec2(a->body1->invMass, P));
 242:src/b2d_lite.c **** 
 243:src/b2d_lite.c **** 			subfromVec2(&a->body1->velocity, scaledVec2(a->body1->invMass, P));
 1940              		.loc 1 243 18 view .LVU469
 1941 0252 D5F88480 		ldr	r8, [r5, #132]	@ _48, a_72(D)->body1
 1942              	@ src/b2d_lite.c:241: 			struct Vec2 P = sumVec2(scaledVec2(c->Pn, c->normal), scaledVec2(c->Pt, ta
 241:src/b2d_lite.c **** 
 1943              		.loc 1 241 20 view .LVU470
 1944 0256 B0EE601A 		vmov.f32	s2, s1	@ tmp284, tmp344
 1945 025a F0EE400A 		vmov.f32	s1, s0	@ tmp283, tmp343
 1946              	@ src/b2d_lite.c:243: 			subfromVec2(&a->body1->velocity, scaledVec2(a->body1->invMass, P));
 1947              		.loc 1 243 4 view .LVU471
 1948 025e 98ED0D0A 		vldr.32	s0, [r8, #52]	@, _48->invMass
 1949              	@ src/b2d_lite.c:241: 			struct Vec2 P = sumVec2(scaledVec2(c->Pn, c->normal), scaledVec2(c->Pt, ta
 241:src/b2d_lite.c **** 
ARM GAS  /tmp/ccEGVymn.s 			page 45


 1950              		.loc 1 241 20 view .LVU472
 1951 0262 8DED071A 		vstr.32	s2, [sp, #28]	@ tmp284, P
 1952              		.loc 1 243 4 is_stmt 1 view .LVU473
 1953              	@ src/b2d_lite.c:241: 			struct Vec2 P = sumVec2(scaledVec2(c->Pn, c->normal), scaledVec2(c->Pt, ta
 241:src/b2d_lite.c **** 
 1954              		.loc 1 241 20 is_stmt 0 view .LVU474
 1955 0266 CDED060A 		vstr.32	s1, [sp, #24]	@ tmp283, P
 1956              	@ src/b2d_lite.c:243: 			subfromVec2(&a->body1->velocity, scaledVec2(a->body1->invMass, P));
 1957              		.loc 1 243 4 view .LVU475
 1958 026a FFF7FEFF 		bl	scaledVec2		@
 1959              	.LVL109:
 1960 026e 08F10C00 		add	r0, r8, #12	@, _48,
 1961 0272 8DED0C0A 		vstr.32	s0, [sp, #48]	@ tmp345, D.7769
 1962 0276 CDED0D0A 		vstr.32	s1, [sp, #52]	@ tmp346, D.7769
 1963 027a FFF7FEFF 		bl	subfromVec2		@
 1964              	.LVL110:
 244:src/b2d_lite.c **** 			a->body1->angularVelocity -= a->body1->invI * Crossvv(r1, P);
 1965              		.loc 1 244 4 is_stmt 1 view .LVU476
 1966              	@ src/b2d_lite.c:244: 			a->body1->angularVelocity -= a->body1->invI * Crossvv(r1, P);
 1967              		.loc 1 244 41 is_stmt 0 view .LVU477
 1968 027e D5F88430 		ldr	r3, [r5, #132]	@ a_72(D)->body1, a_72(D)->body1
 1969              	@ src/b2d_lite.c:244: 			a->body1->angularVelocity -= a->body1->invI * Crossvv(r1, P);
 1970              		.loc 1 244 50 view .LVU478
 1971 0282 DDED071A 		vldr.32	s3, [sp, #28]	@, P
 1972 0286 9DED061A 		vldr.32	s2, [sp, #24]	@, P
 1973 028a DDED010A 		vldr.32	s1, [sp, #4]	@, r1
 1974 028e 9DED000A 		vldr.32	s0, [sp]	@, r1
 1975              	@ src/b2d_lite.c:244: 			a->body1->angularVelocity -= a->body1->invI * Crossvv(r1, P);
 1976              		.loc 1 244 41 view .LVU479
 1977 0292 93ED0F8A 		vldr.32	s16, [r3, #60]	@ _52, _51->invI
 1978              	.LVL111:
 1979              	@ src/b2d_lite.c:244: 			a->body1->angularVelocity -= a->body1->invI * Crossvv(r1, P);
 1980              		.loc 1 244 50 view .LVU480
 1981 0296 FFF7FEFF 		bl	Crossvv		@
 1982              	.LVL112:
 1983              	@ src/b2d_lite.c:244: 			a->body1->angularVelocity -= a->body1->invI * Crossvv(r1, P);
 1984              		.loc 1 244 5 view .LVU481
 1985 029a D5F88430 		ldr	r3, [r5, #132]	@ _54, a_72(D)->body1
 1986              	@ src/b2d_lite.c:244: 			a->body1->angularVelocity -= a->body1->invI * Crossvv(r1, P);
 1987              		.loc 1 244 50 view .LVU482
 1988 029e B0EE407A 		vmov.f32	s14, s0	@ tmp347,
 1989              	@ src/b2d_lite.c:246: 			addtoVec2(&a->body2->velocity, scaledVec2(a->body2->invMass, P));
 245:src/b2d_lite.c **** 
 246:src/b2d_lite.c **** 			addtoVec2(&a->body2->velocity, scaledVec2(a->body2->invMass, P));
 1990              		.loc 1 246 16 view .LVU483
 1991 02a2 D5F88880 		ldr	r8, [r5, #136]	@ _57, a_72(D)->body2
 1992              	@ src/b2d_lite.c:244: 			a->body1->angularVelocity -= a->body1->invI * Crossvv(r1, P);
 244:src/b2d_lite.c **** 			a->body1->angularVelocity -= a->body1->invI * Crossvv(r1, P);
 1993              		.loc 1 244 30 view .LVU484
 1994 02a6 D3ED057A 		vldr.32	s15, [r3, #20]	@ _54->angularVelocity, _54->angularVelocity
 1995              	@ src/b2d_lite.c:246: 			addtoVec2(&a->body2->velocity, scaledVec2(a->body2->invMass, P));
 1996              		.loc 1 246 4 view .LVU485
 1997 02aa 98ED0D0A 		vldr.32	s0, [r8, #52]	@, _57->invMass
 1998              	@ src/b2d_lite.c:244: 			a->body1->angularVelocity -= a->body1->invI * Crossvv(r1, P);
 244:src/b2d_lite.c **** 			a->body1->angularVelocity -= a->body1->invI * Crossvv(r1, P);
 1999              		.loc 1 244 30 view .LVU486
 2000 02ae E8EE477A 		vfms.f32	s15, s16, s14	@ _56, _52, tmp347
ARM GAS  /tmp/ccEGVymn.s 			page 46


 2001              	@ src/b2d_lite.c:246: 			addtoVec2(&a->body2->velocity, scaledVec2(a->body2->invMass, P));
 2002              		.loc 1 246 4 view .LVU487
 2003 02b2 DDED060A 		vldr.32	s1, [sp, #24]	@, P
 2004 02b6 9DED071A 		vldr.32	s2, [sp, #28]	@, P
 2005              	@ src/b2d_lite.c:244: 			a->body1->angularVelocity -= a->body1->invI * Crossvv(r1, P);
 244:src/b2d_lite.c **** 			a->body1->angularVelocity -= a->body1->invI * Crossvv(r1, P);
 2006              		.loc 1 244 30 view .LVU488
 2007 02ba C3ED057A 		vstr.32	s15, [r3, #20]	@ _56, _54->angularVelocity
 2008              		.loc 1 246 4 is_stmt 1 view .LVU489
 2009 02be FFF7FEFF 		bl	scaledVec2		@
 2010              	.LVL113:
 2011 02c2 08F10C00 		add	r0, r8, #12	@, _57,
 2012 02c6 8DED0E0A 		vstr.32	s0, [sp, #56]	@ tmp348, D.7771
 2013 02ca CDED0F0A 		vstr.32	s1, [sp, #60]	@ tmp349, D.7771
 2014 02ce FFF7FEFF 		bl	addtoVec2		@
 2015              	.LVL114:
 247:src/b2d_lite.c **** 			a->body2->angularVelocity += a->body2->invI * Crossvv(r2, P);
 2016              		.loc 1 247 4 view .LVU490
 2017              	@ src/b2d_lite.c:247: 			a->body2->angularVelocity += a->body2->invI * Crossvv(r2, P);
 2018              		.loc 1 247 41 is_stmt 0 view .LVU491
 2019 02d2 D5F88830 		ldr	r3, [r5, #136]	@ a_72(D)->body2, a_72(D)->body2
 2020              	@ src/b2d_lite.c:247: 			a->body2->angularVelocity += a->body2->invI * Crossvv(r2, P);
 2021              		.loc 1 247 50 view .LVU492
 2022 02d6 9DED061A 		vldr.32	s2, [sp, #24]	@, P
 2023 02da DDED071A 		vldr.32	s3, [sp, #28]	@, P
 2024 02de 9DED020A 		vldr.32	s0, [sp, #8]	@, r2
 2025 02e2 DDED030A 		vldr.32	s1, [sp, #12]	@, r2
 2026              	@ src/b2d_lite.c:247: 			a->body2->angularVelocity += a->body2->invI * Crossvv(r2, P);
 2027              		.loc 1 247 41 view .LVU493
 2028 02e6 93ED0F8A 		vldr.32	s16, [r3, #60]	@ _61, _60->invI
 2029              	@ src/b2d_lite.c:247: 			a->body2->angularVelocity += a->body2->invI * Crossvv(r2, P);
 2030              		.loc 1 247 50 view .LVU494
 2031 02ea FFF7FEFF 		bl	Crossvv		@
 2032              	.LVL115:
 2033              	@ src/b2d_lite.c:247: 			a->body2->angularVelocity += a->body2->invI * Crossvv(r2, P);
 2034              		.loc 1 247 5 view .LVU495
 2035 02ee D5F88830 		ldr	r3, [r5, #136]	@ _63, a_72(D)->body2
 2036              	@ src/b2d_lite.c:247: 			a->body2->angularVelocity += a->body2->invI * Crossvv(r2, P);
 2037              		.loc 1 247 30 view .LVU496
 2038 02f2 D3ED057A 		vldr.32	s15, [r3, #20]	@ _63->angularVelocity, _63->angularVelocity
 2039 02f6 E8EE007A 		vfma.f32	s15, s16, s0	@ _65, _61, tmp350
 2040 02fa C3ED057A 		vstr.32	s15, [r3, #20]	@ _65, _63->angularVelocity
 2041              	.LBE97:
 2042              	.LBE100:
 215:src/b2d_lite.c **** 	{
 2043              		.loc 1 215 38 is_stmt 1 view .LVU497
 2044              	.LVL116:
 215:src/b2d_lite.c **** 	{
 2045              		.loc 1 215 18 view .LVU498
 2046              	@ src/b2d_lite.c:215: 	for (int i = 0; i < a->numContacts; ++i)
 215:src/b2d_lite.c **** 	{
 2047              		.loc 1 215 2 is_stmt 0 view .LVU499
 2048 02fe D5F88030 		ldr	r3, [r5, #128]	@ a_72(D)->numContacts, a_72(D)->numContacts
 2049 0302 B342     		cmp	r3, r6	@ a_72(D)->numContacts, i
 2050 0304 3FF7A1AE 		bgt	.L88		@,
 2051              	.LVL117:
 2052              	.L84:
ARM GAS  /tmp/ccEGVymn.s 			page 47


 215:src/b2d_lite.c **** 	{
 2053              		.loc 1 215 2 view .LVU500
 2054              	.LBE101:
 2055              	@ src/b2d_lite.c:250: }
 248:src/b2d_lite.c **** 		}
 249:src/b2d_lite.c **** 	}
 250:src/b2d_lite.c **** }
 2056              		.loc 1 250 1 view .LVU501
 2057 0308 10B0     		add	sp, sp, #64	@,,
 2058              	.LCFI31:
 2059              		.cfi_def_cfa_offset 64
 2060              		@ sp needed	@
 2061 030a BDEC0A8B 		vldm	sp!, {d8-d12}	@,
 2062              	.LCFI32:
 2063              		.cfi_restore 88
 2064              		.cfi_restore 89
 2065              		.cfi_restore 86
 2066              		.cfi_restore 87
 2067              		.cfi_restore 84
 2068              		.cfi_restore 85
 2069              		.cfi_restore 82
 2070              		.cfi_restore 83
 2071              		.cfi_restore 80
 2072              		.cfi_restore 81
 2073              		.cfi_def_cfa_offset 24
 2074 030e BDE8F081 		pop	{r4, r5, r6, r7, r8, pc}	@
 2075              	.L97:
 2076 0312 00BF     		.align	2
 2077              	.L96:
 2078 0314 00000000 		.word	.LANCHOR1
 2079 0318 CDCC4C3E 		.word	1045220557
 2080 031c 00000000 		.word	0
 2081 0320 00000000 		.word	.LANCHOR2
 2082 0324 0AD7233C 		.word	1008981770
 2083              		.cfi_endproc
 2084              	.LFE9:
 2085              		.size	PreStep, .-PreStep
 2086              		.section	.text.ApplyImpulse,"ax",%progbits
 2087              		.align	1
 2088              		.p2align 4,,15
 2089              		.global	ApplyImpulse
 2090              		.syntax unified
 2091              		.thumb
 2092              		.thumb_func
 2093              		.fpu fpv5-sp-d16
 2094              		.type	ApplyImpulse, %function
 2095              	ApplyImpulse:
 2096              	.LVL118:
 2097              	.LFB10:
 251:src/b2d_lite.c **** 
 252:src/b2d_lite.c **** void ApplyImpulse(struct Arbiter *a)
 253:src/b2d_lite.c **** {
 2098              		.loc 1 253 1 is_stmt 1 view -0
 2099              		.cfi_startproc
 2100              		@ args = 0, pretend = 0, frame = 128
 2101              		@ frame_needed = 0, uses_anonymous_args = 0
 254:src/b2d_lite.c **** 	struct Body *b1 = a->body1;
ARM GAS  /tmp/ccEGVymn.s 			page 48


 2102              		.loc 1 254 2 view .LVU503
 2103              	@ src/b2d_lite.c:253: {
 253:src/b2d_lite.c **** 	struct Body *b1 = a->body1;
 2104              		.loc 1 253 1 is_stmt 0 view .LVU504
 2105 0000 2DE9F04F 		push	{r4, r5, r6, r7, r8, r9, r10, fp, lr}	@
 2106              	.LCFI33:
 2107              		.cfi_def_cfa_offset 36
 2108              		.cfi_offset 4, -36
 2109              		.cfi_offset 5, -32
 2110              		.cfi_offset 6, -28
 2111              		.cfi_offset 7, -24
 2112              		.cfi_offset 8, -20
 2113              		.cfi_offset 9, -16
 2114              		.cfi_offset 10, -12
 2115              		.cfi_offset 11, -8
 2116              		.cfi_offset 14, -4
 2117              	@ src/b2d_lite.c:254: 	struct Body *b1 = a->body1;
 2118              		.loc 1 254 15 view .LVU505
 2119 0004 D0E92035 		ldrd	r3, r5, [r0, #128]	@ a_53(D)->numContacts, b1, a,
 2120              	.LVL119:
 255:src/b2d_lite.c **** 	struct Body *b2 = a->body2;
 2121              		.loc 1 255 2 is_stmt 1 view .LVU506
 2122              	@ src/b2d_lite.c:253: {
 253:src/b2d_lite.c **** 	struct Body *b1 = a->body1;
 2123              		.loc 1 253 1 is_stmt 0 view .LVU507
 2124 0008 2DED048B 		vpush.64	{d8, d9}	@
 2125              	.LCFI34:
 2126              		.cfi_def_cfa_offset 52
 2127              		.cfi_offset 80, -52
 2128              		.cfi_offset 81, -48
 2129              		.cfi_offset 82, -44
 2130              		.cfi_offset 83, -40
 2131              	.LBB102:
 2132              	@ src/b2d_lite.c:257: 	for (int i = 0; i < a->numContacts; ++i)
 256:src/b2d_lite.c **** 
 257:src/b2d_lite.c **** 	for (int i = 0; i < a->numContacts; ++i)
 2133              		.loc 1 257 2 view .LVU508
 2134 000c 002B     		cmp	r3, #0	@ a_53(D)->numContacts,
 2135              	.LBE102:
 2136              	@ src/b2d_lite.c:253: {
 253:src/b2d_lite.c **** 	struct Body *b1 = a->body1;
 2137              		.loc 1 253 1 view .LVU509
 2138 000e A1B0     		sub	sp, sp, #132	@,,
 2139              	.LCFI35:
 2140              		.cfi_def_cfa_offset 184
 2141              	@ src/b2d_lite.c:255: 	struct Body *b2 = a->body2;
 255:src/b2d_lite.c **** 	struct Body *b2 = a->body2;
 2142              		.loc 1 255 15 view .LVU510
 2143 0010 D0F88860 		ldr	r6, [r0, #136]	@ b2, a_53(D)->body2
 2144              	.LVL120:
 2145              		.loc 1 257 2 is_stmt 1 view .LVU511
 2146              	.LBB112:
 2147              		.loc 1 257 7 view .LVU512
 2148              		.loc 1 257 18 view .LVU513
 2149              	@ src/b2d_lite.c:257: 	for (int i = 0; i < a->numContacts; ++i)
 2150              		.loc 1 257 2 is_stmt 0 view .LVU514
 2151 0014 40F3BD81 		ble	.L98		@,
ARM GAS  /tmp/ccEGVymn.s 			page 49


 2152 0018 8046     		mov	r8, r0	@ a, tmp331
 2153 001a 05F10C0B 		add	fp, r5, #12	@ pretmp_125, b1,
 2154 001e 06F10C0A 		add	r10, r6, #12	@ pretmp_127, b2,
 2155 0022 0446     		mov	r4, r0	@ ivtmp.143, a
 2156              	@ src/b2d_lite.c:257: 	for (int i = 0; i < a->numContacts; ++i)
 2157              		.loc 1 257 11 view .LVU515
 2158 0024 0027     		movs	r7, #0	@ i,
 2159 0026 DFF87893 		ldr	r9, .L109+4	@ tmp328,
 2160              	.LBB103:
 2161              	@ src/b2d_lite.c:281: 			dPn = Max(dPn, 0.0f);
 258:src/b2d_lite.c **** 	{
 259:src/b2d_lite.c **** 		struct Contact *c = a->contacts + i;
 260:src/b2d_lite.c **** 		c->r1 = diffVec2(c->position, b1->position);
 261:src/b2d_lite.c **** 		c->r2 = diffVec2(c->position, b2->position);
 262:src/b2d_lite.c **** 
 263:src/b2d_lite.c **** 		// Relative velocity at contact
 264:src/b2d_lite.c **** 		struct Vec2 dv = diffVec2(sumVec2(b2->velocity, Crosssv(b2->angularVelocity, c->r2)),
 265:src/b2d_lite.c **** 								  sumVec2(b1->velocity, Crosssv(b1->angularVelocity, c->r1)));
 266:src/b2d_lite.c **** 
 267:src/b2d_lite.c **** 		// Compute normal impulse
 268:src/b2d_lite.c **** 		float vn = Dot(dv, c->normal);
 269:src/b2d_lite.c **** 
 270:src/b2d_lite.c **** 		float dPn = c->massNormal * (-vn + c->bias);
 271:src/b2d_lite.c **** 
 272:src/b2d_lite.c **** 		if (accumulateImpulses)
 273:src/b2d_lite.c **** 		{
 274:src/b2d_lite.c **** 			// Clamp the accumulated impulse
 275:src/b2d_lite.c **** 			float Pn0 = c->Pn;
 276:src/b2d_lite.c **** 			c->Pn = Max(Pn0 + dPn, 0.0f);
 277:src/b2d_lite.c **** 			dPn = c->Pn - Pn0;
 278:src/b2d_lite.c **** 		}
 279:src/b2d_lite.c **** 		else
 280:src/b2d_lite.c **** 		{
 281:src/b2d_lite.c **** 			dPn = Max(dPn, 0.0f);
 2162              		.loc 1 281 10 view .LVU516
 2163 002a DFEDDC8A 		vldr.32	s17, .L109	@ tmp329,
 2164 002e 2BE1     		b	.L104		@
 2165              	.LVL121:
 2166              	.L108:
 2167              	.LBB104:
 275:src/b2d_lite.c **** 			c->Pn = Max(Pn0 + dPn, 0.0f);
 2168              		.loc 1 275 4 is_stmt 1 view .LVU517
 2169              	@ src/b2d_lite.c:275: 			float Pn0 = c->Pn;
 275:src/b2d_lite.c **** 			c->Pn = Max(Pn0 + dPn, 0.0f);
 2170              		.loc 1 275 10 is_stmt 0 view .LVU518
 2171 0030 94ED098A 		vldr.32	s16, [r4, #36]	@ Pn0, MEM[base: c_56, offset: 36B]
 2172              	.LVL122:
 276:src/b2d_lite.c **** 			dPn = c->Pn - Pn0;
 2173              		.loc 1 276 4 is_stmt 1 view .LVU519
 2174              	@ src/b2d_lite.c:276: 			c->Pn = Max(Pn0 + dPn, 0.0f);
 276:src/b2d_lite.c **** 			dPn = c->Pn - Pn0;
 2175              		.loc 1 276 12 is_stmt 0 view .LVU520
 2176 0034 F0EE680A 		vmov.f32	s1, s17	@, tmp329
 2177 0038 30EE080A 		vadd.f32	s0, s0, s16	@, dPn, Pn0
 2178              	.LVL123:
 276:src/b2d_lite.c **** 			dPn = c->Pn - Pn0;
 2179              		.loc 1 276 12 view .LVU521
ARM GAS  /tmp/ccEGVymn.s 			page 50


 2180 003c FFF7FEFF 		bl	Max		@
 2181              	.LVL124:
 2182              	@ src/b2d_lite.c:277: 			dPn = c->Pn - Pn0;
 277:src/b2d_lite.c **** 		}
 2183              		.loc 1 277 8 view .LVU522
 2184 0040 30EE488A 		vsub.f32	s16, s0, s16	@ dPn, _11, Pn0
 2185              	.LVL125:
 2186              	@ src/b2d_lite.c:276: 			c->Pn = Max(Pn0 + dPn, 0.0f);
 276:src/b2d_lite.c **** 			dPn = c->Pn - Pn0;
 2187              		.loc 1 276 10 view .LVU523
 2188 0044 84ED090A 		vstr.32	s0, [r4, #36]	@ _11, MEM[base: c_56, offset: 36B]
 277:src/b2d_lite.c **** 		}
 2189              		.loc 1 277 4 is_stmt 1 view .LVU524
 2190              	.LVL126:
 2191              	.L101:
 277:src/b2d_lite.c **** 		}
 2192              		.loc 1 277 4 is_stmt 0 view .LVU525
 2193              	.LBE104:
 282:src/b2d_lite.c **** 		}
 283:src/b2d_lite.c **** 
 284:src/b2d_lite.c **** 		// Apply contact impulse
 285:src/b2d_lite.c **** 		struct Vec2 Pn = scaledVec2(dPn, c->normal);
 2194              		.loc 1 285 3 is_stmt 1 view .LVU526
 2195              	@ src/b2d_lite.c:285: 		struct Vec2 Pn = scaledVec2(dPn, c->normal);
 2196              		.loc 1 285 20 is_stmt 0 view .LVU527
 2197 0048 B0EE480A 		vmov.f32	s0, s16	@, dPn
 2198 004c D4ED020A 		vldr.32	s1, [r4, #8]	@, c_56->normal
 2199 0050 94ED031A 		vldr.32	s2, [r4, #12]	@, c_56->normal
 2200 0054 FFF7FEFF 		bl	scaledVec2		@
 2201              	.LVL127:
 2202 0058 B0EE601A 		vmov.f32	s2, s1	@ tmp227, tmp350
 2203 005c F0EE407A 		vmov.f32	s15, s0	@ tmp349,
 2204              	@ src/b2d_lite.c:287: 		subfromVec2(&b1->velocity, scaledVec2(b1->invMass, Pn));
 286:src/b2d_lite.c **** 
 287:src/b2d_lite.c **** 		subfromVec2(&b1->velocity, scaledVec2(b1->invMass, Pn));
 2205              		.loc 1 287 3 view .LVU528
 2206 0060 95ED0D0A 		vldr.32	s0, [r5, #52]	@, b1_54->invMass
 2207              	@ src/b2d_lite.c:285: 		struct Vec2 Pn = scaledVec2(dPn, c->normal);
 285:src/b2d_lite.c **** 
 2208              		.loc 1 285 20 view .LVU529
 2209 0064 8DED031A 		vstr.32	s2, [sp, #12]	@ tmp227, Pn
 2210              		.loc 1 287 3 is_stmt 1 view .LVU530
 2211 0068 F0EE670A 		vmov.f32	s1, s15	@, tmp226
 2212              	@ src/b2d_lite.c:285: 		struct Vec2 Pn = scaledVec2(dPn, c->normal);
 285:src/b2d_lite.c **** 
 2213              		.loc 1 285 20 is_stmt 0 view .LVU531
 2214 006c CDED027A 		vstr.32	s15, [sp, #8]	@ tmp226, Pn
 2215              	@ src/b2d_lite.c:287: 		subfromVec2(&b1->velocity, scaledVec2(b1->invMass, Pn));
 2216              		.loc 1 287 3 view .LVU532
 2217 0070 FFF7FEFF 		bl	scaledVec2		@
 2218              	.LVL128:
 2219 0074 5846     		mov	r0, fp	@, pretmp_125
 2220 0076 8DED100A 		vstr.32	s0, [sp, #64]	@ tmp351, D.7780
 2221 007a CDED110A 		vstr.32	s1, [sp, #68]	@ tmp352, D.7780
 2222 007e FFF7FEFF 		bl	subfromVec2		@
 2223              	.LVL129:
 288:src/b2d_lite.c **** 		b1->angularVelocity -= b1->invI * Crossvv(c->r1, Pn);
ARM GAS  /tmp/ccEGVymn.s 			page 51


 2224              		.loc 1 288 3 is_stmt 1 view .LVU533
 2225              	@ src/b2d_lite.c:288: 		b1->angularVelocity -= b1->invI * Crossvv(c->r1, Pn);
 2226              		.loc 1 288 37 is_stmt 0 view .LVU534
 2227 0082 DDED031A 		vldr.32	s3, [sp, #12]	@, Pn
 2228 0086 9DED021A 		vldr.32	s2, [sp, #8]	@, Pn
 2229 008a D4ED050A 		vldr.32	s1, [r4, #20]	@, c_56->r1
 2230 008e 94ED040A 		vldr.32	s0, [r4, #16]	@, c_56->r1
 2231              	@ src/b2d_lite.c:288: 		b1->angularVelocity -= b1->invI * Crossvv(c->r1, Pn);
 2232              		.loc 1 288 28 view .LVU535
 2233 0092 95ED0F9A 		vldr.32	s18, [r5, #60]	@ _14, b1_54->invI
 2234              	@ src/b2d_lite.c:288: 		b1->angularVelocity -= b1->invI * Crossvv(c->r1, Pn);
 2235              		.loc 1 288 37 view .LVU536
 2236 0096 FFF7FEFF 		bl	Crossvv		@
 2237              	.LVL130:
 2238              	@ src/b2d_lite.c:288: 		b1->angularVelocity -= b1->invI * Crossvv(c->r1, Pn);
 2239              		.loc 1 288 23 view .LVU537
 2240 009a D5ED057A 		vldr.32	s15, [r5, #20]	@ b1_54->angularVelocity, b1_54->angularVelocity
 2241              	@ src/b2d_lite.c:290: 		addtoVec2(&b2->velocity, scaledVec2(b2->invMass, Pn));
 289:src/b2d_lite.c **** 
 290:src/b2d_lite.c **** 		addtoVec2(&b2->velocity, scaledVec2(b2->invMass, Pn));
 2242              		.loc 1 290 3 view .LVU538
 2243 009e DDED020A 		vldr.32	s1, [sp, #8]	@, Pn
 2244              	@ src/b2d_lite.c:288: 		b1->angularVelocity -= b1->invI * Crossvv(c->r1, Pn);
 288:src/b2d_lite.c **** 		b1->angularVelocity -= b1->invI * Crossvv(c->r1, Pn);
 2245              		.loc 1 288 23 view .LVU539
 2246 00a2 E9EE407A 		vfms.f32	s15, s18, s0	@ _17, _14, tmp353
 2247              	@ src/b2d_lite.c:290: 		addtoVec2(&b2->velocity, scaledVec2(b2->invMass, Pn));
 2248              		.loc 1 290 3 view .LVU540
 2249 00a6 9DED031A 		vldr.32	s2, [sp, #12]	@, Pn
 2250 00aa 96ED0D0A 		vldr.32	s0, [r6, #52]	@, b2_55->invMass
 2251              	@ src/b2d_lite.c:288: 		b1->angularVelocity -= b1->invI * Crossvv(c->r1, Pn);
 288:src/b2d_lite.c **** 		b1->angularVelocity -= b1->invI * Crossvv(c->r1, Pn);
 2252              		.loc 1 288 23 view .LVU541
 2253 00ae C5ED057A 		vstr.32	s15, [r5, #20]	@ _17, b1_54->angularVelocity
 2254              		.loc 1 290 3 is_stmt 1 view .LVU542
 2255 00b2 FFF7FEFF 		bl	scaledVec2		@
 2256              	.LVL131:
 2257 00b6 5046     		mov	r0, r10	@, pretmp_127
 2258 00b8 8DED120A 		vstr.32	s0, [sp, #72]	@ tmp354, D.7782
 2259 00bc CDED130A 		vstr.32	s1, [sp, #76]	@ tmp355, D.7782
 2260 00c0 FFF7FEFF 		bl	addtoVec2		@
 2261              	.LVL132:
 291:src/b2d_lite.c **** 		b2->angularVelocity += b2->invI * Crossvv(c->r2, Pn);
 2262              		.loc 1 291 3 view .LVU543
 2263              	@ src/b2d_lite.c:291: 		b2->angularVelocity += b2->invI * Crossvv(c->r2, Pn);
 2264              		.loc 1 291 37 is_stmt 0 view .LVU544
 2265 00c4 DDED031A 		vldr.32	s3, [sp, #12]	@, Pn
 2266 00c8 9DED021A 		vldr.32	s2, [sp, #8]	@, Pn
 2267 00cc D4ED070A 		vldr.32	s1, [r4, #28]	@, c_56->r2
 2268 00d0 94ED060A 		vldr.32	s0, [r4, #24]	@, c_56->r2
 2269              	@ src/b2d_lite.c:291: 		b2->angularVelocity += b2->invI * Crossvv(c->r2, Pn);
 2270              		.loc 1 291 28 view .LVU545
 2271 00d4 96ED0F9A 		vldr.32	s18, [r6, #60]	@ _20, b2_55->invI
 2272              	@ src/b2d_lite.c:291: 		b2->angularVelocity += b2->invI * Crossvv(c->r2, Pn);
 2273              		.loc 1 291 37 view .LVU546
 2274 00d8 FFF7FEFF 		bl	Crossvv		@
 2275              	.LVL133:
ARM GAS  /tmp/ccEGVymn.s 			page 52


 2276              	@ src/b2d_lite.c:291: 		b2->angularVelocity += b2->invI * Crossvv(c->r2, Pn);
 2277              		.loc 1 291 23 view .LVU547
 2278 00dc D6ED057A 		vldr.32	s15, [r6, #20]	@ b2_55->angularVelocity, b2_55->angularVelocity
 2279              	@ src/b2d_lite.c:294: 		dv = diffVec2(sumVec2(b2->velocity, Crosssv(b2->angularVelocity, c->r2)),
 292:src/b2d_lite.c **** 
 293:src/b2d_lite.c **** 		// Relative velocity at contact
 294:src/b2d_lite.c **** 		dv = diffVec2(sumVec2(b2->velocity, Crosssv(b2->angularVelocity, c->r2)),
 2280              		.loc 1 294 8 view .LVU548
 2281 00e0 D4ED060A 		vldr.32	s1, [r4, #24]	@, c_56->r2
 2282              	@ src/b2d_lite.c:291: 		b2->angularVelocity += b2->invI * Crossvv(c->r2, Pn);
 291:src/b2d_lite.c **** 		b2->angularVelocity += b2->invI * Crossvv(c->r2, Pn);
 2283              		.loc 1 291 23 view .LVU549
 2284 00e4 E9EE007A 		vfma.f32	s15, s18, s0	@ b2_55->angularVelocity, _20, tmp356
 2285              	@ src/b2d_lite.c:294: 		dv = diffVec2(sumVec2(b2->velocity, Crosssv(b2->angularVelocity, c->r2)),
 2286              		.loc 1 294 8 view .LVU550
 2287 00e8 94ED071A 		vldr.32	s2, [r4, #28]	@, c_56->r2
 2288              	@ src/b2d_lite.c:291: 		b2->angularVelocity += b2->invI * Crossvv(c->r2, Pn);
 291:src/b2d_lite.c **** 		b2->angularVelocity += b2->invI * Crossvv(c->r2, Pn);
 2289              		.loc 1 291 23 view .LVU551
 2290 00ec B0EE670A 		vmov.f32	s0, s15	@ _23, b2_55->angularVelocity
 2291 00f0 C6ED057A 		vstr.32	s15, [r6, #20]	@ _23, b2_55->angularVelocity
 2292              		.loc 1 294 3 is_stmt 1 view .LVU552
 2293              	@ src/b2d_lite.c:294: 		dv = diffVec2(sumVec2(b2->velocity, Crosssv(b2->angularVelocity, c->r2)),
 2294              		.loc 1 294 8 is_stmt 0 view .LVU553
 2295 00f4 FFF7FEFF 		bl	Crosssv		@
 2296              	.LVL134:
 2297 00f8 F0EE601A 		vmov.f32	s3, s1	@ tmp358,
 2298 00fc D6ED040A 		vldr.32	s1, [r6, #16]	@, b2_55->velocity
 2299 0100 B0EE401A 		vmov.f32	s2, s0	@ tmp357,
 2300 0104 96ED030A 		vldr.32	s0, [r6, #12]	@, b2_55->velocity
 2301 0108 CDED151A 		vstr.32	s3, [sp, #84]	@ tmp256, D.7784
 2302 010c 8DED141A 		vstr.32	s2, [sp, #80]	@ tmp255, D.7784
 2303 0110 FFF7FEFF 		bl	sumVec2		@
 2304              	.LVL135:
 2305 0114 B0EE407A 		vmov.f32	s14, s0	@ tmp359,
 2306 0118 95ED050A 		vldr.32	s0, [r5, #20]	@, b1_54->angularVelocity
 2307 011c F0EE607A 		vmov.f32	s15, s1	@ tmp360,
 2308 0120 D4ED040A 		vldr.32	s1, [r4, #16]	@, c_56->r1
 2309 0124 94ED051A 		vldr.32	s2, [r4, #20]	@, c_56->r1
 2310 0128 8DED167A 		vstr.32	s14, [sp, #88]	@ tmp359, D.7785
 2311 012c CDED177A 		vstr.32	s15, [sp, #92]	@ tmp360, D.7785
 2312 0130 FFF7FEFF 		bl	Crosssv		@
 2313              	.LVL136:
 2314 0134 F0EE601A 		vmov.f32	s3, s1	@ tmp362,
 2315 0138 D5ED040A 		vldr.32	s1, [r5, #16]	@, b1_54->velocity
 2316 013c B0EE401A 		vmov.f32	s2, s0	@ tmp266, tmp361
 2317 0140 95ED030A 		vldr.32	s0, [r5, #12]	@, b1_54->velocity
 2318 0144 CDED191A 		vstr.32	s3, [sp, #100]	@ tmp267, D.7786
 2319 0148 8DED181A 		vstr.32	s2, [sp, #96]	@ tmp266, D.7786
 2320 014c FFF7FEFF 		bl	sumVec2		@
 2321              	.LVL137:
 2322 0150 F0EE601A 		vmov.f32	s3, s1	@ tmp364,
 2323 0154 DDED170A 		vldr.32	s1, [sp, #92]	@, D.7785
 2324 0158 B0EE401A 		vmov.f32	s2, s0	@ tmp363,
 2325 015c 9DED160A 		vldr.32	s0, [sp, #88]	@, D.7785
 2326 0160 CDED1B1A 		vstr.32	s3, [sp, #108]	@ tmp273, D.7787
 2327 0164 8DED1A1A 		vstr.32	s2, [sp, #104]	@ tmp272, D.7787
ARM GAS  /tmp/ccEGVymn.s 			page 53


 2328 0168 FFF7FEFF 		bl	diffVec2		@
 2329              	.LVL138:
 2330 016c F0EE607A 		vmov.f32	s15, s1	@ tmp366,
 2331              	@ src/b2d_lite.c:297: 		struct Vec2 tangent = Crossvs(c->normal, 1.0f);
 295:src/b2d_lite.c **** 					  sumVec2(b1->velocity, Crosssv(b1->angularVelocity, c->r1)));
 296:src/b2d_lite.c **** 
 297:src/b2d_lite.c **** 		struct Vec2 tangent = Crossvs(c->normal, 1.0f);
 2332              		.loc 1 297 25 view .LVU554
 2333 0170 D4ED030A 		vldr.32	s1, [r4, #12]	@, c_56->normal
 2334              	@ src/b2d_lite.c:294: 		dv = diffVec2(sumVec2(b2->velocity, Crosssv(b2->angularVelocity, c->r2)),
 294:src/b2d_lite.c **** 					  sumVec2(b1->velocity, Crosssv(b1->angularVelocity, c->r1)));
 2335              		.loc 1 294 8 view .LVU555
 2336 0174 B0EE407A 		vmov.f32	s14, s0	@ tmp365,
 2337              	@ src/b2d_lite.c:297: 		struct Vec2 tangent = Crossvs(c->normal, 1.0f);
 2338              		.loc 1 297 25 view .LVU556
 2339 0178 94ED020A 		vldr.32	s0, [r4, #8]	@, c_56->normal
 2340 017c B7EE001A 		vmov.f32	s2, #1.0e+0	@,
 2341              	@ src/b2d_lite.c:294: 		dv = diffVec2(sumVec2(b2->velocity, Crosssv(b2->angularVelocity, c->r2)),
 294:src/b2d_lite.c **** 					  sumVec2(b1->velocity, Crosssv(b1->angularVelocity, c->r1)));
 2342              		.loc 1 294 8 view .LVU557
 2343 0180 CDED017A 		vstr.32	s15, [sp, #4]	@ tmp366, dv
 2344              		.loc 1 297 3 is_stmt 1 view .LVU558
 2345              	@ src/b2d_lite.c:294: 		dv = diffVec2(sumVec2(b2->velocity, Crosssv(b2->angularVelocity, c->r2)),
 294:src/b2d_lite.c **** 					  sumVec2(b1->velocity, Crosssv(b1->angularVelocity, c->r1)));
 2346              		.loc 1 294 8 is_stmt 0 view .LVU559
 2347 0184 8DED007A 		vstr.32	s14, [sp]	@ tmp365, dv
 2348              	@ src/b2d_lite.c:297: 		struct Vec2 tangent = Crossvs(c->normal, 1.0f);
 2349              		.loc 1 297 25 view .LVU560
 2350 0188 FFF7FEFF 		bl	Crossvs		@
 2351              	.LVL139:
 2352 018c B0EE401A 		vmov.f32	s2, s0	@ tmp367,
 2353              	@ src/b2d_lite.c:298: 		float vt = Dot(dv, tangent);
 298:src/b2d_lite.c **** 		float vt = Dot(dv, tangent);
 2354              		.loc 1 298 14 view .LVU561
 2355 0190 9DED000A 		vldr.32	s0, [sp]	@, dv
 2356              	@ src/b2d_lite.c:297: 		struct Vec2 tangent = Crossvs(c->normal, 1.0f);
 297:src/b2d_lite.c **** 		float vt = Dot(dv, tangent);
 2357              		.loc 1 297 25 view .LVU562
 2358 0194 F0EE601A 		vmov.f32	s3, s1	@ tmp368,
 2359              	@ src/b2d_lite.c:298: 		float vt = Dot(dv, tangent);
 2360              		.loc 1 298 14 view .LVU563
 2361 0198 DDED010A 		vldr.32	s1, [sp, #4]	@, dv
 2362              	@ src/b2d_lite.c:297: 		struct Vec2 tangent = Crossvs(c->normal, 1.0f);
 297:src/b2d_lite.c **** 		float vt = Dot(dv, tangent);
 2363              		.loc 1 297 25 view .LVU564
 2364 019c 8DED041A 		vstr.32	s2, [sp, #16]	@ tmp282, tangent
 2365 01a0 CDED051A 		vstr.32	s3, [sp, #20]	@ tmp283, tangent
 2366              		.loc 1 298 3 is_stmt 1 view .LVU565
 2367              	@ src/b2d_lite.c:298: 		float vt = Dot(dv, tangent);
 2368              		.loc 1 298 14 is_stmt 0 view .LVU566
 2369 01a4 FFF7FEFF 		bl	Dot		@
 2370              	.LVL140:
 299:src/b2d_lite.c **** 		float dPt = c->massTangent * (-vt);
 2371              		.loc 1 299 3 is_stmt 1 view .LVU567
 2372              	@ src/b2d_lite.c:299: 		float dPt = c->massTangent * (-vt);
 2373              		.loc 1 299 9 is_stmt 0 view .LVU568
 2374 01a8 D4ED0D7A 		vldr.32	s15, [r4, #52]	@ MEM[base: c_56, offset: 52B], MEM[base: c_56, offset: 52B]
ARM GAS  /tmp/ccEGVymn.s 			page 54


 2375              	@ src/b2d_lite.c:301: 		if (accumulateImpulses)
 300:src/b2d_lite.c **** 
 301:src/b2d_lite.c **** 		if (accumulateImpulses)
 2376              		.loc 1 301 6 view .LVU569
 2377 01ac D9F80030 		ldr	r3, [r9]	@ accumulateImpulses, accumulateImpulses
 2378              	@ src/b2d_lite.c:299: 		float dPt = c->massTangent * (-vt);
 299:src/b2d_lite.c **** 		float dPt = c->massTangent * (-vt);
 2379              		.loc 1 299 9 view .LVU570
 2380 01b0 20EE670A 		vnmul.f32	s0, s0, s15	@ dPt, tmp369, MEM[base: c_56, offset: 52B]
 2381              	.LVL141:
 2382              		.loc 1 301 3 is_stmt 1 view .LVU571
 2383              	.LBB105:
 2384              	@ src/b2d_lite.c:304: 			float maxPt = a->friction * c->Pn;
 302:src/b2d_lite.c **** 		{
 303:src/b2d_lite.c **** 			// Compute friction impulse
 304:src/b2d_lite.c **** 			float maxPt = a->friction * c->Pn;
 2385              		.loc 1 304 10 is_stmt 0 view .LVU572
 2386 01b4 98ED231A 		vldr.32	s2, [r8, #140]	@ a_53(D)->friction, a_53(D)->friction
 2387              	.LBE105:
 2388              	@ src/b2d_lite.c:301: 		if (accumulateImpulses)
 301:src/b2d_lite.c **** 		{
 2389              		.loc 1 301 6 view .LVU573
 2390 01b8 002B     		cmp	r3, #0	@ accumulateImpulses
 2391 01ba 00F0E380 		beq	.L102	@
 2392              	.LBB106:
 2393              		.loc 1 304 4 is_stmt 1 view .LVU574
 2394              	@ src/b2d_lite.c:304: 			float maxPt = a->friction * c->Pn;
 2395              		.loc 1 304 10 is_stmt 0 view .LVU575
 2396 01be D4ED097A 		vldr.32	s15, [r4, #36]	@ MEM[base: c_56, offset: 36B], MEM[base: c_56, offset: 36B]
 2397              	@ src/b2d_lite.c:307: 			float oldTangentImpulse = c->Pt;
 305:src/b2d_lite.c **** 
 306:src/b2d_lite.c **** 			// Clamp friction
 307:src/b2d_lite.c **** 			float oldTangentImpulse = c->Pt;
 2398              		.loc 1 307 10 view .LVU576
 2399 01c2 94ED0A8A 		vldr.32	s16, [r4, #40]	@ oldTangentImpulse, MEM[base: c_56, offset: 40B]
 2400              	.LVL142:
 2401              	@ src/b2d_lite.c:304: 			float maxPt = a->friction * c->Pn;
 304:src/b2d_lite.c **** 
 2402              		.loc 1 304 10 view .LVU577
 2403 01c6 21EE271A 		vmul.f32	s2, s2, s15	@ maxPt, a_53(D)->friction, MEM[base: c_56, offset: 36B]
 2404              	.LVL143:
 2405              		.loc 1 307 4 is_stmt 1 view .LVU578
 308:src/b2d_lite.c **** 			c->Pt = Clamp(oldTangentImpulse + dPt, -maxPt, maxPt);
 2406              		.loc 1 308 4 view .LVU579
 2407              	@ src/b2d_lite.c:308: 			c->Pt = Clamp(oldTangentImpulse + dPt, -maxPt, maxPt);
 2408              		.loc 1 308 12 is_stmt 0 view .LVU580
 2409 01ca 30EE080A 		vadd.f32	s0, s0, s16	@, dPt, oldTangentImpulse
 2410              	.LVL144:
 2411              		.loc 1 308 12 view .LVU581
 2412 01ce F1EE410A 		vneg.f32	s1, s2	@,
 2413 01d2 FFF7FEFF 		bl	Clamp		@
 2414              	.LVL145:
 2415              	@ src/b2d_lite.c:308: 			c->Pt = Clamp(oldTangentImpulse + dPt, -maxPt, maxPt);
 2416              		.loc 1 308 10 view .LVU582
 2417 01d6 84ED0A0A 		vstr.32	s0, [r4, #40]	@ _32, MEM[base: c_56, offset: 40B]
 309:src/b2d_lite.c **** 			dPt = c->Pt - oldTangentImpulse;
 2418              		.loc 1 309 4 is_stmt 1 view .LVU583
ARM GAS  /tmp/ccEGVymn.s 			page 55


 2419              	@ src/b2d_lite.c:309: 			dPt = c->Pt - oldTangentImpulse;
 2420              		.loc 1 309 8 is_stmt 0 view .LVU584
 2421 01da 30EE480A 		vsub.f32	s0, s0, s16	@ dPt, _32, oldTangentImpulse
 2422              	.LVL146:
 2423              	.L103:
 2424              		.loc 1 309 8 view .LVU585
 2425              	.LBE106:
 310:src/b2d_lite.c **** 		}
 311:src/b2d_lite.c **** 		else
 312:src/b2d_lite.c **** 		{
 313:src/b2d_lite.c **** 			float maxPt = a->friction * dPn;
 314:src/b2d_lite.c **** 			dPt = Clamp(dPt, -maxPt, maxPt);
 315:src/b2d_lite.c **** 		}
 316:src/b2d_lite.c **** 
 317:src/b2d_lite.c **** 		// Apply contact impulse
 318:src/b2d_lite.c **** 		struct Vec2 Pt = scaledVec2(dPt, tangent);
 2426              		.loc 1 318 3 is_stmt 1 discriminator 2 view .LVU586
 2427              	@ src/b2d_lite.c:318: 		struct Vec2 Pt = scaledVec2(dPt, tangent);
 2428              		.loc 1 318 20 is_stmt 0 discriminator 2 view .LVU587
 2429 01de DDED040A 		vldr.32	s1, [sp, #16]	@, tangent
 2430              	.LBE103:
 2431              	@ src/b2d_lite.c:257: 	for (int i = 0; i < a->numContacts; ++i)
 257:src/b2d_lite.c **** 	{
 2432              		.loc 1 257 38 discriminator 2 view .LVU588
 2433 01e2 0137     		adds	r7, r7, #1	@ i, i,
 2434              	.LVL147:
 2435              	.LBB108:
 2436              	@ src/b2d_lite.c:318: 		struct Vec2 Pt = scaledVec2(dPt, tangent);
 2437              		.loc 1 318 20 discriminator 2 view .LVU589
 2438 01e4 9DED051A 		vldr.32	s2, [sp, #20]	@, tangent
 2439 01e8 4034     		adds	r4, r4, #64	@ ivtmp.143, ivtmp.143,
 2440              	.LVL148:
 2441              		.loc 1 318 20 discriminator 2 view .LVU590
 2442 01ea FFF7FEFF 		bl	scaledVec2		@
 2443              	.LVL149:
 2444              		.loc 1 318 20 discriminator 2 view .LVU591
 2445 01ee F0EE407A 		vmov.f32	s15, s0	@ tmp372,
 2446 01f2 B0EE601A 		vmov.f32	s2, s1	@ tmp301, tmp373
 2447              	@ src/b2d_lite.c:320: 		subfromVec2(&b1->velocity, scaledVec2(b1->invMass, Pt));
 319:src/b2d_lite.c **** 
 320:src/b2d_lite.c **** 		subfromVec2(&b1->velocity, scaledVec2(b1->invMass, Pt));
 2448              		.loc 1 320 3 discriminator 2 view .LVU592
 2449 01f6 95ED0D0A 		vldr.32	s0, [r5, #52]	@, b1_54->invMass
 2450 01fa F0EE670A 		vmov.f32	s1, s15	@, tmp300
 2451              	@ src/b2d_lite.c:318: 		struct Vec2 Pt = scaledVec2(dPt, tangent);
 318:src/b2d_lite.c **** 
 2452              		.loc 1 318 20 discriminator 2 view .LVU593
 2453 01fe CDED067A 		vstr.32	s15, [sp, #24]	@ tmp300, Pt
 2454 0202 8DED071A 		vstr.32	s2, [sp, #28]	@ tmp301, Pt
 2455              		.loc 1 320 3 is_stmt 1 discriminator 2 view .LVU594
 2456 0206 FFF7FEFF 		bl	scaledVec2		@
 2457              	.LVL150:
 2458 020a 5846     		mov	r0, fp	@, pretmp_125
 2459 020c 8DED1C0A 		vstr.32	s0, [sp, #112]	@ tmp374, D.7791
 2460 0210 CDED1D0A 		vstr.32	s1, [sp, #116]	@ tmp375, D.7791
 2461 0214 FFF7FEFF 		bl	subfromVec2		@
 2462              	.LVL151:
ARM GAS  /tmp/ccEGVymn.s 			page 56


 321:src/b2d_lite.c **** 		b1->angularVelocity -= b1->invI * Crossvv(c->r1, Pt);
 2463              		.loc 1 321 3 discriminator 2 view .LVU595
 2464              	@ src/b2d_lite.c:321: 		b1->angularVelocity -= b1->invI * Crossvv(c->r1, Pt);
 2465              		.loc 1 321 37 is_stmt 0 discriminator 2 view .LVU596
 2466 0218 DDED071A 		vldr.32	s3, [sp, #28]	@, Pt
 2467 021c 54ED0B0A 		vldr.32	s1, [r4, #-44]	@, c_56->r1
 2468 0220 9DED061A 		vldr.32	s2, [sp, #24]	@, Pt
 2469 0224 14ED0C0A 		vldr.32	s0, [r4, #-48]	@, c_56->r1
 2470              	@ src/b2d_lite.c:321: 		b1->angularVelocity -= b1->invI * Crossvv(c->r1, Pt);
 2471              		.loc 1 321 28 discriminator 2 view .LVU597
 2472 0228 95ED0F8A 		vldr.32	s16, [r5, #60]	@ _36, b1_54->invI
 2473              	@ src/b2d_lite.c:321: 		b1->angularVelocity -= b1->invI * Crossvv(c->r1, Pt);
 2474              		.loc 1 321 37 discriminator 2 view .LVU598
 2475 022c FFF7FEFF 		bl	Crossvv		@
 2476              	.LVL152:
 2477              	@ src/b2d_lite.c:321: 		b1->angularVelocity -= b1->invI * Crossvv(c->r1, Pt);
 2478              		.loc 1 321 23 discriminator 2 view .LVU599
 2479 0230 D5ED057A 		vldr.32	s15, [r5, #20]	@ b1_54->angularVelocity, b1_54->angularVelocity
 2480              	@ src/b2d_lite.c:323: 		addtoVec2(&b2->velocity, scaledVec2(b2->invMass, Pt));
 322:src/b2d_lite.c **** 
 323:src/b2d_lite.c **** 		addtoVec2(&b2->velocity, scaledVec2(b2->invMass, Pt));
 2481              		.loc 1 323 3 discriminator 2 view .LVU600
 2482 0234 DDED060A 		vldr.32	s1, [sp, #24]	@, Pt
 2483              	@ src/b2d_lite.c:321: 		b1->angularVelocity -= b1->invI * Crossvv(c->r1, Pt);
 321:src/b2d_lite.c **** 		b1->angularVelocity -= b1->invI * Crossvv(c->r1, Pt);
 2484              		.loc 1 321 23 discriminator 2 view .LVU601
 2485 0238 E8EE407A 		vfms.f32	s15, s16, s0	@ _39, _36, tmp376
 2486              	@ src/b2d_lite.c:323: 		addtoVec2(&b2->velocity, scaledVec2(b2->invMass, Pt));
 2487              		.loc 1 323 3 discriminator 2 view .LVU602
 2488 023c 9DED071A 		vldr.32	s2, [sp, #28]	@, Pt
 2489 0240 96ED0D0A 		vldr.32	s0, [r6, #52]	@, b2_55->invMass
 2490              	@ src/b2d_lite.c:321: 		b1->angularVelocity -= b1->invI * Crossvv(c->r1, Pt);
 321:src/b2d_lite.c **** 		b1->angularVelocity -= b1->invI * Crossvv(c->r1, Pt);
 2491              		.loc 1 321 23 discriminator 2 view .LVU603
 2492 0244 C5ED057A 		vstr.32	s15, [r5, #20]	@ _39, b1_54->angularVelocity
 2493              		.loc 1 323 3 is_stmt 1 discriminator 2 view .LVU604
 2494 0248 FFF7FEFF 		bl	scaledVec2		@
 2495              	.LVL153:
 2496 024c 5046     		mov	r0, r10	@, pretmp_127
 2497 024e 8DED1E0A 		vstr.32	s0, [sp, #120]	@ tmp377, D.7793
 2498 0252 CDED1F0A 		vstr.32	s1, [sp, #124]	@ tmp378, D.7793
 2499 0256 FFF7FEFF 		bl	addtoVec2		@
 2500              	.LVL154:
 324:src/b2d_lite.c **** 		b2->angularVelocity += b2->invI * Crossvv(c->r2, Pt);
 2501              		.loc 1 324 3 discriminator 2 view .LVU605
 2502              	@ src/b2d_lite.c:324: 		b2->angularVelocity += b2->invI * Crossvv(c->r2, Pt);
 2503              		.loc 1 324 37 is_stmt 0 discriminator 2 view .LVU606
 2504 025a 14ED0A0A 		vldr.32	s0, [r4, #-40]	@, c_56->r2
 2505 025e 54ED090A 		vldr.32	s1, [r4, #-36]	@, c_56->r2
 2506 0262 9DED061A 		vldr.32	s2, [sp, #24]	@, Pt
 2507 0266 DDED071A 		vldr.32	s3, [sp, #28]	@, Pt
 2508              	@ src/b2d_lite.c:324: 		b2->angularVelocity += b2->invI * Crossvv(c->r2, Pt);
 2509              		.loc 1 324 28 discriminator 2 view .LVU607
 2510 026a 96ED0F8A 		vldr.32	s16, [r6, #60]	@ _41, b2_55->invI
 2511              	@ src/b2d_lite.c:324: 		b2->angularVelocity += b2->invI * Crossvv(c->r2, Pt);
 2512              		.loc 1 324 37 discriminator 2 view .LVU608
 2513 026e FFF7FEFF 		bl	Crossvv		@
ARM GAS  /tmp/ccEGVymn.s 			page 57


 2514              	.LVL155:
 2515              	@ src/b2d_lite.c:324: 		b2->angularVelocity += b2->invI * Crossvv(c->r2, Pt);
 2516              		.loc 1 324 23 discriminator 2 view .LVU609
 2517 0272 D6ED057A 		vldr.32	s15, [r6, #20]	@ b2_55->angularVelocity, b2_55->angularVelocity
 2518              	.LBE108:
 2519              	@ src/b2d_lite.c:257: 	for (int i = 0; i < a->numContacts; ++i)
 257:src/b2d_lite.c **** 	{
 2520              		.loc 1 257 2 discriminator 2 view .LVU610
 2521 0276 D8F88030 		ldr	r3, [r8, #128]	@ a_53(D)->numContacts, a_53(D)->numContacts
 2522              	.LBB109:
 2523              	@ src/b2d_lite.c:324: 		b2->angularVelocity += b2->invI * Crossvv(c->r2, Pt);
 2524              		.loc 1 324 23 discriminator 2 view .LVU611
 2525 027a E8EE007A 		vfma.f32	s15, s16, s0	@ _44, _41, tmp379
 2526              	.LBE109:
 2527              	@ src/b2d_lite.c:257: 	for (int i = 0; i < a->numContacts; ++i)
 257:src/b2d_lite.c **** 	{
 2528              		.loc 1 257 2 discriminator 2 view .LVU612
 2529 027e BB42     		cmp	r3, r7	@ a_53(D)->numContacts, i
 2530              	.LBB110:
 2531              	@ src/b2d_lite.c:324: 		b2->angularVelocity += b2->invI * Crossvv(c->r2, Pt);
 2532              		.loc 1 324 23 discriminator 2 view .LVU613
 2533 0280 C6ED057A 		vstr.32	s15, [r6, #20]	@ _44, b2_55->angularVelocity
 2534              	.LBE110:
 257:src/b2d_lite.c **** 	{
 2535              		.loc 1 257 38 is_stmt 1 discriminator 2 view .LVU614
 2536              	.LVL156:
 257:src/b2d_lite.c **** 	{
 2537              		.loc 1 257 18 discriminator 2 view .LVU615
 2538              	@ src/b2d_lite.c:257: 	for (int i = 0; i < a->numContacts; ++i)
 257:src/b2d_lite.c **** 	{
 2539              		.loc 1 257 2 is_stmt 0 discriminator 2 view .LVU616
 2540 0284 40F38580 		ble	.L98		@,
 2541              	.LVL157:
 2542              	.L104:
 2543              	.LBB111:
 259:src/b2d_lite.c **** 		c->r1 = diffVec2(c->position, b1->position);
 2544              		.loc 1 259 3 is_stmt 1 view .LVU617
 260:src/b2d_lite.c **** 		c->r2 = diffVec2(c->position, b2->position);
 2545              		.loc 1 260 3 view .LVU618
 2546              	@ src/b2d_lite.c:260: 		c->r1 = diffVec2(c->position, b1->position);
 260:src/b2d_lite.c **** 		c->r2 = diffVec2(c->position, b2->position);
 2547              		.loc 1 260 11 is_stmt 0 view .LVU619
 2548 0288 94ED000A 		vldr.32	s0, [r4]	@, c_56->position
 2549 028c D4ED010A 		vldr.32	s1, [r4, #4]	@, c_56->position
 2550 0290 95ED001A 		vldr.32	s2, [r5]	@, b1_54->position
 2551 0294 D5ED011A 		vldr.32	s3, [r5, #4]	@, b1_54->position
 2552 0298 FFF7FEFF 		bl	diffVec2		@
 2553              	.LVL158:
 2554              	@ src/b2d_lite.c:261: 		c->r2 = diffVec2(c->position, b2->position);
 261:src/b2d_lite.c **** 
 2555              		.loc 1 261 11 view .LVU620
 2556 029c 96ED001A 		vldr.32	s2, [r6]	@, b2_55->position
 2557              	@ src/b2d_lite.c:260: 		c->r1 = diffVec2(c->position, b1->position);
 260:src/b2d_lite.c **** 		c->r2 = diffVec2(c->position, b2->position);
 2558              		.loc 1 260 11 view .LVU621
 2559 02a0 84ED040A 		vstr.32	s0, [r4, #16]	@ tmp332, c_56->r1
 2560              	@ src/b2d_lite.c:261: 		c->r2 = diffVec2(c->position, b2->position);
ARM GAS  /tmp/ccEGVymn.s 			page 58


 261:src/b2d_lite.c **** 
 2561              		.loc 1 261 11 view .LVU622
 2562 02a4 94ED000A 		vldr.32	s0, [r4]	@, c_56->position
 2563 02a8 D6ED011A 		vldr.32	s3, [r6, #4]	@, b2_55->position
 2564              	@ src/b2d_lite.c:260: 		c->r1 = diffVec2(c->position, b1->position);
 260:src/b2d_lite.c **** 		c->r2 = diffVec2(c->position, b2->position);
 2565              		.loc 1 260 11 view .LVU623
 2566 02ac C4ED050A 		vstr.32	s1, [r4, #20]	@ tmp333, c_56->r1
 261:src/b2d_lite.c **** 
 2567              		.loc 1 261 3 is_stmt 1 view .LVU624
 2568              	@ src/b2d_lite.c:261: 		c->r2 = diffVec2(c->position, b2->position);
 261:src/b2d_lite.c **** 
 2569              		.loc 1 261 11 is_stmt 0 view .LVU625
 2570 02b0 D4ED010A 		vldr.32	s1, [r4, #4]	@, c_56->position
 2571 02b4 FFF7FEFF 		bl	diffVec2		@
 2572              	.LVL159:
 2573 02b8 F0EE407A 		vmov.f32	s15, s0	@ tmp334,
 2574 02bc B0EE601A 		vmov.f32	s2, s1	@ tmp183, tmp335
 2575              	@ src/b2d_lite.c:264: 		struct Vec2 dv = diffVec2(sumVec2(b2->velocity, Crosssv(b2->angularVelocity
 264:src/b2d_lite.c **** 								  sumVec2(b1->velocity, Crosssv(b1->angularVelocity, c->r1)));
 2576              		.loc 1 264 20 view .LVU626
 2577 02c0 96ED050A 		vldr.32	s0, [r6, #20]	@, b2_55->angularVelocity
 2578 02c4 F0EE670A 		vmov.f32	s1, s15	@, tmp182
 2579              	@ src/b2d_lite.c:261: 		c->r2 = diffVec2(c->position, b2->position);
 261:src/b2d_lite.c **** 
 2580              		.loc 1 261 11 view .LVU627
 2581 02c8 C4ED067A 		vstr.32	s15, [r4, #24]	@ tmp182, c_56->r2
 2582 02cc 84ED071A 		vstr.32	s2, [r4, #28]	@ tmp183, c_56->r2
 264:src/b2d_lite.c **** 								  sumVec2(b1->velocity, Crosssv(b1->angularVelocity, c->r1)));
 2583              		.loc 1 264 3 is_stmt 1 view .LVU628
 2584              	@ src/b2d_lite.c:264: 		struct Vec2 dv = diffVec2(sumVec2(b2->velocity, Crosssv(b2->angularVelocity
 264:src/b2d_lite.c **** 								  sumVec2(b1->velocity, Crosssv(b1->angularVelocity, c->r1)));
 2585              		.loc 1 264 20 is_stmt 0 view .LVU629
 2586 02d0 FFF7FEFF 		bl	Crosssv		@
 2587              	.LVL160:
 2588 02d4 B0EE401A 		vmov.f32	s2, s0	@ tmp336,
 2589 02d8 F0EE601A 		vmov.f32	s3, s1	@ tmp337,
 2590 02dc 96ED030A 		vldr.32	s0, [r6, #12]	@, b2_55->velocity
 2591 02e0 D6ED040A 		vldr.32	s1, [r6, #16]	@, b2_55->velocity
 2592 02e4 8DED081A 		vstr.32	s2, [sp, #32]	@ tmp187, D.7773
 2593 02e8 CDED091A 		vstr.32	s3, [sp, #36]	@ tmp188, D.7773
 2594 02ec FFF7FEFF 		bl	sumVec2		@
 2595              	.LVL161:
 2596 02f0 B0EE407A 		vmov.f32	s14, s0	@ tmp338,
 2597 02f4 95ED050A 		vldr.32	s0, [r5, #20]	@, b1_54->angularVelocity
 2598 02f8 F0EE607A 		vmov.f32	s15, s1	@ tmp339,
 2599 02fc D4ED040A 		vldr.32	s1, [r4, #16]	@, c_56->r1
 2600 0300 94ED051A 		vldr.32	s2, [r4, #20]	@, c_56->r1
 2601 0304 8DED0A7A 		vstr.32	s14, [sp, #40]	@ tmp338, D.7774
 2602 0308 CDED0B7A 		vstr.32	s15, [sp, #44]	@ tmp339, D.7774
 2603 030c FFF7FEFF 		bl	Crosssv		@
 2604              	.LVL162:
 2605 0310 F0EE601A 		vmov.f32	s3, s1	@ tmp341,
 2606 0314 D5ED040A 		vldr.32	s1, [r5, #16]	@, b1_54->velocity
 2607 0318 B0EE401A 		vmov.f32	s2, s0	@ tmp198, tmp340
 2608 031c 95ED030A 		vldr.32	s0, [r5, #12]	@, b1_54->velocity
 2609 0320 CDED0D1A 		vstr.32	s3, [sp, #52]	@ tmp199, D.7775
ARM GAS  /tmp/ccEGVymn.s 			page 59


 2610 0324 8DED0C1A 		vstr.32	s2, [sp, #48]	@ tmp198, D.7775
 2611 0328 FFF7FEFF 		bl	sumVec2		@
 2612              	.LVL163:
 2613 032c B0EE401A 		vmov.f32	s2, s0	@ tmp342,
 2614 0330 9DED0A0A 		vldr.32	s0, [sp, #40]	@, D.7774
 2615 0334 F0EE601A 		vmov.f32	s3, s1	@ tmp343,
 2616 0338 DDED0B0A 		vldr.32	s1, [sp, #44]	@, D.7774
 2617 033c 8DED0E1A 		vstr.32	s2, [sp, #56]	@ tmp204, D.7776
 2618 0340 CDED0F1A 		vstr.32	s3, [sp, #60]	@ tmp205, D.7776
 2619 0344 FFF7FEFF 		bl	diffVec2		@
 2620              	.LVL164:
 2621              	@ src/b2d_lite.c:268: 		float vn = Dot(dv, c->normal);
 268:src/b2d_lite.c **** 
 2622              		.loc 1 268 14 view .LVU630
 2623 0348 94ED021A 		vldr.32	s2, [r4, #8]	@, c_56->normal
 2624 034c D4ED031A 		vldr.32	s3, [r4, #12]	@, c_56->normal
 2625              	@ src/b2d_lite.c:264: 		struct Vec2 dv = diffVec2(sumVec2(b2->velocity, Crosssv(b2->angularVelocity
 264:src/b2d_lite.c **** 								  sumVec2(b1->velocity, Crosssv(b1->angularVelocity, c->r1)));
 2626              		.loc 1 264 20 view .LVU631
 2627 0350 8DED000A 		vstr.32	s0, [sp]	@ tmp344, dv
 2628 0354 CDED010A 		vstr.32	s1, [sp, #4]	@ tmp345, dv
 268:src/b2d_lite.c **** 
 2629              		.loc 1 268 3 is_stmt 1 view .LVU632
 2630              	@ src/b2d_lite.c:268: 		float vn = Dot(dv, c->normal);
 268:src/b2d_lite.c **** 
 2631              		.loc 1 268 14 is_stmt 0 view .LVU633
 2632 0358 FFF7FEFF 		bl	Dot		@
 2633              	.LVL165:
 270:src/b2d_lite.c **** 
 2634              		.loc 1 270 3 is_stmt 1 view .LVU634
 2635              	@ src/b2d_lite.c:270: 		float dPn = c->massNormal * (-vn + c->bias);
 270:src/b2d_lite.c **** 
 2636              		.loc 1 270 36 is_stmt 0 view .LVU635
 2637 035c D4ED0E7A 		vldr.32	s15, [r4, #56]	@ MEM[base: c_56, offset: 56B], MEM[base: c_56, offset: 56B]
 2638              	@ src/b2d_lite.c:270: 		float dPn = c->massNormal * (-vn + c->bias);
 270:src/b2d_lite.c **** 
 2639              		.loc 1 270 9 view .LVU636
 2640 0360 94ED0C7A 		vldr.32	s14, [r4, #48]	@ MEM[base: c_56, offset: 48B], MEM[base: c_56, offset: 48B]
 2641              	@ src/b2d_lite.c:270: 		float dPn = c->massNormal * (-vn + c->bias);
 270:src/b2d_lite.c **** 
 2642              		.loc 1 270 36 view .LVU637
 2643 0364 37EEC00A 		vsub.f32	s0, s15, s0	@ tmp216, MEM[base: c_56, offset: 56B], tmp346
 2644              	.LVL166:
 2645              	@ src/b2d_lite.c:272: 		if (accumulateImpulses)
 272:src/b2d_lite.c **** 		{
 2646              		.loc 1 272 6 view .LVU638
 2647 0368 D9F80030 		ldr	r3, [r9]	@ accumulateImpulses, accumulateImpulses
 2648              	@ src/b2d_lite.c:270: 		float dPn = c->massNormal * (-vn + c->bias);
 270:src/b2d_lite.c **** 
 2649              		.loc 1 270 9 view .LVU639
 2650 036c 20EE070A 		vmul.f32	s0, s0, s14	@ dPn, tmp216, MEM[base: c_56, offset: 48B]
 2651              	.LVL167:
 272:src/b2d_lite.c **** 		{
 2652              		.loc 1 272 3 is_stmt 1 view .LVU640
 2653              	@ src/b2d_lite.c:272: 		if (accumulateImpulses)
 272:src/b2d_lite.c **** 		{
 2654              		.loc 1 272 6 is_stmt 0 view .LVU641
ARM GAS  /tmp/ccEGVymn.s 			page 60


 2655 0370 002B     		cmp	r3, #0	@ accumulateImpulses
 2656 0372 7FF45DAE 		bne	.L108	@
 281:src/b2d_lite.c **** 		}
 2657              		.loc 1 281 4 is_stmt 1 view .LVU642
 2658              	@ src/b2d_lite.c:281: 			dPn = Max(dPn, 0.0f);
 281:src/b2d_lite.c **** 		}
 2659              		.loc 1 281 10 is_stmt 0 view .LVU643
 2660 0376 F0EE680A 		vmov.f32	s1, s17	@, tmp329
 2661 037a FFF7FEFF 		bl	Max		@
 2662              	.LVL168:
 281:src/b2d_lite.c **** 		}
 2663              		.loc 1 281 10 view .LVU644
 2664 037e B0EE408A 		vmov.f32	s16, s0	@ dPn, tmp348
 2665              	.LVL169:
 281:src/b2d_lite.c **** 		}
 2666              		.loc 1 281 10 view .LVU645
 2667 0382 61E6     		b	.L101		@
 2668              	.LVL170:
 2669              	.L102:
 2670              	.LBB107:
 313:src/b2d_lite.c **** 			dPt = Clamp(dPt, -maxPt, maxPt);
 2671              		.loc 1 313 4 is_stmt 1 view .LVU646
 2672              	@ src/b2d_lite.c:313: 			float maxPt = a->friction * dPn;
 313:src/b2d_lite.c **** 			dPt = Clamp(dPt, -maxPt, maxPt);
 2673              		.loc 1 313 10 is_stmt 0 view .LVU647
 2674 0384 28EE011A 		vmul.f32	s2, s16, s2	@ maxPt, dPn, a_53(D)->friction
 2675              	.LVL171:
 314:src/b2d_lite.c **** 		}
 2676              		.loc 1 314 4 is_stmt 1 view .LVU648
 2677              	@ src/b2d_lite.c:314: 			dPt = Clamp(dPt, -maxPt, maxPt);
 314:src/b2d_lite.c **** 		}
 2678              		.loc 1 314 10 is_stmt 0 view .LVU649
 2679 0388 F1EE410A 		vneg.f32	s1, s2	@,
 2680 038c FFF7FEFF 		bl	Clamp		@
 2681              	.LVL172:
 314:src/b2d_lite.c **** 		}
 2682              		.loc 1 314 10 view .LVU650
 2683 0390 25E7     		b	.L103		@
 2684              	.LVL173:
 2685              	.L98:
 314:src/b2d_lite.c **** 		}
 2686              		.loc 1 314 10 view .LVU651
 2687              	.LBE107:
 2688              	.LBE111:
 2689              	.LBE112:
 2690              	@ src/b2d_lite.c:326: }
 325:src/b2d_lite.c **** 	}
 326:src/b2d_lite.c **** }
 2691              		.loc 1 326 1 view .LVU652
 2692 0392 21B0     		add	sp, sp, #132	@,,
 2693              	.LCFI36:
 2694              		.cfi_def_cfa_offset 52
 2695              		@ sp needed	@
 2696 0394 BDEC048B 		vldm	sp!, {d8-d9}	@,
 2697              	.LCFI37:
 2698              		.cfi_restore 82
 2699              		.cfi_restore 83
ARM GAS  /tmp/ccEGVymn.s 			page 61


 2700              		.cfi_restore 80
 2701              		.cfi_restore 81
 2702              		.cfi_def_cfa_offset 36
 2703 0398 BDE8F08F 		pop	{r4, r5, r6, r7, r8, r9, r10, fp, pc}	@
 2704              	.LVL174:
 2705              	.L110:
 2706              		.loc 1 326 1 view .LVU653
 2707              		.align	2
 2708              	.L109:
 2709 039c 00000000 		.word	0
 2710 03a0 00000000 		.word	.LANCHOR2
 2711              		.cfi_endproc
 2712              	.LFE10:
 2713              		.size	ApplyImpulse, .-ApplyImpulse
 2714              		.section	.text.Step,"ax",%progbits
 2715              		.align	1
 2716              		.p2align 4,,15
 2717              		.global	Step
 2718              		.syntax unified
 2719              		.thumb
 2720              		.thumb_func
 2721              		.fpu fpv5-sp-d16
 2722              		.type	Step, %function
 2723              	Step:
 2724              	.LVL175:
 2725              	.LFB11:
 327:src/b2d_lite.c **** 
 328:src/b2d_lite.c **** void Step(float dt)
 329:src/b2d_lite.c **** {
 2726              		.loc 1 329 1 is_stmt 1 view -0
 2727              		.cfi_startproc
 2728              		@ args = 0, pretend = 0, frame = 32
 2729              		@ frame_needed = 0, uses_anonymous_args = 0
 330:src/b2d_lite.c **** 	float inv_dt = dt > 0.0f ? 1.0f / dt : 0.0f;
 2730              		.loc 1 330 2 view .LVU655
 2731              	@ src/b2d_lite.c:330: 	float inv_dt = dt > 0.0f ? 1.0f / dt : 0.0f;
 2732              		.loc 1 330 39 is_stmt 0 view .LVU656
 2733 0000 B5EEC00A 		vcmpe.f32	s0, #0	@ dt
 2734              	@ src/b2d_lite.c:329: {
 329:src/b2d_lite.c **** 	float inv_dt = dt > 0.0f ? 1.0f / dt : 0.0f;
 2735              		.loc 1 329 1 view .LVU657
 2736 0004 2DE9F043 		push	{r4, r5, r6, r7, r8, r9, lr}	@
 2737              	.LCFI38:
 2738              		.cfi_def_cfa_offset 28
 2739              		.cfi_offset 4, -28
 2740              		.cfi_offset 5, -24
 2741              		.cfi_offset 6, -20
 2742              		.cfi_offset 7, -16
 2743              		.cfi_offset 8, -12
 2744              		.cfi_offset 9, -8
 2745              		.cfi_offset 14, -4
 2746              	@ src/b2d_lite.c:330: 	float inv_dt = dt > 0.0f ? 1.0f / dt : 0.0f;
 2747              		.loc 1 330 39 view .LVU658
 2748 0008 F1EE10FA 		vmrs	APSR_nzcv, FPSCR
 2749              	@ src/b2d_lite.c:329: {
 329:src/b2d_lite.c **** 	float inv_dt = dt > 0.0f ? 1.0f / dt : 0.0f;
 2750              		.loc 1 329 1 view .LVU659
ARM GAS  /tmp/ccEGVymn.s 			page 62


 2751 000c 2DED028B 		vpush.64	{d8}	@
 2752              	.LCFI39:
 2753              		.cfi_def_cfa_offset 36
 2754              		.cfi_offset 80, -36
 2755              		.cfi_offset 81, -32
 2756 0010 B0EE408A 		vmov.f32	s16, s0	@ dt, tmp208
 2757 0014 89B0     		sub	sp, sp, #36	@,,
 2758              	.LCFI40:
 2759              		.cfi_def_cfa_offset 72
 2760              	@ src/b2d_lite.c:330: 	float inv_dt = dt > 0.0f ? 1.0f / dt : 0.0f;
 2761              		.loc 1 330 39 view .LVU660
 2762 0016 40F3A880 		ble	.L133		@,
 2763              	@ src/b2d_lite.c:330: 	float inv_dt = dt > 0.0f ? 1.0f / dt : 0.0f;
 2764              		.loc 1 330 39 discriminator 1 view .LVU661
 2765 001a F7EE007A 		vmov.f32	s15, #1.0e+0	@ tmp149,
 2766 001e C7EE808A 		vdiv.f32	s17, s15, s0	@ iftmp.23_26, tmp149, dt
 2767              	.L112:
 2768              	.LVL176:
 331:src/b2d_lite.c **** 
 332:src/b2d_lite.c **** 	// Determine overlapping bodies and update contact points.
 333:src/b2d_lite.c **** 	BroadPhase();
 2769              		.loc 1 333 2 is_stmt 1 discriminator 4 view .LVU662
 2770              	.LBB113:
 2771              	@ src/b2d_lite.c:336: 	for (int i = 0; i < g_numBodies; ++i)
 334:src/b2d_lite.c **** 
 335:src/b2d_lite.c **** 	// Integrate forces.
 336:src/b2d_lite.c **** 	for (int i = 0; i < g_numBodies; ++i)
 2772              		.loc 1 336 20 is_stmt 0 discriminator 4 view .LVU663
 2773 0022 534F     		ldr	r7, .L135	@ tmp206,
 2774              	.LBE113:
 2775              	@ src/b2d_lite.c:333: 	BroadPhase();
 333:src/b2d_lite.c **** 
 2776              		.loc 1 333 2 discriminator 4 view .LVU664
 2777 0024 FFF7FEFF 		bl	BroadPhase		@
 2778              	.LVL177:
 2779              		.loc 1 336 2 is_stmt 1 discriminator 4 view .LVU665
 2780              	.LBB116:
 2781              		.loc 1 336 7 discriminator 4 view .LVU666
 2782              		.loc 1 336 18 discriminator 4 view .LVU667
 2783              	@ src/b2d_lite.c:336: 	for (int i = 0; i < g_numBodies; ++i)
 2784              		.loc 1 336 2 is_stmt 0 discriminator 4 view .LVU668
 2785 0028 3B68     		ldr	r3, [r7]	@ g_numBodies, g_numBodies
 2786 002a 002B     		cmp	r3, #0	@ g_numBodies,
 2787 002c 46DD     		ble	.L114		@,
 2788 002e 514E     		ldr	r6, .L135+4	@ ivtmp.170,
 2789              	@ src/b2d_lite.c:336: 	for (int i = 0; i < g_numBodies; ++i)
 2790              		.loc 1 336 11 view .LVU669
 2791 0030 0025     		movs	r5, #0	@ i,
 2792              	.LBB114:
 2793              	@ src/b2d_lite.c:343: 		addtoVec2(&b->velocity, scaledVec2(dt, sumVec2(gravity, scaledVec2(b->invMa
 337:src/b2d_lite.c **** 	{
 338:src/b2d_lite.c **** 		struct Body *b = g_bodies[i];
 339:src/b2d_lite.c **** 
 340:src/b2d_lite.c **** 		if (b->invMass == 0.0f)
 341:src/b2d_lite.c **** 			continue;
 342:src/b2d_lite.c **** 
 343:src/b2d_lite.c **** 		addtoVec2(&b->velocity, scaledVec2(dt, sumVec2(gravity, scaledVec2(b->invMass, b->force))));
ARM GAS  /tmp/ccEGVymn.s 			page 63


 2794              		.loc 1 343 3 view .LVU670
 2795 0032 DFF85081 		ldr	r8, .L135+20	@ tmp207,
 2796              	.LVL178:
 2797              	.L116:
 338:src/b2d_lite.c **** 
 2798              		.loc 1 338 3 is_stmt 1 view .LVU671
 2799              		.loc 1 343 3 view .LVU672
 2800              	@ src/b2d_lite.c:338: 		struct Body *b = g_bodies[i];
 338:src/b2d_lite.c **** 
 2801              		.loc 1 338 16 is_stmt 0 view .LVU673
 2802 0036 56F8044B 		ldr	r4, [r6], #4	@ b, MEM[base: _89, offset: 0B]
 2803              	.LVL179:
 340:src/b2d_lite.c **** 			continue;
 2804              		.loc 1 340 3 is_stmt 1 view .LVU674
 2805              	.LBE114:
 2806              	@ src/b2d_lite.c:336: 	for (int i = 0; i < g_numBodies; ++i)
 336:src/b2d_lite.c **** 	{
 2807              		.loc 1 336 35 is_stmt 0 view .LVU675
 2808 003a 0135     		adds	r5, r5, #1	@ i, i,
 2809              	.LVL180:
 2810              	.LBB115:
 2811              	@ src/b2d_lite.c:340: 		if (b->invMass == 0.0f)
 340:src/b2d_lite.c **** 			continue;
 2812              		.loc 1 340 8 view .LVU676
 2813 003c 94ED0D0A 		vldr.32	s0, [r4, #52]	@ _1, b_50->invMass
 2814              	@ src/b2d_lite.c:340: 		if (b->invMass == 0.0f)
 340:src/b2d_lite.c **** 			continue;
 2815              		.loc 1 340 6 view .LVU677
 2816 0040 B5EE400A 		vcmp.f32	s0, #0	@ _1
 2817 0044 F1EE10FA 		vmrs	APSR_nzcv, FPSCR
 2818 0048 35D0     		beq	.L115		@,
 2819              	@ src/b2d_lite.c:343: 		addtoVec2(&b->velocity, scaledVec2(dt, sumVec2(gravity, scaledVec2(b->invMa
 2820              		.loc 1 343 3 view .LVU678
 2821 004a D4ED060A 		vldr.32	s1, [r4, #24]	@, b_50->force
 2822 004e 94ED071A 		vldr.32	s2, [r4, #28]	@, b_50->force
 2823 0052 FFF7FEFF 		bl	scaledVec2		@
 2824              	.LVL181:
 2825 0056 F0EE601A 		vmov.f32	s3, s1	@ tmp210,
 2826 005a B0EE401A 		vmov.f32	s2, s0	@ tmp155, tmp209
 2827 005e 98ED000A 		vldr.32	s0, [r8]	@, gravity
 2828 0062 D8ED010A 		vldr.32	s1, [r8, #4]	@, gravity
 2829 0066 CDED011A 		vstr.32	s3, [sp, #4]	@ tmp156, D.7801
 2830 006a 8DED001A 		vstr.32	s2, [sp]	@ tmp155, D.7801
 2831 006e FFF7FEFF 		bl	sumVec2		@
 2832              	.LVL182:
 2833 0072 F0EE407A 		vmov.f32	s15, s0	@ tmp211,
 2834 0076 B0EE601A 		vmov.f32	s2, s1	@ tmp163, tmp212
 2835 007a B0EE480A 		vmov.f32	s0, s16	@, dt
 2836 007e F0EE670A 		vmov.f32	s1, s15	@, tmp162
 2837 0082 CDED027A 		vstr.32	s15, [sp, #8]	@ tmp162, D.7802
 2838 0086 8DED031A 		vstr.32	s2, [sp, #12]	@ tmp163, D.7802
 2839 008a FFF7FEFF 		bl	scaledVec2		@
 2840              	.LVL183:
 2841 008e 04F10C00 		add	r0, r4, #12	@, b,
 2842 0092 8DED040A 		vstr.32	s0, [sp, #16]	@ tmp213, D.7803
 2843 0096 CDED050A 		vstr.32	s1, [sp, #20]	@ tmp214, D.7803
 2844 009a FFF7FEFF 		bl	addtoVec2		@
ARM GAS  /tmp/ccEGVymn.s 			page 64


 2845              	.LVL184:
 344:src/b2d_lite.c **** 		b->angularVelocity += dt * b->invI * b->torque;
 2846              		.loc 1 344 3 is_stmt 1 view .LVU679
 2847              	@ src/b2d_lite.c:344: 		b->angularVelocity += dt * b->invI * b->torque;
 2848              		.loc 1 344 28 is_stmt 0 view .LVU680
 2849 009e 94ED0F7A 		vldr.32	s14, [r4, #60]	@ b_50->invI, b_50->invI
 2850              	@ src/b2d_lite.c:344: 		b->angularVelocity += dt * b->invI * b->torque;
 2851              		.loc 1 344 22 view .LVU681
 2852 00a2 D4ED057A 		vldr.32	s15, [r4, #20]	@ b_50->angularVelocity, b_50->angularVelocity
 2853              	@ src/b2d_lite.c:344: 		b->angularVelocity += dt * b->invI * b->torque;
 2854              		.loc 1 344 28 view .LVU682
 2855 00a6 28EE077A 		vmul.f32	s14, s16, s14	@ tmp171, dt, b_50->invI
 2856              	@ src/b2d_lite.c:344: 		b->angularVelocity += dt * b->invI * b->torque;
 2857              		.loc 1 344 22 view .LVU683
 2858 00aa D4ED086A 		vldr.32	s13, [r4, #32]	@ b_50->torque, b_50->torque
 2859 00ae E7EE267A 		vfma.f32	s15, s14, s13	@ _8, tmp171, b_50->torque
 2860 00b2 C4ED057A 		vstr.32	s15, [r4, #20]	@ _8, b_50->angularVelocity
 2861              	.L115:
 2862              		.loc 1 344 22 view .LVU684
 2863              	.LBE115:
 336:src/b2d_lite.c **** 	{
 2864              		.loc 1 336 35 is_stmt 1 discriminator 2 view .LVU685
 2865              	.LVL185:
 336:src/b2d_lite.c **** 	{
 2866              		.loc 1 336 18 discriminator 2 view .LVU686
 2867              	@ src/b2d_lite.c:336: 	for (int i = 0; i < g_numBodies; ++i)
 336:src/b2d_lite.c **** 	{
 2868              		.loc 1 336 2 is_stmt 0 discriminator 2 view .LVU687
 2869 00b6 3B68     		ldr	r3, [r7]	@ g_numBodies, g_numBodies
 2870 00b8 AB42     		cmp	r3, r5	@ g_numBodies, i
 2871 00ba BCDC     		bgt	.L116		@,
 2872              	.LVL186:
 2873              	.L114:
 336:src/b2d_lite.c **** 	{
 2874              		.loc 1 336 2 discriminator 2 view .LVU688
 2875              	.LBE116:
 2876              	.LBB117:
 345:src/b2d_lite.c **** 	}
 346:src/b2d_lite.c **** 
 347:src/b2d_lite.c **** 	// Perform pre-steps.
 348:src/b2d_lite.c **** 
 349:src/b2d_lite.c **** 	for (int i = 0; i < g_numArbiters; i++)
 2877              		.loc 1 349 18 is_stmt 1 view .LVU689
 2878              	@ src/b2d_lite.c:349: 	for (int i = 0; i < g_numArbiters; i++)
 2879              		.loc 1 349 20 is_stmt 0 view .LVU690
 2880 00bc 2E4E     		ldr	r6, .L135+8	@ tmp205,
 2881              	@ src/b2d_lite.c:349: 	for (int i = 0; i < g_numArbiters; i++)
 2882              		.loc 1 349 2 view .LVU691
 2883 00be 3368     		ldr	r3, [r6]	@ g_numArbiters, g_numArbiters
 2884 00c0 002B     		cmp	r3, #0	@ g_numArbiters,
 2885 00c2 0BDD     		ble	.L117		@,
 2886 00c4 2D4D     		ldr	r5, .L135+12	@ ivtmp.165,
 2887              	@ src/b2d_lite.c:349: 	for (int i = 0; i < g_numArbiters; i++)
 2888              		.loc 1 349 11 view .LVU692
 2889 00c6 0024     		movs	r4, #0	@ i,
 2890              	.LVL187:
 2891              	.L118:
ARM GAS  /tmp/ccEGVymn.s 			page 65


 350:src/b2d_lite.c **** 	{
 351:src/b2d_lite.c **** 		PreStep(&g_arbiters[i], inv_dt);
 2892              		.loc 1 351 3 is_stmt 1 discriminator 3 view .LVU693
 2893 00c8 2846     		mov	r0, r5	@, ivtmp.165
 2894 00ca B0EE680A 		vmov.f32	s0, s17	@, iftmp.23_26
 2895 00ce FFF7FEFF 		bl	PreStep		@
 2896              	.LVL188:
 349:src/b2d_lite.c **** 	{
 2897              		.loc 1 349 37 discriminator 3 view .LVU694
 2898              	@ src/b2d_lite.c:349: 	for (int i = 0; i < g_numArbiters; i++)
 349:src/b2d_lite.c **** 	{
 2899              		.loc 1 349 38 is_stmt 0 discriminator 3 view .LVU695
 2900 00d2 0134     		adds	r4, r4, #1	@ i, i,
 2901              	.LVL189:
 349:src/b2d_lite.c **** 	{
 2902              		.loc 1 349 18 is_stmt 1 discriminator 3 view .LVU696
 2903              	@ src/b2d_lite.c:349: 	for (int i = 0; i < g_numArbiters; i++)
 349:src/b2d_lite.c **** 	{
 2904              		.loc 1 349 2 is_stmt 0 discriminator 3 view .LVU697
 2905 00d4 3368     		ldr	r3, [r6]	@ g_numArbiters, g_numArbiters
 2906 00d6 9035     		adds	r5, r5, #144	@ ivtmp.165, ivtmp.165,
 2907 00d8 A342     		cmp	r3, r4	@ g_numArbiters, i
 2908 00da F5DC     		bgt	.L118		@,
 2909              	.LVL190:
 2910              	.L117:
 349:src/b2d_lite.c **** 	{
 2911              		.loc 1 349 2 discriminator 3 view .LVU698
 2912              	.LBE117:
 2913              	.LBB118:
 352:src/b2d_lite.c **** 	}
 353:src/b2d_lite.c **** 
 354:src/b2d_lite.c **** 	// Perform iterations
 355:src/b2d_lite.c **** 	for (int it = 0; it < iterations; ++it)
 2914              		.loc 1 355 19 is_stmt 1 view .LVU699
 2915              	@ src/b2d_lite.c:355: 	for (int it = 0; it < iterations; ++it)
 2916              		.loc 1 355 22 is_stmt 0 view .LVU700
 2917 00dc DFF8A890 		ldr	r9, .L135+24	@ tmp204,
 2918              	@ src/b2d_lite.c:355: 	for (int it = 0; it < iterations; ++it)
 2919              		.loc 1 355 2 view .LVU701
 2920 00e0 D9F80030 		ldr	r3, [r9]	@ iterations, iterations
 2921 00e4 002B     		cmp	r3, #0	@ iterations,
 2922 00e6 14DD     		ble	.L120		@,
 2923              	@ src/b2d_lite.c:355: 	for (int it = 0; it < iterations; ++it)
 2924              		.loc 1 355 11 view .LVU702
 2925 00e8 4FF00008 		mov	r8, #0	@ it,
 2926              	.LVL191:
 2927              	.L119:
 2928              	.LBB119:
 356:src/b2d_lite.c **** 	{
 357:src/b2d_lite.c **** 		for (int i = 0; i < g_numArbiters; i++)
 2929              		.loc 1 357 19 is_stmt 1 view .LVU703
 2930              	@ src/b2d_lite.c:357: 		for (int i = 0; i < g_numArbiters; i++)
 2931              		.loc 1 357 3 is_stmt 0 view .LVU704
 2932 00ec 3368     		ldr	r3, [r6]	@ g_numArbiters, g_numArbiters
 2933 00ee 002B     		cmp	r3, #0	@ g_numArbiters,
 2934 00f0 09DD     		ble	.L123		@,
 2935 00f2 224D     		ldr	r5, .L135+12	@ ivtmp.160,
ARM GAS  /tmp/ccEGVymn.s 			page 66


 2936              	@ src/b2d_lite.c:357: 		for (int i = 0; i < g_numArbiters; i++)
 2937              		.loc 1 357 12 view .LVU705
 2938 00f4 0024     		movs	r4, #0	@ i,
 2939              	.LVL192:
 2940              	.L121:
 358:src/b2d_lite.c **** 			ApplyImpulse(&g_arbiters[i]);
 2941              		.loc 1 358 4 is_stmt 1 discriminator 3 view .LVU706
 2942 00f6 2846     		mov	r0, r5	@, ivtmp.160
 2943              	@ src/b2d_lite.c:357: 		for (int i = 0; i < g_numArbiters; i++)
 357:src/b2d_lite.c **** 			ApplyImpulse(&g_arbiters[i]);
 2944              		.loc 1 357 39 is_stmt 0 discriminator 3 view .LVU707
 2945 00f8 0134     		adds	r4, r4, #1	@ i, i,
 2946              	.LVL193:
 2947              	@ src/b2d_lite.c:358: 			ApplyImpulse(&g_arbiters[i]);
 2948              		.loc 1 358 4 discriminator 3 view .LVU708
 2949 00fa FFF7FEFF 		bl	ApplyImpulse		@
 2950              	.LVL194:
 357:src/b2d_lite.c **** 			ApplyImpulse(&g_arbiters[i]);
 2951              		.loc 1 357 38 is_stmt 1 discriminator 3 view .LVU709
 357:src/b2d_lite.c **** 			ApplyImpulse(&g_arbiters[i]);
 2952              		.loc 1 357 19 discriminator 3 view .LVU710
 2953              	@ src/b2d_lite.c:357: 		for (int i = 0; i < g_numArbiters; i++)
 357:src/b2d_lite.c **** 			ApplyImpulse(&g_arbiters[i]);
 2954              		.loc 1 357 3 is_stmt 0 discriminator 3 view .LVU711
 2955 00fe 3368     		ldr	r3, [r6]	@ g_numArbiters, g_numArbiters
 2956 0100 9035     		adds	r5, r5, #144	@ ivtmp.160, ivtmp.160,
 2957 0102 A342     		cmp	r3, r4	@ g_numArbiters, i
 2958 0104 F7DC     		bgt	.L121		@,
 2959              	.LVL195:
 2960              	.L123:
 357:src/b2d_lite.c **** 			ApplyImpulse(&g_arbiters[i]);
 2961              		.loc 1 357 3 discriminator 3 view .LVU712
 2962              	.LBE119:
 355:src/b2d_lite.c **** 	{
 2963              		.loc 1 355 36 is_stmt 1 view .LVU713
 2964 0106 08F10108 		add	r8, r8, #1	@ it, it,
 2965              	.LVL196:
 355:src/b2d_lite.c **** 	{
 2966              		.loc 1 355 19 view .LVU714
 2967              	@ src/b2d_lite.c:355: 	for (int it = 0; it < iterations; ++it)
 355:src/b2d_lite.c **** 	{
 2968              		.loc 1 355 2 is_stmt 0 view .LVU715
 2969 010a D9F80030 		ldr	r3, [r9]	@ iterations, iterations
 2970 010e 4345     		cmp	r3, r8	@ iterations, it
 2971 0110 ECDC     		bgt	.L119		@,
 2972              	.LVL197:
 2973              	.L120:
 355:src/b2d_lite.c **** 	{
 2974              		.loc 1 355 2 view .LVU716
 2975              	.LBE118:
 2976              	.LBB120:
 359:src/b2d_lite.c **** 	}
 360:src/b2d_lite.c **** 
 361:src/b2d_lite.c **** 	// Integrate Velocities
 362:src/b2d_lite.c **** 	for (int i = 0; i < g_numBodies; ++i)
 2977              		.loc 1 362 18 is_stmt 1 view .LVU717
 2978              	@ src/b2d_lite.c:362: 	for (int i = 0; i < g_numBodies; ++i)
ARM GAS  /tmp/ccEGVymn.s 			page 67


 2979              		.loc 1 362 2 is_stmt 0 view .LVU718
 2980 0112 3B68     		ldr	r3, [r7]	@ g_numBodies, g_numBodies
 2981 0114 002B     		cmp	r3, #0	@ g_numBodies,
 2982 0116 23DD     		ble	.L111		@,
 2983 0118 DFF85880 		ldr	r8, .L135+4	@ ivtmp.157,
 2984              	@ src/b2d_lite.c:362: 	for (int i = 0; i < g_numBodies; ++i)
 2985              		.loc 1 362 11 view .LVU719
 2986 011c 0026     		movs	r6, #0	@ i,
 2987              	.LBB121:
 2988              	@ src/b2d_lite.c:369: 		b->force.x = 0;
 363:src/b2d_lite.c **** 	{
 364:src/b2d_lite.c **** 		struct Body *b = g_bodies[i];
 365:src/b2d_lite.c **** 
 366:src/b2d_lite.c **** 		addtoVec2(&b->position, scaledVec2(dt, b->velocity));
 367:src/b2d_lite.c **** 		b->rotation += dt * b->angularVelocity;
 368:src/b2d_lite.c **** 
 369:src/b2d_lite.c **** 		b->force.x = 0;
 2989              		.loc 1 369 14 view .LVU720
 2990 011e 0025     		movs	r5, #0	@ tmp199,
 2991              	.LVL198:
 2992              	.L125:
 364:src/b2d_lite.c **** 
 2993              		.loc 1 364 3 is_stmt 1 discriminator 3 view .LVU721
 2994              	@ src/b2d_lite.c:364: 		struct Body *b = g_bodies[i];
 364:src/b2d_lite.c **** 
 2995              		.loc 1 364 16 is_stmt 0 discriminator 3 view .LVU722
 2996 0120 58F8044B 		ldr	r4, [r8], #4	@ b, MEM[base: _86, offset: 0B]
 2997              	.LVL199:
 366:src/b2d_lite.c **** 		b->rotation += dt * b->angularVelocity;
 2998              		.loc 1 366 3 is_stmt 1 discriminator 3 view .LVU723
 2999 0124 B0EE480A 		vmov.f32	s0, s16	@, dt
 3000              	.LBE121:
 3001              	@ src/b2d_lite.c:362: 	for (int i = 0; i < g_numBodies; ++i)
 362:src/b2d_lite.c **** 	{
 3002              		.loc 1 362 35 is_stmt 0 discriminator 3 view .LVU724
 3003 0128 0136     		adds	r6, r6, #1	@ i, i,
 3004              	.LVL200:
 3005              	.LBB122:
 3006              	@ src/b2d_lite.c:366: 		addtoVec2(&b->position, scaledVec2(dt, b->velocity));
 366:src/b2d_lite.c **** 		b->rotation += dt * b->angularVelocity;
 3007              		.loc 1 366 3 discriminator 3 view .LVU725
 3008 012a D4ED030A 		vldr.32	s1, [r4, #12]	@, b_37->velocity
 3009 012e 94ED041A 		vldr.32	s2, [r4, #16]	@, b_37->velocity
 3010 0132 FFF7FEFF 		bl	scaledVec2		@
 3011              	.LVL201:
 3012 0136 2046     		mov	r0, r4	@, b
 3013 0138 8DED060A 		vstr.32	s0, [sp, #24]	@ tmp215, D.7804
 3014 013c CDED070A 		vstr.32	s1, [sp, #28]	@ tmp216, D.7804
 3015 0140 FFF7FEFF 		bl	addtoVec2		@
 3016              	.LVL202:
 367:src/b2d_lite.c **** 
 3017              		.loc 1 367 3 is_stmt 1 discriminator 3 view .LVU726
 3018              	@ src/b2d_lite.c:367: 		b->rotation += dt * b->angularVelocity;
 367:src/b2d_lite.c **** 
 3019              		.loc 1 367 15 is_stmt 0 discriminator 3 view .LVU727
 3020 0144 D4ED027A 		vldr.32	s15, [r4, #8]	@ b_37->rotation, b_37->rotation
 3021 0148 94ED057A 		vldr.32	s14, [r4, #20]	@ b_37->angularVelocity, b_37->angularVelocity
ARM GAS  /tmp/ccEGVymn.s 			page 68


 3022              	.LBE122:
 3023              	@ src/b2d_lite.c:362: 	for (int i = 0; i < g_numBodies; ++i)
 362:src/b2d_lite.c **** 	{
 3024              		.loc 1 362 2 discriminator 3 view .LVU728
 3025 014c 3B68     		ldr	r3, [r7]	@ g_numBodies, g_numBodies
 3026              	.LBB123:
 3027              	@ src/b2d_lite.c:367: 		b->rotation += dt * b->angularVelocity;
 367:src/b2d_lite.c **** 
 3028              		.loc 1 367 15 discriminator 3 view .LVU729
 3029 014e E7EE087A 		vfma.f32	s15, s14, s16	@ _19, b_37->angularVelocity, dt
 3030              	@ src/b2d_lite.c:369: 		b->force.x = 0;
 3031              		.loc 1 369 14 discriminator 3 view .LVU730
 3032 0152 A561     		str	r5, [r4, #24]	@ float	@ tmp199, b_37->force.x
 3033              	.LBE123:
 3034              	@ src/b2d_lite.c:362: 	for (int i = 0; i < g_numBodies; ++i)
 362:src/b2d_lite.c **** 	{
 3035              		.loc 1 362 2 discriminator 3 view .LVU731
 3036 0154 B342     		cmp	r3, r6	@ g_numBodies, i
 3037              	.LBB124:
 3038              	@ src/b2d_lite.c:370: 		b->force.y = 0;
 370:src/b2d_lite.c **** 		b->force.y = 0;
 3039              		.loc 1 370 14 discriminator 3 view .LVU732
 3040 0156 E561     		str	r5, [r4, #28]	@ float	@ tmp199, b_37->force.y
 3041              	@ src/b2d_lite.c:371: 		b->torque = 0.0f;
 371:src/b2d_lite.c **** 		b->torque = 0.0f;
 3042              		.loc 1 371 13 discriminator 3 view .LVU733
 3043 0158 2562     		str	r5, [r4, #32]	@ float	@ tmp199, b_37->torque
 3044              	@ src/b2d_lite.c:367: 		b->rotation += dt * b->angularVelocity;
 367:src/b2d_lite.c **** 
 3045              		.loc 1 367 15 discriminator 3 view .LVU734
 3046 015a C4ED027A 		vstr.32	s15, [r4, #8]	@ _19, b_37->rotation
 369:src/b2d_lite.c **** 		b->force.y = 0;
 3047              		.loc 1 369 3 is_stmt 1 discriminator 3 view .LVU735
 370:src/b2d_lite.c **** 		b->force.y = 0;
 3048              		.loc 1 370 3 discriminator 3 view .LVU736
 3049              		.loc 1 371 3 discriminator 3 view .LVU737
 3050              	.LBE124:
 362:src/b2d_lite.c **** 	{
 3051              		.loc 1 362 35 discriminator 3 view .LVU738
 3052              	.LVL203:
 362:src/b2d_lite.c **** 	{
 3053              		.loc 1 362 18 discriminator 3 view .LVU739
 3054              	@ src/b2d_lite.c:362: 	for (int i = 0; i < g_numBodies; ++i)
 362:src/b2d_lite.c **** 	{
 3055              		.loc 1 362 2 is_stmt 0 discriminator 3 view .LVU740
 3056 015e DFDC     		bgt	.L125		@,
 3057              	.LVL204:
 3058              	.L111:
 362:src/b2d_lite.c **** 	{
 3059              		.loc 1 362 2 discriminator 3 view .LVU741
 3060              	.LBE120:
 3061              	@ src/b2d_lite.c:373: }
 372:src/b2d_lite.c **** 	}
 373:src/b2d_lite.c **** }
 3062              		.loc 1 373 1 view .LVU742
 3063 0160 09B0     		add	sp, sp, #36	@,,
 3064              	.LCFI41:
ARM GAS  /tmp/ccEGVymn.s 			page 69


 3065              		.cfi_remember_state
 3066              		.cfi_def_cfa_offset 36
 3067              		@ sp needed	@
 3068 0162 BDEC028B 		vldm	sp!, {d8}	@
 3069              	.LCFI42:
 3070              		.cfi_restore 80
 3071              		.cfi_restore 81
 3072              		.cfi_def_cfa_offset 28
 3073              	.LVL205:
 3074              		.loc 1 373 1 view .LVU743
 3075 0166 BDE8F083 		pop	{r4, r5, r6, r7, r8, r9, pc}	@
 3076              	.LVL206:
 3077              	.L133:
 3078              	.LCFI43:
 3079              		.cfi_restore_state
 3080              	@ src/b2d_lite.c:330: 	float inv_dt = dt > 0.0f ? 1.0f / dt : 0.0f;
 330:src/b2d_lite.c **** 
 3081              		.loc 1 330 39 view .LVU744
 3082 016a DFED058A 		vldr.32	s17, .L135+16	@ iftmp.23_26,
 3083 016e 58E7     		b	.L112		@
 3084              	.L136:
 3085              		.align	2
 3086              	.L135:
 3087 0170 00000000 		.word	g_numBodies
 3088 0174 00000000 		.word	g_bodies
 3089 0178 00000000 		.word	g_numArbiters
 3090 017c 00000000 		.word	g_arbiters
 3091 0180 00000000 		.word	0
 3092 0184 00000000 		.word	gravity
 3093 0188 00000000 		.word	iterations
 3094              		.cfi_endproc
 3095              	.LFE11:
 3096              		.size	Step, .-Step
 3097              		.section	.text.initBody,"ax",%progbits
 3098              		.align	1
 3099              		.p2align 4,,15
 3100              		.global	initBody
 3101              		.syntax unified
 3102              		.thumb
 3103              		.thumb_func
 3104              		.fpu fpv5-sp-d16
 3105              		.type	initBody, %function
 3106              	initBody:
 3107              	.LVL207:
 3108              	.LFB12:
 374:src/b2d_lite.c **** 
 375:src/b2d_lite.c **** void initBody(struct Body *b, struct Vec2 w, float m)
 376:src/b2d_lite.c **** {
 3109              		.loc 1 376 1 is_stmt 1 view -0
 3110              		.cfi_startproc
 3111              		@ args = 0, pretend = 0, frame = 8
 3112              		@ frame_needed = 0, uses_anonymous_args = 0
 3113              		@ link register save eliminated.
 377:src/b2d_lite.c **** 
 378:src/b2d_lite.c **** 	b->position.x = 0;
 3114              		.loc 1 378 2 view .LVU746
 3115              	@ src/b2d_lite.c:392: 	if (b->mass < FLT_MAX)
ARM GAS  /tmp/ccEGVymn.s 			page 70


 379:src/b2d_lite.c **** 	b->position.y = 0;
 380:src/b2d_lite.c **** 	b->rotation = 0;
 381:src/b2d_lite.c **** 	b->velocity.x = 0;
 382:src/b2d_lite.c **** 	b->velocity.y = 0;
 383:src/b2d_lite.c **** 	b->angularVelocity = 0;
 384:src/b2d_lite.c **** 	b->force.x = 0;
 385:src/b2d_lite.c **** 	b->force.y = 0;
 386:src/b2d_lite.c **** 	b->torque = 0.0f;
 387:src/b2d_lite.c **** 	b->friction = 0.2f;
 388:src/b2d_lite.c **** 
 389:src/b2d_lite.c **** 	b->width = w;
 390:src/b2d_lite.c **** 	b->mass = m;
 391:src/b2d_lite.c **** 
 392:src/b2d_lite.c **** 	if (b->mass < FLT_MAX)
 3116              		.loc 1 392 5 is_stmt 0 view .LVU747
 3117 0000 DFED247A 		vldr.32	s15, .L144	@ tmp134,
 3118              	@ src/b2d_lite.c:378: 	b->position.x = 0;
 378:src/b2d_lite.c **** 	b->position.y = 0;
 3119              		.loc 1 378 16 view .LVU748
 3120 0004 0022     		movs	r2, #0	@ tmp122,
 3121              	@ src/b2d_lite.c:387: 	b->friction = 0.2f;
 387:src/b2d_lite.c **** 
 3122              		.loc 1 387 14 view .LVU749
 3123 0006 2449     		ldr	r1, .L144+4	@ tmp131,
 3124              	@ src/b2d_lite.c:376: {
 376:src/b2d_lite.c **** 
 3125              		.loc 1 376 1 view .LVU750
 3126 0008 0346     		mov	r3, r0	@ b, tmp145
 3127              	@ src/b2d_lite.c:392: 	if (b->mass < FLT_MAX)
 3128              		.loc 1 392 5 view .LVU751
 3129 000a B4EEE71A 		vcmpe.f32	s2, s15	@ m, tmp134
 3130              	@ src/b2d_lite.c:376: {
 376:src/b2d_lite.c **** 
 3131              		.loc 1 376 1 view .LVU752
 3132 000e 10B4     		push	{r4}	@
 3133              	.LCFI44:
 3134              		.cfi_def_cfa_offset 4
 3135              		.cfi_offset 4, -4
 3136 0010 83B0     		sub	sp, sp, #12	@,,
 3137              	.LCFI45:
 3138              		.cfi_def_cfa_offset 16
 3139              	@ src/b2d_lite.c:387: 	b->friction = 0.2f;
 387:src/b2d_lite.c **** 
 3140              		.loc 1 387 14 view .LVU753
 3141 0012 C162     		str	r1, [r0, #44]	@ float	@ tmp131, b_12(D)->friction
 3142              	@ src/b2d_lite.c:392: 	if (b->mass < FLT_MAX)
 3143              		.loc 1 392 5 view .LVU754
 3144 0014 F1EE10FA 		vmrs	APSR_nzcv, FPSCR
 3145              	@ src/b2d_lite.c:378: 	b->position.x = 0;
 378:src/b2d_lite.c **** 	b->position.y = 0;
 3146              		.loc 1 378 16 view .LVU755
 3147 0018 0260     		str	r2, [r0]	@ float	@ tmp122, b_12(D)->position.x
 379:src/b2d_lite.c **** 	b->rotation = 0;
 3148              		.loc 1 379 2 is_stmt 1 view .LVU756
 3149              	@ src/b2d_lite.c:389: 	b->width = w;
 389:src/b2d_lite.c **** 	b->mass = m;
 3150              		.loc 1 389 11 is_stmt 0 view .LVU757
ARM GAS  /tmp/ccEGVymn.s 			page 71


 3151 001a 02A9     		add	r1, sp, #8	@ tmp149,,
 3152              	@ src/b2d_lite.c:379: 	b->position.y = 0;
 379:src/b2d_lite.c **** 	b->rotation = 0;
 3153              		.loc 1 379 16 view .LVU758
 3154 001c 4260     		str	r2, [r0, #4]	@ float	@ tmp122, b_12(D)->position.y
 380:src/b2d_lite.c **** 	b->velocity.x = 0;
 3155              		.loc 1 380 2 is_stmt 1 view .LVU759
 3156              	@ src/b2d_lite.c:380: 	b->rotation = 0;
 380:src/b2d_lite.c **** 	b->velocity.x = 0;
 3157              		.loc 1 380 14 is_stmt 0 view .LVU760
 3158 001e 8260     		str	r2, [r0, #8]	@ float	@ tmp122, b_12(D)->rotation
 381:src/b2d_lite.c **** 	b->velocity.y = 0;
 3159              		.loc 1 381 2 is_stmt 1 view .LVU761
 3160              	@ src/b2d_lite.c:389: 	b->width = w;
 389:src/b2d_lite.c **** 	b->mass = m;
 3161              		.loc 1 389 11 is_stmt 0 view .LVU762
 3162 0020 00F12404 		add	r4, r0, #36	@ tmp132, b,
 3163              	@ src/b2d_lite.c:381: 	b->velocity.x = 0;
 381:src/b2d_lite.c **** 	b->velocity.y = 0;
 3164              		.loc 1 381 16 view .LVU763
 3165 0024 C260     		str	r2, [r0, #12]	@ float	@ tmp122, b_12(D)->velocity.x
 382:src/b2d_lite.c **** 	b->angularVelocity = 0;
 3166              		.loc 1 382 2 is_stmt 1 view .LVU764
 3167              	@ src/b2d_lite.c:382: 	b->velocity.y = 0;
 382:src/b2d_lite.c **** 	b->angularVelocity = 0;
 3168              		.loc 1 382 16 is_stmt 0 view .LVU765
 3169 0026 0261     		str	r2, [r0, #16]	@ float	@ tmp122, b_12(D)->velocity.y
 383:src/b2d_lite.c **** 	b->force.x = 0;
 3170              		.loc 1 383 2 is_stmt 1 view .LVU766
 3171              	@ src/b2d_lite.c:383: 	b->angularVelocity = 0;
 383:src/b2d_lite.c **** 	b->force.x = 0;
 3172              		.loc 1 383 21 is_stmt 0 view .LVU767
 3173 0028 4261     		str	r2, [r0, #20]	@ float	@ tmp122, b_12(D)->angularVelocity
 384:src/b2d_lite.c **** 	b->force.y = 0;
 3174              		.loc 1 384 2 is_stmt 1 view .LVU768
 3175              	@ src/b2d_lite.c:384: 	b->force.x = 0;
 384:src/b2d_lite.c **** 	b->force.y = 0;
 3176              		.loc 1 384 13 is_stmt 0 view .LVU769
 3177 002a 8261     		str	r2, [r0, #24]	@ float	@ tmp122, b_12(D)->force.x
 385:src/b2d_lite.c **** 	b->torque = 0.0f;
 3178              		.loc 1 385 2 is_stmt 1 view .LVU770
 3179              	@ src/b2d_lite.c:385: 	b->force.y = 0;
 385:src/b2d_lite.c **** 	b->torque = 0.0f;
 3180              		.loc 1 385 13 is_stmt 0 view .LVU771
 3181 002c C261     		str	r2, [r0, #28]	@ float	@ tmp122, b_12(D)->force.y
 386:src/b2d_lite.c **** 	b->friction = 0.2f;
 3182              		.loc 1 386 2 is_stmt 1 view .LVU772
 3183              	@ src/b2d_lite.c:386: 	b->torque = 0.0f;
 386:src/b2d_lite.c **** 	b->friction = 0.2f;
 3184              		.loc 1 386 12 is_stmt 0 view .LVU773
 3185 002e 0262     		str	r2, [r0, #32]	@ float	@ tmp122, b_12(D)->torque
 387:src/b2d_lite.c **** 
 3186              		.loc 1 387 2 is_stmt 1 view .LVU774
 389:src/b2d_lite.c **** 	b->mass = m;
 3187              		.loc 1 389 2 view .LVU775
 3188              	@ src/b2d_lite.c:376: {
 376:src/b2d_lite.c **** 
ARM GAS  /tmp/ccEGVymn.s 			page 72


 3189              		.loc 1 376 1 is_stmt 0 view .LVU776
 3190 0030 8DED000A 		vstr.32	s0, [sp]	@ tmp146, w
 3191 0034 CDED010A 		vstr.32	s1, [sp, #4]	@ tmp147, w
 3192              	@ src/b2d_lite.c:389: 	b->width = w;
 389:src/b2d_lite.c **** 	b->mass = m;
 3193              		.loc 1 389 11 view .LVU777
 3194 0038 11E90300 		ldmdb	r1, {r0, r1}	@ tmp149,,
 3195              	.LVL208:
 389:src/b2d_lite.c **** 	b->mass = m;
 3196              		.loc 1 389 11 view .LVU778
 3197 003c 84E80300 		stm	r4, {r0, r1}	@ tmp132,,
 390:src/b2d_lite.c **** 
 3198              		.loc 1 390 2 is_stmt 1 view .LVU779
 3199              	@ src/b2d_lite.c:390: 	b->mass = m;
 390:src/b2d_lite.c **** 
 3200              		.loc 1 390 10 is_stmt 0 view .LVU780
 3201 0040 83ED0C1A 		vstr.32	s2, [r3, #48]	@ m, b_12(D)->mass
 3202              		.loc 1 392 2 is_stmt 1 view .LVU781
 3203              	@ src/b2d_lite.c:392: 	if (b->mass < FLT_MAX)
 3204              		.loc 1 392 5 is_stmt 0 view .LVU782
 3205 0044 1DD5     		bpl	.L142		@,
 393:src/b2d_lite.c **** 	{
 394:src/b2d_lite.c **** 		b->invMass = 1.0f / b->mass;
 3206              		.loc 1 394 3 is_stmt 1 view .LVU783
 3207              	@ src/b2d_lite.c:395: 		b->I = b->mass * (b->width.x * b->width.x + b->width.y * b->width.y) / 12.0
 395:src/b2d_lite.c **** 		b->I = b->mass * (b->width.x * b->width.x + b->width.y * b->width.y) / 12.0f;
 3208              		.loc 1 395 55 is_stmt 0 view .LVU784
 3209 0046 D3ED0A7A 		vldr.32	s15, [r3, #40]	@ _4, b_12(D)->width.y
 3210              	@ src/b2d_lite.c:394: 		b->invMass = 1.0f / b->mass;
 394:src/b2d_lite.c **** 		b->I = b->mass * (b->width.x * b->width.x + b->width.y * b->width.y) / 12.0f;
 3211              		.loc 1 394 21 view .LVU785
 3212 004a B7EE007A 		vmov.f32	s14, #1.0e+0	@ tmp136,
 3213              	@ src/b2d_lite.c:395: 		b->I = b->mass * (b->width.x * b->width.x + b->width.y * b->width.y) / 12.0
 3214              		.loc 1 395 29 view .LVU786
 3215 004e D3ED096A 		vldr.32	s13, [r3, #36]	@ _2, b_12(D)->width.x
 3216              	@ src/b2d_lite.c:395: 		b->I = b->mass * (b->width.x * b->width.x + b->width.y * b->width.y) / 12.0
 3217              		.loc 1 395 72 view .LVU787
 3218 0052 F2EE085A 		vmov.f32	s11, #1.2e+1	@ tmp139,
 3219              	@ src/b2d_lite.c:395: 		b->I = b->mass * (b->width.x * b->width.x + b->width.y * b->width.y) / 12.0
 3220              		.loc 1 395 58 view .LVU788
 3221 0056 67EEA77A 		vmul.f32	s15, s15, s15	@ tmp137, _4, _4
 3222              	@ src/b2d_lite.c:394: 		b->invMass = 1.0f / b->mass;
 394:src/b2d_lite.c **** 		b->I = b->mass * (b->width.x * b->width.x + b->width.y * b->width.y) / 12.0f;
 3223              		.loc 1 394 21 view .LVU789
 3224 005a 87EE016A 		vdiv.f32	s12, s14, s2	@ tmp135, tmp136, m
 3225              	@ src/b2d_lite.c:395: 		b->I = b->mass * (b->width.x * b->width.x + b->width.y * b->width.y) / 12.0
 3226              		.loc 1 395 45 view .LVU790
 3227 005e E6EEA67A 		vfma.f32	s15, s13, s13	@ _6, _2, _2
 3228              	@ src/b2d_lite.c:395: 		b->I = b->mass * (b->width.x * b->width.x + b->width.y * b->width.y) / 12.0
 3229              		.loc 1 395 18 view .LVU791
 3230 0062 27EE811A 		vmul.f32	s2, s15, s2	@ tmp138, _6, m
 3231              	.LVL209:
 3232              	@ src/b2d_lite.c:395: 		b->I = b->mass * (b->width.x * b->width.x + b->width.y * b->width.y) / 12.0
 3233              		.loc 1 395 72 view .LVU792
 3234 0066 C1EE257A 		vdiv.f32	s15, s2, s11	@ _8, tmp138, tmp139
 3235              	@ src/b2d_lite.c:394: 		b->invMass = 1.0f / b->mass;
 394:src/b2d_lite.c **** 		b->I = b->mass * (b->width.x * b->width.x + b->width.y * b->width.y) / 12.0f;
ARM GAS  /tmp/ccEGVymn.s 			page 73


 3236              		.loc 1 394 14 view .LVU793
 3237 006a 83ED0D6A 		vstr.32	s12, [r3, #52]	@ tmp135, b_12(D)->invMass
 3238              		.loc 1 395 3 is_stmt 1 view .LVU794
 3239              	@ src/b2d_lite.c:396: 		b->invI = 1.0f / b->I;
 396:src/b2d_lite.c **** 		b->invI = 1.0f / b->I;
 3240              		.loc 1 396 18 is_stmt 0 view .LVU795
 3241 006e C7EE276A 		vdiv.f32	s13, s14, s15	@ tmp140, tmp136, _8
 3242              	@ src/b2d_lite.c:395: 		b->I = b->mass * (b->width.x * b->width.x + b->width.y * b->width.y) / 12.0
 395:src/b2d_lite.c **** 		b->I = b->mass * (b->width.x * b->width.x + b->width.y * b->width.y) / 12.0f;
 3243              		.loc 1 395 8 view .LVU796
 3244 0072 C3ED0E7A 		vstr.32	s15, [r3, #56]	@ _8, b_12(D)->I
 3245              		.loc 1 396 3 is_stmt 1 view .LVU797
 3246              	@ src/b2d_lite.c:396: 		b->invI = 1.0f / b->I;
 3247              		.loc 1 396 11 is_stmt 0 view .LVU798
 3248 0076 C3ED0F6A 		vstr.32	s13, [r3, #60]	@ tmp140, b_12(D)->invI
 3249              	@ src/b2d_lite.c:404: }
 397:src/b2d_lite.c **** 	}
 398:src/b2d_lite.c **** 	else
 399:src/b2d_lite.c **** 	{
 400:src/b2d_lite.c **** 		b->invMass = 0.0f;
 401:src/b2d_lite.c **** 		b->I = FLT_MAX;
 402:src/b2d_lite.c **** 		b->invI = 0.0f;
 403:src/b2d_lite.c **** 	}
 404:src/b2d_lite.c **** }
 3250              		.loc 1 404 1 view .LVU799
 3251 007a 03B0     		add	sp, sp, #12	@,,
 3252              	.LCFI46:
 3253              		.cfi_remember_state
 3254              		.cfi_def_cfa_offset 4
 3255              		@ sp needed	@
 3256 007c 5DF8044B 		ldr	r4, [sp], #4	@,
 3257              	.LCFI47:
 3258              		.cfi_restore 4
 3259              		.cfi_def_cfa_offset 0
 3260 0080 7047     		bx	lr	@
 3261              	.LVL210:
 3262              	.L142:
 3263              	.LCFI48:
 3264              		.cfi_restore_state
 400:src/b2d_lite.c **** 		b->I = FLT_MAX;
 3265              		.loc 1 400 3 is_stmt 1 view .LVU800
 3266              	@ src/b2d_lite.c:400: 		b->invMass = 0.0f;
 400:src/b2d_lite.c **** 		b->I = FLT_MAX;
 3267              		.loc 1 400 14 is_stmt 0 view .LVU801
 3268 0082 5A63     		str	r2, [r3, #52]	@ float	@ tmp122, b_12(D)->invMass
 401:src/b2d_lite.c **** 		b->invI = 0.0f;
 3269              		.loc 1 401 3 is_stmt 1 view .LVU802
 3270              	@ src/b2d_lite.c:401: 		b->I = FLT_MAX;
 401:src/b2d_lite.c **** 		b->invI = 0.0f;
 3271              		.loc 1 401 8 is_stmt 0 view .LVU803
 3272 0084 C3ED0E7A 		vstr.32	s15, [r3, #56]	@ tmp134, b_12(D)->I
 402:src/b2d_lite.c **** 	}
 3273              		.loc 1 402 3 is_stmt 1 view .LVU804
 3274              	@ src/b2d_lite.c:402: 		b->invI = 0.0f;
 402:src/b2d_lite.c **** 	}
 3275              		.loc 1 402 11 is_stmt 0 view .LVU805
 3276 0088 DA63     		str	r2, [r3, #60]	@ float	@ tmp122, b_12(D)->invI
ARM GAS  /tmp/ccEGVymn.s 			page 74


 3277              	@ src/b2d_lite.c:404: }
 3278              		.loc 1 404 1 view .LVU806
 3279 008a 03B0     		add	sp, sp, #12	@,,
 3280              	.LCFI49:
 3281              		.cfi_def_cfa_offset 4
 3282              		@ sp needed	@
 3283 008c 5DF8044B 		ldr	r4, [sp], #4	@,
 3284              	.LCFI50:
 3285              		.cfi_restore 4
 3286              		.cfi_def_cfa_offset 0
 3287 0090 7047     		bx	lr	@
 3288              	.L145:
 3289 0092 00BF     		.align	2
 3290              	.L144:
 3291 0094 FFFF7F7F 		.word	2139095039
 3292 0098 CDCC4C3E 		.word	1045220557
 3293              		.cfi_endproc
 3294              	.LFE12:
 3295              		.size	initBody, .-initBody
 3296              		.section	.text.addBody,"ax",%progbits
 3297              		.align	1
 3298              		.p2align 4,,15
 3299              		.global	addBody
 3300              		.syntax unified
 3301              		.thumb
 3302              		.thumb_func
 3303              		.fpu fpv5-sp-d16
 3304              		.type	addBody, %function
 3305              	addBody:
 3306              	.LVL211:
 3307              	.LFB13:
 405:src/b2d_lite.c **** 
 406:src/b2d_lite.c **** void addBody(struct Body *b)
 407:src/b2d_lite.c **** {
 3308              		.loc 1 407 1 is_stmt 1 view -0
 3309              		.cfi_startproc
 3310              		@ args = 0, pretend = 0, frame = 0
 3311              		@ frame_needed = 0, uses_anonymous_args = 0
 3312              		@ link register save eliminated.
 408:src/b2d_lite.c **** 	g_bodies[g_numBodies] = b;
 3313              		.loc 1 408 2 view .LVU808
 3314              	@ src/b2d_lite.c:408: 	g_bodies[g_numBodies] = b;
 3315              		.loc 1 408 10 is_stmt 0 view .LVU809
 3316 0000 054B     		ldr	r3, .L148	@ tmp113,
 3317 0002 1A68     		ldr	r2, [r3]	@ g_numBodies.29_1, g_numBodies
 3318              	@ src/b2d_lite.c:407: {
 407:src/b2d_lite.c **** 	g_bodies[g_numBodies] = b;
 3319              		.loc 1 407 1 view .LVU810
 3320 0004 10B4     		push	{r4}	@
 3321              	.LCFI51:
 3322              		.cfi_def_cfa_offset 4
 3323              		.cfi_offset 4, -4
 3324              	@ src/b2d_lite.c:409: 	g_numBodies++;
 409:src/b2d_lite.c **** 	g_numBodies++;
 3325              		.loc 1 409 13 view .LVU811
 3326 0006 511C     		adds	r1, r2, #1	@ tmp116, g_numBodies.29_1,
 3327              	@ src/b2d_lite.c:408: 	g_bodies[g_numBodies] = b;
ARM GAS  /tmp/ccEGVymn.s 			page 75


 408:src/b2d_lite.c **** 	g_bodies[g_numBodies] = b;
 3328              		.loc 1 408 24 view .LVU812
 3329 0008 044C     		ldr	r4, .L148+4	@ tmp114,
 3330              	@ src/b2d_lite.c:409: 	g_numBodies++;
 3331              		.loc 1 409 13 view .LVU813
 3332 000a 1960     		str	r1, [r3]	@ tmp116, g_numBodies
 3333              	@ src/b2d_lite.c:408: 	g_bodies[g_numBodies] = b;
 408:src/b2d_lite.c **** 	g_bodies[g_numBodies] = b;
 3334              		.loc 1 408 24 view .LVU814
 3335 000c 44F82200 		str	r0, [r4, r2, lsl #2]	@ tmp117, g_bodies
 3336              		.loc 1 409 2 is_stmt 1 view .LVU815
 3337              	@ src/b2d_lite.c:410: }
 410:src/b2d_lite.c **** }
 3338              		.loc 1 410 1 is_stmt 0 view .LVU816
 3339 0010 5DF8044B 		ldr	r4, [sp], #4	@,
 3340              	.LCFI52:
 3341              		.cfi_restore 4
 3342              		.cfi_def_cfa_offset 0
 3343 0014 7047     		bx	lr	@
 3344              	.L149:
 3345 0016 00BF     		.align	2
 3346              	.L148:
 3347 0018 00000000 		.word	g_numBodies
 3348 001c 00000000 		.word	g_bodies
 3349              		.cfi_endproc
 3350              	.LFE13:
 3351              		.size	addBody, .-addBody
 3352              		.section	.text.getBody,"ax",%progbits
 3353              		.align	1
 3354              		.p2align 4,,15
 3355              		.global	getBody
 3356              		.syntax unified
 3357              		.thumb
 3358              		.thumb_func
 3359              		.fpu fpv5-sp-d16
 3360              		.type	getBody, %function
 3361              	getBody:
 3362              	.LVL212:
 3363              	.LFB14:
 411:src/b2d_lite.c **** 
 412:src/b2d_lite.c **** struct Body *getBody(int i)
 413:src/b2d_lite.c **** {
 3364              		.loc 1 413 1 is_stmt 1 view -0
 3365              		.cfi_startproc
 3366              		@ args = 0, pretend = 0, frame = 0
 3367              		@ frame_needed = 0, uses_anonymous_args = 0
 3368              		@ link register save eliminated.
 414:src/b2d_lite.c **** 	return g_bodies[i];
 3369              		.loc 1 414 2 view .LVU818
 3370              	@ src/b2d_lite.c:414: 	return g_bodies[i];
 3371              		.loc 1 414 17 is_stmt 0 view .LVU819
 3372 0000 014B     		ldr	r3, .L151	@ tmp113,
 3373              	@ src/b2d_lite.c:415: }
 415:src/b2d_lite.c **** }
 3374              		.loc 1 415 1 view .LVU820
 3375 0002 53F82000 		ldr	r0, [r3, r0, lsl #2]	@, g_bodies
 3376              	.LVL213:
ARM GAS  /tmp/ccEGVymn.s 			page 76


 3377              		.loc 1 415 1 view .LVU821
 3378 0006 7047     		bx	lr	@
 3379              	.L152:
 3380              		.align	2
 3381              	.L151:
 3382 0008 00000000 		.word	g_bodies
 3383              		.cfi_endproc
 3384              	.LFE14:
 3385              		.size	getBody, .-getBody
 3386              		.global	positionCorrection
 3387              		.global	warmStarting
 3388              		.global	accumulateImpulses
 3389              		.comm	iterations,4,4
 3390              		.comm	gravity,8,4
 3391              		.comm	g_numArbiters,4,4
 3392              		.comm	g_arbiterKeys,800,4
 3393              		.comm	g_arbiters,14400,4
 3394              		.comm	g_numBodies,4,4
 3395              		.comm	g_bodies,400,4
 3396              		.section	.data.accumulateImpulses,"aw"
 3397              		.align	2
 3398              		.set	.LANCHOR2,. + 0
 3399              		.type	accumulateImpulses, %object
 3400              		.size	accumulateImpulses, 4
 3401              	accumulateImpulses:
 3402 0000 01000000 		.word	1
 3403              		.section	.data.positionCorrection,"aw"
 3404              		.align	2
 3405              		.set	.LANCHOR1,. + 0
 3406              		.type	positionCorrection, %object
 3407              		.size	positionCorrection, 4
 3408              	positionCorrection:
 3409 0000 01000000 		.word	1
 3410              		.section	.data.warmStarting,"aw"
 3411              		.align	2
 3412              		.set	.LANCHOR0,. + 0
 3413              		.type	warmStarting, %object
 3414              		.size	warmStarting, 4
 3415              	warmStarting:
 3416 0000 01000000 		.word	1
 3417              		.text
 3418              	.Letext0:
 3419              		.file 2 "/usr/lib/gcc/arm-none-eabi/9.2.1/include/stddef.h"
 3420              		.file 3 "/usr/include/newlib/sys/_types.h"
 3421              		.file 4 "/usr/include/newlib/sys/reent.h"
 3422              		.file 5 "/usr/include/newlib/sys/lock.h"
 3423              		.file 6 "/usr/include/newlib/math.h"
 3424              		.file 7 "/usr/include/newlib/stdlib.h"
 3425              		.file 8 "src/mathutils.h"
 3426              		.file 9 "src/collide.h"
 3427              		.file 10 "<built-in>"
 3428              		.section	.debug_info,"",%progbits
 3429              	.Ldebug_info0:
 3430 0000 5A1B0000 		.4byte	0x1b5a
 3431 0004 0200     		.2byte	0x2
 3432 0006 00000000 		.4byte	.Ldebug_abbrev0
 3433 000a 04       		.byte	0x4
ARM GAS  /tmp/ccEGVymn.s 			page 77


 3434 000b 01       		.uleb128 0x1
 3435 000c 5E070000 		.4byte	.LASF171
 3436 0010 0C       		.byte	0xc
 3437 0011 00000000 		.4byte	.LASF172
 3438 0015 9B020000 		.4byte	.LASF173
 3439 0019 28030000 		.4byte	.Ldebug_ranges0+0x328
 3440 001d 00000000 		.4byte	0
 3441 0021 00000000 		.4byte	0
 3442 0025 00000000 		.4byte	.Ldebug_line0
 3443 0029 02       		.uleb128 0x2
 3444 002a 04       		.byte	0x4
 3445 002b 04       		.byte	0x4
 3446 002c 83010000 		.4byte	.LASF0
 3447 0030 02       		.uleb128 0x2
 3448 0031 01       		.byte	0x1
 3449 0032 06       		.byte	0x6
 3450 0033 4B070000 		.4byte	.LASF1
 3451 0037 02       		.uleb128 0x2
 3452 0038 01       		.byte	0x1
 3453 0039 08       		.byte	0x8
 3454 003a 8F060000 		.4byte	.LASF2
 3455 003e 02       		.uleb128 0x2
 3456 003f 02       		.byte	0x2
 3457 0040 05       		.byte	0x5
 3458 0041 06050000 		.4byte	.LASF3
 3459 0045 02       		.uleb128 0x2
 3460 0046 02       		.byte	0x2
 3461 0047 07       		.byte	0x7
 3462 0048 51080000 		.4byte	.LASF4
 3463 004c 02       		.uleb128 0x2
 3464 004d 04       		.byte	0x4
 3465 004e 05       		.byte	0x5
 3466 004f 19050000 		.4byte	.LASF5
 3467 0053 02       		.uleb128 0x2
 3468 0054 04       		.byte	0x4
 3469 0055 07       		.byte	0x7
 3470 0056 17060000 		.4byte	.LASF6
 3471 005a 02       		.uleb128 0x2
 3472 005b 08       		.byte	0x8
 3473 005c 05       		.byte	0x5
 3474 005d F8030000 		.4byte	.LASF7
 3475 0061 02       		.uleb128 0x2
 3476 0062 08       		.byte	0x8
 3477 0063 07       		.byte	0x7
 3478 0064 D0010000 		.4byte	.LASF8
 3479 0068 03       		.uleb128 0x3
 3480 0069 04       		.byte	0x4
 3481 006a 05       		.byte	0x5
 3482 006b 696E7400 		.ascii	"int\000"
 3483 006f 02       		.uleb128 0x2
 3484 0070 04       		.byte	0x4
 3485 0071 07       		.byte	0x7
 3486 0072 6E000000 		.4byte	.LASF9
 3487 0076 02       		.uleb128 0x2
 3488 0077 08       		.byte	0x8
 3489 0078 04       		.byte	0x4
 3490 0079 C2040000 		.4byte	.LASF10
ARM GAS  /tmp/ccEGVymn.s 			page 78


 3491 007d 04       		.uleb128 0x4
 3492 007e 04       		.byte	0x4
 3493 007f 05       		.uleb128 0x5
 3494 0080 47060000 		.4byte	.LASF11
 3495 0084 02       		.byte	0x2
 3496 0085 5E01     		.2byte	0x15e
 3497 0087 17       		.byte	0x17
 3498 0088 6F000000 		.4byte	0x6f
 3499 008c 06       		.uleb128 0x6
 3500 008d 81080000 		.4byte	.LASF12
 3501 0091 03       		.byte	0x3
 3502 0092 2E       		.byte	0x2e
 3503 0093 0E       		.byte	0xe
 3504 0094 4C000000 		.4byte	0x4c
 3505 0098 06       		.uleb128 0x6
 3506 0099 16010000 		.4byte	.LASF13
 3507 009d 03       		.byte	0x3
 3508 009e 74       		.byte	0x74
 3509 009f 0E       		.byte	0xe
 3510 00a0 4C000000 		.4byte	0x4c
 3511 00a4 07       		.uleb128 0x7
 3512 00a5 04       		.byte	0x4
 3513 00a6 03       		.byte	0x3
 3514 00a7 A5       		.byte	0xa5
 3515 00a8 03       		.byte	0x3
 3516 00a9 C6000000 		.4byte	0xc6
 3517 00ad 08       		.uleb128 0x8
 3518 00ae 8D030000 		.4byte	.LASF14
 3519 00b2 03       		.byte	0x3
 3520 00b3 A7       		.byte	0xa7
 3521 00b4 0C       		.byte	0xc
 3522 00b5 7F000000 		.4byte	0x7f
 3523 00b9 08       		.uleb128 0x8
 3524 00ba 45050000 		.4byte	.LASF15
 3525 00be 03       		.byte	0x3
 3526 00bf A8       		.byte	0xa8
 3527 00c0 13       		.byte	0x13
 3528 00c1 C6000000 		.4byte	0xc6
 3529 00c5 00       		.byte	0
 3530 00c6 09       		.uleb128 0x9
 3531 00c7 37000000 		.4byte	0x37
 3532 00cb D6000000 		.4byte	0xd6
 3533 00cf 0A       		.uleb128 0xa
 3534 00d0 6F000000 		.4byte	0x6f
 3535 00d4 03       		.byte	0x3
 3536 00d5 00       		.byte	0
 3537 00d6 0B       		.uleb128 0xb
 3538 00d7 08       		.byte	0x8
 3539 00d8 03       		.byte	0x3
 3540 00d9 A2       		.byte	0xa2
 3541 00da 09       		.byte	0x9
 3542 00db FE000000 		.4byte	0xfe
 3543 00df 0C       		.uleb128 0xc
 3544 00e0 7B010000 		.4byte	.LASF16
 3545 00e4 03       		.byte	0x3
 3546 00e5 A4       		.byte	0xa4
 3547 00e6 07       		.byte	0x7
ARM GAS  /tmp/ccEGVymn.s 			page 79


 3548 00e7 68000000 		.4byte	0x68
 3549 00eb 02       		.byte	0x2
 3550 00ec 23       		.byte	0x23
 3551 00ed 00       		.uleb128 0
 3552 00ee 0C       		.uleb128 0xc
 3553 00ef E3020000 		.4byte	.LASF17
 3554 00f3 03       		.byte	0x3
 3555 00f4 A9       		.byte	0xa9
 3556 00f5 05       		.byte	0x5
 3557 00f6 A4000000 		.4byte	0xa4
 3558 00fa 02       		.byte	0x2
 3559 00fb 23       		.byte	0x23
 3560 00fc 04       		.uleb128 0x4
 3561 00fd 00       		.byte	0
 3562 00fe 06       		.uleb128 0x6
 3563 00ff 69040000 		.4byte	.LASF18
 3564 0103 03       		.byte	0x3
 3565 0104 AA       		.byte	0xaa
 3566 0105 03       		.byte	0x3
 3567 0106 D6000000 		.4byte	0xd6
 3568 010a 06       		.uleb128 0x6
 3569 010b 1C040000 		.4byte	.LASF19
 3570 010f 04       		.byte	0x4
 3571 0110 16       		.byte	0x16
 3572 0111 19       		.byte	0x19
 3573 0112 53000000 		.4byte	0x53
 3574 0116 06       		.uleb128 0x6
 3575 0117 C8000000 		.4byte	.LASF20
 3576 011b 05       		.byte	0x5
 3577 011c 0C       		.byte	0xc
 3578 011d 0D       		.byte	0xd
 3579 011e 68000000 		.4byte	0x68
 3580 0122 06       		.uleb128 0x6
 3581 0123 72030000 		.4byte	.LASF21
 3582 0127 04       		.byte	0x4
 3583 0128 23       		.byte	0x23
 3584 0129 1B       		.byte	0x1b
 3585 012a 16010000 		.4byte	0x116
 3586 012e 0D       		.uleb128 0xd
 3587 012f 34010000 		.4byte	.LASF26
 3588 0133 18       		.byte	0x18
 3589 0134 04       		.byte	0x4
 3590 0135 34       		.byte	0x34
 3591 0136 08       		.byte	0x8
 3592 0137 94010000 		.4byte	0x194
 3593 013b 0C       		.uleb128 0xc
 3594 013c C7020000 		.4byte	.LASF22
 3595 0140 04       		.byte	0x4
 3596 0141 36       		.byte	0x36
 3597 0142 13       		.byte	0x13
 3598 0143 94010000 		.4byte	0x194
 3599 0147 02       		.byte	0x2
 3600 0148 23       		.byte	0x23
 3601 0149 00       		.uleb128 0
 3602 014a 0E       		.uleb128 0xe
 3603 014b 5F6B00   		.ascii	"_k\000"
 3604 014e 04       		.byte	0x4
ARM GAS  /tmp/ccEGVymn.s 			page 80


 3605 014f 37       		.byte	0x37
 3606 0150 07       		.byte	0x7
 3607 0151 68000000 		.4byte	0x68
 3608 0155 02       		.byte	0x2
 3609 0156 23       		.byte	0x23
 3610 0157 04       		.uleb128 0x4
 3611 0158 0C       		.uleb128 0xc
 3612 0159 D2050000 		.4byte	.LASF23
 3613 015d 04       		.byte	0x4
 3614 015e 37       		.byte	0x37
 3615 015f 0B       		.byte	0xb
 3616 0160 68000000 		.4byte	0x68
 3617 0164 02       		.byte	0x2
 3618 0165 23       		.byte	0x23
 3619 0166 08       		.uleb128 0x8
 3620 0167 0C       		.uleb128 0xc
 3621 0168 27050000 		.4byte	.LASF24
 3622 016c 04       		.byte	0x4
 3623 016d 37       		.byte	0x37
 3624 016e 14       		.byte	0x14
 3625 016f 68000000 		.4byte	0x68
 3626 0173 02       		.byte	0x2
 3627 0174 23       		.byte	0x23
 3628 0175 0C       		.uleb128 0xc
 3629 0176 0C       		.uleb128 0xc
 3630 0177 FC010000 		.4byte	.LASF25
 3631 017b 04       		.byte	0x4
 3632 017c 37       		.byte	0x37
 3633 017d 1B       		.byte	0x1b
 3634 017e 68000000 		.4byte	0x68
 3635 0182 02       		.byte	0x2
 3636 0183 23       		.byte	0x23
 3637 0184 10       		.uleb128 0x10
 3638 0185 0E       		.uleb128 0xe
 3639 0186 5F7800   		.ascii	"_x\000"
 3640 0189 04       		.byte	0x4
 3641 018a 38       		.byte	0x38
 3642 018b 0B       		.byte	0xb
 3643 018c 9A010000 		.4byte	0x19a
 3644 0190 02       		.byte	0x2
 3645 0191 23       		.byte	0x23
 3646 0192 14       		.uleb128 0x14
 3647 0193 00       		.byte	0
 3648 0194 0F       		.uleb128 0xf
 3649 0195 04       		.byte	0x4
 3650 0196 2E010000 		.4byte	0x12e
 3651 019a 09       		.uleb128 0x9
 3652 019b 0A010000 		.4byte	0x10a
 3653 019f AA010000 		.4byte	0x1aa
 3654 01a3 0A       		.uleb128 0xa
 3655 01a4 6F000000 		.4byte	0x6f
 3656 01a8 00       		.byte	0
 3657 01a9 00       		.byte	0
 3658 01aa 0D       		.uleb128 0xd
 3659 01ab FB050000 		.4byte	.LASF27
 3660 01af 24       		.byte	0x24
 3661 01b0 04       		.byte	0x4
ARM GAS  /tmp/ccEGVymn.s 			page 81


 3662 01b1 3C       		.byte	0x3c
 3663 01b2 08       		.byte	0x8
 3664 01b3 3F020000 		.4byte	0x23f
 3665 01b7 0C       		.uleb128 0xc
 3666 01b8 64020000 		.4byte	.LASF28
 3667 01bc 04       		.byte	0x4
 3668 01bd 3E       		.byte	0x3e
 3669 01be 09       		.byte	0x9
 3670 01bf 68000000 		.4byte	0x68
 3671 01c3 02       		.byte	0x2
 3672 01c4 23       		.byte	0x23
 3673 01c5 00       		.uleb128 0
 3674 01c6 0C       		.uleb128 0xc
 3675 01c7 89010000 		.4byte	.LASF29
 3676 01cb 04       		.byte	0x4
 3677 01cc 3F       		.byte	0x3f
 3678 01cd 09       		.byte	0x9
 3679 01ce 68000000 		.4byte	0x68
 3680 01d2 02       		.byte	0x2
 3681 01d3 23       		.byte	0x23
 3682 01d4 04       		.uleb128 0x4
 3683 01d5 0C       		.uleb128 0xc
 3684 01d6 67010000 		.4byte	.LASF30
 3685 01da 04       		.byte	0x4
 3686 01db 40       		.byte	0x40
 3687 01dc 09       		.byte	0x9
 3688 01dd 68000000 		.4byte	0x68
 3689 01e1 02       		.byte	0x2
 3690 01e2 23       		.byte	0x23
 3691 01e3 08       		.uleb128 0x8
 3692 01e4 0C       		.uleb128 0xc
 3693 01e5 3E030000 		.4byte	.LASF31
 3694 01e9 04       		.byte	0x4
 3695 01ea 41       		.byte	0x41
 3696 01eb 09       		.byte	0x9
 3697 01ec 68000000 		.4byte	0x68
 3698 01f0 02       		.byte	0x2
 3699 01f1 23       		.byte	0x23
 3700 01f2 0C       		.uleb128 0xc
 3701 01f3 0C       		.uleb128 0xc
 3702 01f4 B9040000 		.4byte	.LASF32
 3703 01f8 04       		.byte	0x4
 3704 01f9 42       		.byte	0x42
 3705 01fa 09       		.byte	0x9
 3706 01fb 68000000 		.4byte	0x68
 3707 01ff 02       		.byte	0x2
 3708 0200 23       		.byte	0x23
 3709 0201 10       		.uleb128 0x10
 3710 0202 0C       		.uleb128 0xc
 3711 0203 6C050000 		.4byte	.LASF33
 3712 0207 04       		.byte	0x4
 3713 0208 43       		.byte	0x43
 3714 0209 09       		.byte	0x9
 3715 020a 68000000 		.4byte	0x68
 3716 020e 02       		.byte	0x2
 3717 020f 23       		.byte	0x23
 3718 0210 14       		.uleb128 0x14
ARM GAS  /tmp/ccEGVymn.s 			page 82


 3719 0211 0C       		.uleb128 0xc
 3720 0212 43010000 		.4byte	.LASF34
 3721 0216 04       		.byte	0x4
 3722 0217 44       		.byte	0x44
 3723 0218 09       		.byte	0x9
 3724 0219 68000000 		.4byte	0x68
 3725 021d 02       		.byte	0x2
 3726 021e 23       		.byte	0x23
 3727 021f 18       		.uleb128 0x18
 3728 0220 0C       		.uleb128 0xc
 3729 0221 7E020000 		.4byte	.LASF35
 3730 0225 04       		.byte	0x4
 3731 0226 45       		.byte	0x45
 3732 0227 09       		.byte	0x9
 3733 0228 68000000 		.4byte	0x68
 3734 022c 02       		.byte	0x2
 3735 022d 23       		.byte	0x23
 3736 022e 1C       		.uleb128 0x1c
 3737 022f 0C       		.uleb128 0xc
 3738 0230 74040000 		.4byte	.LASF36
 3739 0234 04       		.byte	0x4
 3740 0235 46       		.byte	0x46
 3741 0236 09       		.byte	0x9
 3742 0237 68000000 		.4byte	0x68
 3743 023b 02       		.byte	0x2
 3744 023c 23       		.byte	0x23
 3745 023d 20       		.uleb128 0x20
 3746 023e 00       		.byte	0
 3747 023f 10       		.uleb128 0x10
 3748 0240 30000000 		.4byte	.LASF37
 3749 0244 0801     		.2byte	0x108
 3750 0246 04       		.byte	0x4
 3751 0247 4F       		.byte	0x4f
 3752 0248 08       		.byte	0x8
 3753 0249 8D020000 		.4byte	0x28d
 3754 024d 0C       		.uleb128 0xc
 3755 024e 43070000 		.4byte	.LASF38
 3756 0252 04       		.byte	0x4
 3757 0253 50       		.byte	0x50
 3758 0254 0A       		.byte	0xa
 3759 0255 8D020000 		.4byte	0x28d
 3760 0259 02       		.byte	0x2
 3761 025a 23       		.byte	0x23
 3762 025b 00       		.uleb128 0
 3763 025c 0C       		.uleb128 0xc
 3764 025d 5E060000 		.4byte	.LASF39
 3765 0261 04       		.byte	0x4
 3766 0262 51       		.byte	0x51
 3767 0263 09       		.byte	0x9
 3768 0264 8D020000 		.4byte	0x28d
 3769 0268 03       		.byte	0x3
 3770 0269 23       		.byte	0x23
 3771 026a 8001     		.uleb128 0x80
 3772 026c 0C       		.uleb128 0xc
 3773 026d 6B080000 		.4byte	.LASF40
 3774 0271 04       		.byte	0x4
 3775 0272 53       		.byte	0x53
ARM GAS  /tmp/ccEGVymn.s 			page 83


 3776 0273 0A       		.byte	0xa
 3777 0274 0A010000 		.4byte	0x10a
 3778 0278 03       		.byte	0x3
 3779 0279 23       		.byte	0x23
 3780 027a 8002     		.uleb128 0x100
 3781 027c 0C       		.uleb128 0xc
 3782 027d BC080000 		.4byte	.LASF41
 3783 0281 04       		.byte	0x4
 3784 0282 56       		.byte	0x56
 3785 0283 0A       		.byte	0xa
 3786 0284 0A010000 		.4byte	0x10a
 3787 0288 03       		.byte	0x3
 3788 0289 23       		.byte	0x23
 3789 028a 8402     		.uleb128 0x104
 3790 028c 00       		.byte	0
 3791 028d 09       		.uleb128 0x9
 3792 028e 7D000000 		.4byte	0x7d
 3793 0292 9D020000 		.4byte	0x29d
 3794 0296 0A       		.uleb128 0xa
 3795 0297 6F000000 		.4byte	0x6f
 3796 029b 1F       		.byte	0x1f
 3797 029c 00       		.byte	0
 3798 029d 10       		.uleb128 0x10
 3799 029e F5040000 		.4byte	.LASF42
 3800 02a2 9001     		.2byte	0x190
 3801 02a4 04       		.byte	0x4
 3802 02a5 62       		.byte	0x62
 3803 02a6 08       		.byte	0x8
 3804 02a7 E9020000 		.4byte	0x2e9
 3805 02ab 0C       		.uleb128 0xc
 3806 02ac C7020000 		.4byte	.LASF22
 3807 02b0 04       		.byte	0x4
 3808 02b1 63       		.byte	0x63
 3809 02b2 12       		.byte	0x12
 3810 02b3 E9020000 		.4byte	0x2e9
 3811 02b7 02       		.byte	0x2
 3812 02b8 23       		.byte	0x23
 3813 02b9 00       		.uleb128 0
 3814 02ba 0C       		.uleb128 0xc
 3815 02bb 8D020000 		.4byte	.LASF43
 3816 02bf 04       		.byte	0x4
 3817 02c0 64       		.byte	0x64
 3818 02c1 06       		.byte	0x6
 3819 02c2 68000000 		.4byte	0x68
 3820 02c6 02       		.byte	0x2
 3821 02c7 23       		.byte	0x23
 3822 02c8 04       		.uleb128 0x4
 3823 02c9 0C       		.uleb128 0xc
 3824 02ca 1E010000 		.4byte	.LASF44
 3825 02ce 04       		.byte	0x4
 3826 02cf 66       		.byte	0x66
 3827 02d0 09       		.byte	0x9
 3828 02d1 EF020000 		.4byte	0x2ef
 3829 02d5 02       		.byte	0x2
 3830 02d6 23       		.byte	0x23
 3831 02d7 08       		.uleb128 0x8
 3832 02d8 0C       		.uleb128 0xc
ARM GAS  /tmp/ccEGVymn.s 			page 84


 3833 02d9 30000000 		.4byte	.LASF37
 3834 02dd 04       		.byte	0x4
 3835 02de 67       		.byte	0x67
 3836 02df 1E       		.byte	0x1e
 3837 02e0 3F020000 		.4byte	0x23f
 3838 02e4 03       		.byte	0x3
 3839 02e5 23       		.byte	0x23
 3840 02e6 8801     		.uleb128 0x88
 3841 02e8 00       		.byte	0
 3842 02e9 0F       		.uleb128 0xf
 3843 02ea 04       		.byte	0x4
 3844 02eb 9D020000 		.4byte	0x29d
 3845 02ef 09       		.uleb128 0x9
 3846 02f0 FF020000 		.4byte	0x2ff
 3847 02f4 FF020000 		.4byte	0x2ff
 3848 02f8 0A       		.uleb128 0xa
 3849 02f9 6F000000 		.4byte	0x6f
 3850 02fd 1F       		.byte	0x1f
 3851 02fe 00       		.byte	0
 3852 02ff 0F       		.uleb128 0xf
 3853 0300 04       		.byte	0x4
 3854 0301 05030000 		.4byte	0x305
 3855 0305 11       		.uleb128 0x11
 3856 0306 01       		.byte	0x1
 3857 0307 0D       		.uleb128 0xd
 3858 0308 CA060000 		.4byte	.LASF45
 3859 030c 08       		.byte	0x8
 3860 030d 04       		.byte	0x4
 3861 030e 7A       		.byte	0x7a
 3862 030f 08       		.byte	0x8
 3863 0310 33030000 		.4byte	0x333
 3864 0314 0C       		.uleb128 0xc
 3865 0315 06040000 		.4byte	.LASF46
 3866 0319 04       		.byte	0x4
 3867 031a 7B       		.byte	0x7b
 3868 031b 11       		.byte	0x11
 3869 031c 33030000 		.4byte	0x333
 3870 0320 02       		.byte	0x2
 3871 0321 23       		.byte	0x23
 3872 0322 00       		.uleb128 0
 3873 0323 0C       		.uleb128 0xc
 3874 0324 74080000 		.4byte	.LASF47
 3875 0328 04       		.byte	0x4
 3876 0329 7C       		.byte	0x7c
 3877 032a 06       		.byte	0x6
 3878 032b 68000000 		.4byte	0x68
 3879 032f 02       		.byte	0x2
 3880 0330 23       		.byte	0x23
 3881 0331 04       		.uleb128 0x4
 3882 0332 00       		.byte	0
 3883 0333 0F       		.uleb128 0xf
 3884 0334 04       		.byte	0x4
 3885 0335 37000000 		.4byte	0x37
 3886 0339 0D       		.uleb128 0xd
 3887 033a F4010000 		.4byte	.LASF48
 3888 033e 68       		.byte	0x68
 3889 033f 04       		.byte	0x4
ARM GAS  /tmp/ccEGVymn.s 			page 85


 3890 0340 BA       		.byte	0xba
 3891 0341 08       		.byte	0x8
 3892 0342 AC040000 		.4byte	0x4ac
 3893 0346 0E       		.uleb128 0xe
 3894 0347 5F7000   		.ascii	"_p\000"
 3895 034a 04       		.byte	0x4
 3896 034b BB       		.byte	0xbb
 3897 034c 12       		.byte	0x12
 3898 034d 33030000 		.4byte	0x333
 3899 0351 02       		.byte	0x2
 3900 0352 23       		.byte	0x23
 3901 0353 00       		.uleb128 0
 3902 0354 0E       		.uleb128 0xe
 3903 0355 5F7200   		.ascii	"_r\000"
 3904 0358 04       		.byte	0x4
 3905 0359 BC       		.byte	0xbc
 3906 035a 07       		.byte	0x7
 3907 035b 68000000 		.4byte	0x68
 3908 035f 02       		.byte	0x2
 3909 0360 23       		.byte	0x23
 3910 0361 04       		.uleb128 0x4
 3911 0362 0E       		.uleb128 0xe
 3912 0363 5F7700   		.ascii	"_w\000"
 3913 0366 04       		.byte	0x4
 3914 0367 BD       		.byte	0xbd
 3915 0368 07       		.byte	0x7
 3916 0369 68000000 		.4byte	0x68
 3917 036d 02       		.byte	0x2
 3918 036e 23       		.byte	0x23
 3919 036f 08       		.uleb128 0x8
 3920 0370 0C       		.uleb128 0xc
 3921 0371 8C000000 		.4byte	.LASF49
 3922 0375 04       		.byte	0x4
 3923 0376 BE       		.byte	0xbe
 3924 0377 09       		.byte	0x9
 3925 0378 3E000000 		.4byte	0x3e
 3926 037c 02       		.byte	0x2
 3927 037d 23       		.byte	0x23
 3928 037e 0C       		.uleb128 0xc
 3929 037f 0C       		.uleb128 0xc
 3930 0380 3B040000 		.4byte	.LASF50
 3931 0384 04       		.byte	0x4
 3932 0385 BF       		.byte	0xbf
 3933 0386 09       		.byte	0x9
 3934 0387 3E000000 		.4byte	0x3e
 3935 038b 02       		.byte	0x2
 3936 038c 23       		.byte	0x23
 3937 038d 0E       		.uleb128 0xe
 3938 038e 0E       		.uleb128 0xe
 3939 038f 5F626600 		.ascii	"_bf\000"
 3940 0393 04       		.byte	0x4
 3941 0394 C0       		.byte	0xc0
 3942 0395 11       		.byte	0x11
 3943 0396 07030000 		.4byte	0x307
 3944 039a 02       		.byte	0x2
 3945 039b 23       		.byte	0x23
 3946 039c 10       		.uleb128 0x10
ARM GAS  /tmp/ccEGVymn.s 			page 86


 3947 039d 0C       		.uleb128 0xc
 3948 039e 83000000 		.4byte	.LASF51
 3949 03a2 04       		.byte	0x4
 3950 03a3 C1       		.byte	0xc1
 3951 03a4 07       		.byte	0x7
 3952 03a5 68000000 		.4byte	0x68
 3953 03a9 02       		.byte	0x2
 3954 03aa 23       		.byte	0x23
 3955 03ab 18       		.uleb128 0x18
 3956 03ac 0C       		.uleb128 0xc
 3957 03ad 2C010000 		.4byte	.LASF52
 3958 03b1 04       		.byte	0x4
 3959 03b2 C8       		.byte	0xc8
 3960 03b3 0A       		.byte	0xa
 3961 03b4 7D000000 		.4byte	0x7d
 3962 03b8 02       		.byte	0x2
 3963 03b9 23       		.byte	0x23
 3964 03ba 1C       		.uleb128 0x1c
 3965 03bb 0C       		.uleb128 0xc
 3966 03bc DA000000 		.4byte	.LASF53
 3967 03c0 04       		.byte	0x4
 3968 03c1 CA       		.byte	0xca
 3969 03c2 1D       		.byte	0x1d
 3970 03c3 5D060000 		.4byte	0x65d
 3971 03c7 02       		.byte	0x2
 3972 03c8 23       		.byte	0x23
 3973 03c9 20       		.uleb128 0x20
 3974 03ca 0C       		.uleb128 0xc
 3975 03cb D9040000 		.4byte	.LASF54
 3976 03cf 04       		.byte	0x4
 3977 03d0 CC       		.byte	0xcc
 3978 03d1 1D       		.byte	0x1d
 3979 03d2 88060000 		.4byte	0x688
 3980 03d6 02       		.byte	0x2
 3981 03d7 23       		.byte	0x23
 3982 03d8 24       		.uleb128 0x24
 3983 03d9 0C       		.uleb128 0xc
 3984 03da E0080000 		.4byte	.LASF55
 3985 03de 04       		.byte	0x4
 3986 03df CF       		.byte	0xcf
 3987 03e0 0D       		.byte	0xd
 3988 03e1 AD060000 		.4byte	0x6ad
 3989 03e5 02       		.byte	0x2
 3990 03e6 23       		.byte	0x23
 3991 03e7 28       		.uleb128 0x28
 3992 03e8 0C       		.uleb128 0xc
 3993 03e9 AF030000 		.4byte	.LASF56
 3994 03ed 04       		.byte	0x4
 3995 03ee D0       		.byte	0xd0
 3996 03ef 09       		.byte	0x9
 3997 03f0 C8060000 		.4byte	0x6c8
 3998 03f4 02       		.byte	0x2
 3999 03f5 23       		.byte	0x23
 4000 03f6 2C       		.uleb128 0x2c
 4001 03f7 0E       		.uleb128 0xe
 4002 03f8 5F756200 		.ascii	"_ub\000"
 4003 03fc 04       		.byte	0x4
ARM GAS  /tmp/ccEGVymn.s 			page 87


 4004 03fd D3       		.byte	0xd3
 4005 03fe 11       		.byte	0x11
 4006 03ff 07030000 		.4byte	0x307
 4007 0403 02       		.byte	0x2
 4008 0404 23       		.byte	0x23
 4009 0405 30       		.uleb128 0x30
 4010 0406 0E       		.uleb128 0xe
 4011 0407 5F757000 		.ascii	"_up\000"
 4012 040b 04       		.byte	0x4
 4013 040c D4       		.byte	0xd4
 4014 040d 12       		.byte	0x12
 4015 040e 33030000 		.4byte	0x333
 4016 0412 02       		.byte	0x2
 4017 0413 23       		.byte	0x23
 4018 0414 38       		.uleb128 0x38
 4019 0415 0E       		.uleb128 0xe
 4020 0416 5F757200 		.ascii	"_ur\000"
 4021 041a 04       		.byte	0x4
 4022 041b D5       		.byte	0xd5
 4023 041c 07       		.byte	0x7
 4024 041d 68000000 		.4byte	0x68
 4025 0421 02       		.byte	0x2
 4026 0422 23       		.byte	0x23
 4027 0423 3C       		.uleb128 0x3c
 4028 0424 0C       		.uleb128 0xc
 4029 0425 00090000 		.4byte	.LASF57
 4030 0429 04       		.byte	0x4
 4031 042a D8       		.byte	0xd8
 4032 042b 11       		.byte	0x11
 4033 042c CE060000 		.4byte	0x6ce
 4034 0430 02       		.byte	0x2
 4035 0431 23       		.byte	0x23
 4036 0432 40       		.uleb128 0x40
 4037 0433 0C       		.uleb128 0xc
 4038 0434 88080000 		.4byte	.LASF58
 4039 0438 04       		.byte	0x4
 4040 0439 D9       		.byte	0xd9
 4041 043a 11       		.byte	0x11
 4042 043b DE060000 		.4byte	0x6de
 4043 043f 02       		.byte	0x2
 4044 0440 23       		.byte	0x23
 4045 0441 43       		.uleb128 0x43
 4046 0442 0E       		.uleb128 0xe
 4047 0443 5F6C6200 		.ascii	"_lb\000"
 4048 0447 04       		.byte	0x4
 4049 0448 DC       		.byte	0xdc
 4050 0449 11       		.byte	0x11
 4051 044a 07030000 		.4byte	0x307
 4052 044e 02       		.byte	0x2
 4053 044f 23       		.byte	0x23
 4054 0450 44       		.uleb128 0x44
 4055 0451 0C       		.uleb128 0xc
 4056 0452 F2050000 		.4byte	.LASF59
 4057 0456 04       		.byte	0x4
 4058 0457 DF       		.byte	0xdf
 4059 0458 07       		.byte	0x7
 4060 0459 68000000 		.4byte	0x68
ARM GAS  /tmp/ccEGVymn.s 			page 88


 4061 045d 02       		.byte	0x2
 4062 045e 23       		.byte	0x23
 4063 045f 4C       		.uleb128 0x4c
 4064 0460 0C       		.uleb128 0xc
 4065 0461 1D020000 		.4byte	.LASF60
 4066 0465 04       		.byte	0x4
 4067 0466 E0       		.byte	0xe0
 4068 0467 0A       		.byte	0xa
 4069 0468 8C000000 		.4byte	0x8c
 4070 046c 02       		.byte	0x2
 4071 046d 23       		.byte	0x23
 4072 046e 50       		.uleb128 0x50
 4073 046f 0C       		.uleb128 0xc
 4074 0470 3F050000 		.4byte	.LASF61
 4075 0474 04       		.byte	0x4
 4076 0475 E3       		.byte	0xe3
 4077 0476 12       		.byte	0x12
 4078 0477 CB040000 		.4byte	0x4cb
 4079 047b 02       		.byte	0x2
 4080 047c 23       		.byte	0x23
 4081 047d 54       		.uleb128 0x54
 4082 047e 0C       		.uleb128 0xc
 4083 047f 09060000 		.4byte	.LASF62
 4084 0483 04       		.byte	0x4
 4085 0484 E7       		.byte	0xe7
 4086 0485 0C       		.byte	0xc
 4087 0486 22010000 		.4byte	0x122
 4088 048a 02       		.byte	0x2
 4089 048b 23       		.byte	0x23
 4090 048c 58       		.uleb128 0x58
 4091 048d 0C       		.uleb128 0xc
 4092 048e FD040000 		.4byte	.LASF63
 4093 0492 04       		.byte	0x4
 4094 0493 E9       		.byte	0xe9
 4095 0494 0E       		.byte	0xe
 4096 0495 FE000000 		.4byte	0xfe
 4097 0499 02       		.byte	0x2
 4098 049a 23       		.byte	0x23
 4099 049b 5C       		.uleb128 0x5c
 4100 049c 0C       		.uleb128 0xc
 4101 049d B4080000 		.4byte	.LASF64
 4102 04a1 04       		.byte	0x4
 4103 04a2 EA       		.byte	0xea
 4104 04a3 09       		.byte	0x9
 4105 04a4 68000000 		.4byte	0x68
 4106 04a8 02       		.byte	0x2
 4107 04a9 23       		.byte	0x23
 4108 04aa 64       		.uleb128 0x64
 4109 04ab 00       		.byte	0
 4110 04ac 12       		.uleb128 0x12
 4111 04ad 01       		.byte	0x1
 4112 04ae 68000000 		.4byte	0x68
 4113 04b2 CB040000 		.4byte	0x4cb
 4114 04b6 13       		.uleb128 0x13
 4115 04b7 CB040000 		.4byte	0x4cb
 4116 04bb 13       		.uleb128 0x13
 4117 04bc 7D000000 		.4byte	0x7d
ARM GAS  /tmp/ccEGVymn.s 			page 89


 4118 04c0 13       		.uleb128 0x13
 4119 04c1 4B060000 		.4byte	0x64b
 4120 04c5 13       		.uleb128 0x13
 4121 04c6 68000000 		.4byte	0x68
 4122 04ca 00       		.byte	0
 4123 04cb 0F       		.uleb128 0xf
 4124 04cc 04       		.byte	0x4
 4125 04cd D6040000 		.4byte	0x4d6
 4126 04d1 14       		.uleb128 0x14
 4127 04d2 CB040000 		.4byte	0x4cb
 4128 04d6 15       		.uleb128 0x15
 4129 04d7 57070000 		.4byte	.LASF65
 4130 04db 2804     		.2byte	0x428
 4131 04dd 04       		.byte	0x4
 4132 04de 6502     		.2byte	0x265
 4133 04e0 08       		.byte	0x8
 4134 04e1 4B060000 		.4byte	0x64b
 4135 04e5 16       		.uleb128 0x16
 4136 04e6 93000000 		.4byte	.LASF66
 4137 04ea 04       		.byte	0x4
 4138 04eb 6702     		.2byte	0x267
 4139 04ed 07       		.byte	0x7
 4140 04ee 68000000 		.4byte	0x68
 4141 04f2 02       		.byte	0x2
 4142 04f3 23       		.byte	0x23
 4143 04f4 00       		.uleb128 0
 4144 04f5 16       		.uleb128 0x16
 4145 04f6 E2030000 		.4byte	.LASF67
 4146 04fa 04       		.byte	0x4
 4147 04fb 6C02     		.2byte	0x26c
 4148 04fd 0B       		.byte	0xb
 4149 04fe 40070000 		.4byte	0x740
 4150 0502 02       		.byte	0x2
 4151 0503 23       		.byte	0x23
 4152 0504 04       		.uleb128 0x4
 4153 0505 16       		.uleb128 0x16
 4154 0506 0E010000 		.4byte	.LASF68
 4155 050a 04       		.byte	0x4
 4156 050b 6C02     		.2byte	0x26c
 4157 050d 14       		.byte	0x14
 4158 050e 40070000 		.4byte	0x740
 4159 0512 02       		.byte	0x2
 4160 0513 23       		.byte	0x23
 4161 0514 08       		.uleb128 0x8
 4162 0515 16       		.uleb128 0x16
 4163 0516 EF080000 		.4byte	.LASF69
 4164 051a 04       		.byte	0x4
 4165 051b 6C02     		.2byte	0x26c
 4166 051d 1E       		.byte	0x1e
 4167 051e 40070000 		.4byte	0x740
 4168 0522 02       		.byte	0x2
 4169 0523 23       		.byte	0x23
 4170 0524 0C       		.uleb128 0xc
 4171 0525 16       		.uleb128 0x16
 4172 0526 88020000 		.4byte	.LASF70
 4173 052a 04       		.byte	0x4
 4174 052b 6E02     		.2byte	0x26e
ARM GAS  /tmp/ccEGVymn.s 			page 90


 4175 052d 08       		.byte	0x8
 4176 052e 68000000 		.4byte	0x68
 4177 0532 02       		.byte	0x2
 4178 0533 23       		.byte	0x23
 4179 0534 10       		.uleb128 0x10
 4180 0535 16       		.uleb128 0x16
 4181 0536 33020000 		.4byte	.LASF71
 4182 053a 04       		.byte	0x4
 4183 053b 6F02     		.2byte	0x26f
 4184 053d 08       		.byte	0x8
 4185 053e 79090000 		.4byte	0x979
 4186 0542 02       		.byte	0x2
 4187 0543 23       		.byte	0x23
 4188 0544 14       		.uleb128 0x14
 4189 0545 16       		.uleb128 0x16
 4190 0546 9B080000 		.4byte	.LASF72
 4191 054a 04       		.byte	0x4
 4192 054b 7202     		.2byte	0x272
 4193 054d 07       		.byte	0x7
 4194 054e 68000000 		.4byte	0x68
 4195 0552 02       		.byte	0x2
 4196 0553 23       		.byte	0x23
 4197 0554 30       		.uleb128 0x30
 4198 0555 16       		.uleb128 0x16
 4199 0556 3B070000 		.4byte	.LASF73
 4200 055a 04       		.byte	0x4
 4201 055b 7302     		.2byte	0x273
 4202 055d 16       		.byte	0x16
 4203 055e 8F090000 		.4byte	0x98f
 4204 0562 02       		.byte	0x2
 4205 0563 23       		.byte	0x23
 4206 0564 34       		.uleb128 0x34
 4207 0565 16       		.uleb128 0x16
 4208 0566 B6030000 		.4byte	.LASF74
 4209 056a 04       		.byte	0x4
 4210 056b 7502     		.2byte	0x275
 4211 056d 07       		.byte	0x7
 4212 056e 68000000 		.4byte	0x68
 4213 0572 02       		.byte	0x2
 4214 0573 23       		.byte	0x23
 4215 0574 38       		.uleb128 0x38
 4216 0575 16       		.uleb128 0x16
 4217 0576 4F040000 		.4byte	.LASF75
 4218 057a 04       		.byte	0x4
 4219 057b 7702     		.2byte	0x277
 4220 057d 0A       		.byte	0xa
 4221 057e A1090000 		.4byte	0x9a1
 4222 0582 02       		.byte	0x2
 4223 0583 23       		.byte	0x23
 4224 0584 3C       		.uleb128 0x3c
 4225 0585 16       		.uleb128 0x16
 4226 0586 4D010000 		.4byte	.LASF76
 4227 058a 04       		.byte	0x4
 4228 058b 7A02     		.2byte	0x27a
 4229 058d 13       		.byte	0x13
 4230 058e 94010000 		.4byte	0x194
 4231 0592 02       		.byte	0x2
ARM GAS  /tmp/ccEGVymn.s 			page 91


 4232 0593 23       		.byte	0x23
 4233 0594 40       		.uleb128 0x40
 4234 0595 16       		.uleb128 0x16
 4235 0596 C6010000 		.4byte	.LASF77
 4236 059a 04       		.byte	0x4
 4237 059b 7B02     		.2byte	0x27b
 4238 059d 07       		.byte	0x7
 4239 059e 68000000 		.4byte	0x68
 4240 05a2 02       		.byte	0x2
 4241 05a3 23       		.byte	0x23
 4242 05a4 44       		.uleb128 0x44
 4243 05a5 16       		.uleb128 0x16
 4244 05a6 FE020000 		.4byte	.LASF78
 4245 05aa 04       		.byte	0x4
 4246 05ab 7C02     		.2byte	0x27c
 4247 05ad 13       		.byte	0x13
 4248 05ae 94010000 		.4byte	0x194
 4249 05b2 02       		.byte	0x2
 4250 05b3 23       		.byte	0x23
 4251 05b4 48       		.uleb128 0x48
 4252 05b5 16       		.uleb128 0x16
 4253 05b6 0C040000 		.4byte	.LASF79
 4254 05ba 04       		.byte	0x4
 4255 05bb 7D02     		.2byte	0x27d
 4256 05bd 14       		.byte	0x14
 4257 05be A7090000 		.4byte	0x9a7
 4258 05c2 02       		.byte	0x2
 4259 05c3 23       		.byte	0x23
 4260 05c4 4C       		.uleb128 0x4c
 4261 05c5 16       		.uleb128 0x16
 4262 05c6 CA050000 		.4byte	.LASF80
 4263 05ca 04       		.byte	0x4
 4264 05cb 8002     		.2byte	0x280
 4265 05cd 07       		.byte	0x7
 4266 05ce 68000000 		.4byte	0x68
 4267 05d2 02       		.byte	0x2
 4268 05d3 23       		.byte	0x23
 4269 05d4 50       		.uleb128 0x50
 4270 05d5 16       		.uleb128 0x16
 4271 05d6 87060000 		.4byte	.LASF81
 4272 05da 04       		.byte	0x4
 4273 05db 8102     		.2byte	0x281
 4274 05dd 09       		.byte	0x9
 4275 05de 4B060000 		.4byte	0x64b
 4276 05e2 02       		.byte	0x2
 4277 05e3 23       		.byte	0x23
 4278 05e4 54       		.uleb128 0x54
 4279 05e5 16       		.uleb128 0x16
 4280 05e6 C5050000 		.4byte	.LASF82
 4281 05ea 04       		.byte	0x4
 4282 05eb A402     		.2byte	0x2a4
 4283 05ed 07       		.byte	0x7
 4284 05ee 54090000 		.4byte	0x954
 4285 05f2 02       		.byte	0x2
 4286 05f3 23       		.byte	0x23
 4287 05f4 58       		.uleb128 0x58
 4288 05f5 16       		.uleb128 0x16
ARM GAS  /tmp/ccEGVymn.s 			page 92


 4289 05f6 F5040000 		.4byte	.LASF42
 4290 05fa 04       		.byte	0x4
 4291 05fb A802     		.2byte	0x2a8
 4292 05fd 13       		.byte	0x13
 4293 05fe E9020000 		.4byte	0x2e9
 4294 0602 03       		.byte	0x3
 4295 0603 23       		.byte	0x23
 4296 0604 C802     		.uleb128 0x148
 4297 0606 16       		.uleb128 0x16
 4298 0607 61030000 		.4byte	.LASF83
 4299 060b 04       		.byte	0x4
 4300 060c A902     		.2byte	0x2a9
 4301 060e 12       		.byte	0x12
 4302 060f 9D020000 		.4byte	0x29d
 4303 0613 03       		.byte	0x3
 4304 0614 23       		.byte	0x23
 4305 0615 CC02     		.uleb128 0x14c
 4306 0617 16       		.uleb128 0x16
 4307 0618 48030000 		.4byte	.LASF84
 4308 061c 04       		.byte	0x4
 4309 061d AD02     		.2byte	0x2ad
 4310 061f 0C       		.byte	0xc
 4311 0620 B9090000 		.4byte	0x9b9
 4312 0624 03       		.byte	0x3
 4313 0625 23       		.byte	0x23
 4314 0626 DC05     		.uleb128 0x2dc
 4315 0628 16       		.uleb128 0x16
 4316 0629 FF060000 		.4byte	.LASF85
 4317 062d 04       		.byte	0x4
 4318 062e B202     		.2byte	0x2b2
 4319 0630 10       		.byte	0x10
 4320 0631 FB060000 		.4byte	0x6fb
 4321 0635 03       		.byte	0x3
 4322 0636 23       		.byte	0x23
 4323 0637 E005     		.uleb128 0x2e0
 4324 0639 16       		.uleb128 0x16
 4325 063a 22050000 		.4byte	.LASF86
 4326 063e 04       		.byte	0x4
 4327 063f B402     		.2byte	0x2b4
 4328 0641 0A       		.byte	0xa
 4329 0642 C5090000 		.4byte	0x9c5
 4330 0646 03       		.byte	0x3
 4331 0647 23       		.byte	0x23
 4332 0648 EC05     		.uleb128 0x2ec
 4333 064a 00       		.byte	0
 4334 064b 0F       		.uleb128 0xf
 4335 064c 04       		.byte	0x4
 4336 064d 51060000 		.4byte	0x651
 4337 0651 02       		.uleb128 0x2
 4338 0652 01       		.byte	0x1
 4339 0653 08       		.byte	0x8
 4340 0654 39030000 		.4byte	.LASF87
 4341 0658 14       		.uleb128 0x14
 4342 0659 51060000 		.4byte	0x651
 4343 065d 0F       		.uleb128 0xf
 4344 065e 04       		.byte	0x4
 4345 065f AC040000 		.4byte	0x4ac
ARM GAS  /tmp/ccEGVymn.s 			page 93


 4346 0663 12       		.uleb128 0x12
 4347 0664 01       		.byte	0x1
 4348 0665 68000000 		.4byte	0x68
 4349 0669 82060000 		.4byte	0x682
 4350 066d 13       		.uleb128 0x13
 4351 066e CB040000 		.4byte	0x4cb
 4352 0672 13       		.uleb128 0x13
 4353 0673 7D000000 		.4byte	0x7d
 4354 0677 13       		.uleb128 0x13
 4355 0678 82060000 		.4byte	0x682
 4356 067c 13       		.uleb128 0x13
 4357 067d 68000000 		.4byte	0x68
 4358 0681 00       		.byte	0
 4359 0682 0F       		.uleb128 0xf
 4360 0683 04       		.byte	0x4
 4361 0684 58060000 		.4byte	0x658
 4362 0688 0F       		.uleb128 0xf
 4363 0689 04       		.byte	0x4
 4364 068a 63060000 		.4byte	0x663
 4365 068e 12       		.uleb128 0x12
 4366 068f 01       		.byte	0x1
 4367 0690 98000000 		.4byte	0x98
 4368 0694 AD060000 		.4byte	0x6ad
 4369 0698 13       		.uleb128 0x13
 4370 0699 CB040000 		.4byte	0x4cb
 4371 069d 13       		.uleb128 0x13
 4372 069e 7D000000 		.4byte	0x7d
 4373 06a2 13       		.uleb128 0x13
 4374 06a3 98000000 		.4byte	0x98
 4375 06a7 13       		.uleb128 0x13
 4376 06a8 68000000 		.4byte	0x68
 4377 06ac 00       		.byte	0
 4378 06ad 0F       		.uleb128 0xf
 4379 06ae 04       		.byte	0x4
 4380 06af 8E060000 		.4byte	0x68e
 4381 06b3 12       		.uleb128 0x12
 4382 06b4 01       		.byte	0x1
 4383 06b5 68000000 		.4byte	0x68
 4384 06b9 C8060000 		.4byte	0x6c8
 4385 06bd 13       		.uleb128 0x13
 4386 06be CB040000 		.4byte	0x4cb
 4387 06c2 13       		.uleb128 0x13
 4388 06c3 7D000000 		.4byte	0x7d
 4389 06c7 00       		.byte	0
 4390 06c8 0F       		.uleb128 0xf
 4391 06c9 04       		.byte	0x4
 4392 06ca B3060000 		.4byte	0x6b3
 4393 06ce 09       		.uleb128 0x9
 4394 06cf 37000000 		.4byte	0x37
 4395 06d3 DE060000 		.4byte	0x6de
 4396 06d7 0A       		.uleb128 0xa
 4397 06d8 6F000000 		.4byte	0x6f
 4398 06dc 02       		.byte	0x2
 4399 06dd 00       		.byte	0
 4400 06de 09       		.uleb128 0x9
 4401 06df 37000000 		.4byte	0x37
 4402 06e3 EE060000 		.4byte	0x6ee
ARM GAS  /tmp/ccEGVymn.s 			page 94


 4403 06e7 0A       		.uleb128 0xa
 4404 06e8 6F000000 		.4byte	0x6f
 4405 06ec 00       		.byte	0
 4406 06ed 00       		.byte	0
 4407 06ee 05       		.uleb128 0x5
 4408 06ef 07020000 		.4byte	.LASF88
 4409 06f3 04       		.byte	0x4
 4410 06f4 2401     		.2byte	0x124
 4411 06f6 1A       		.byte	0x1a
 4412 06f7 39030000 		.4byte	0x339
 4413 06fb 17       		.uleb128 0x17
 4414 06fc DC060000 		.4byte	.LASF89
 4415 0700 0C       		.byte	0xc
 4416 0701 04       		.byte	0x4
 4417 0702 2801     		.2byte	0x128
 4418 0704 08       		.byte	0x8
 4419 0705 3A070000 		.4byte	0x73a
 4420 0709 16       		.uleb128 0x16
 4421 070a C7020000 		.4byte	.LASF22
 4422 070e 04       		.byte	0x4
 4423 070f 2A01     		.2byte	0x12a
 4424 0711 11       		.byte	0x11
 4425 0712 3A070000 		.4byte	0x73a
 4426 0716 02       		.byte	0x2
 4427 0717 23       		.byte	0x23
 4428 0718 00       		.uleb128 0
 4429 0719 16       		.uleb128 0x16
 4430 071a 40060000 		.4byte	.LASF90
 4431 071e 04       		.byte	0x4
 4432 071f 2B01     		.2byte	0x12b
 4433 0721 07       		.byte	0x7
 4434 0722 68000000 		.4byte	0x68
 4435 0726 02       		.byte	0x2
 4436 0727 23       		.byte	0x23
 4437 0728 04       		.uleb128 0x4
 4438 0729 16       		.uleb128 0x16
 4439 072a 93030000 		.4byte	.LASF91
 4440 072e 04       		.byte	0x4
 4441 072f 2C01     		.2byte	0x12c
 4442 0731 0B       		.byte	0xb
 4443 0732 40070000 		.4byte	0x740
 4444 0736 02       		.byte	0x2
 4445 0737 23       		.byte	0x23
 4446 0738 08       		.uleb128 0x8
 4447 0739 00       		.byte	0
 4448 073a 0F       		.uleb128 0xf
 4449 073b 04       		.byte	0x4
 4450 073c FB060000 		.4byte	0x6fb
 4451 0740 0F       		.uleb128 0xf
 4452 0741 04       		.byte	0x4
 4453 0742 EE060000 		.4byte	0x6ee
 4454 0746 17       		.uleb128 0x17
 4455 0747 BE010000 		.4byte	.LASF92
 4456 074b 0E       		.byte	0xe
 4457 074c 04       		.byte	0x4
 4458 074d 4401     		.2byte	0x144
 4459 074f 08       		.byte	0x8
ARM GAS  /tmp/ccEGVymn.s 			page 95


 4460 0750 85070000 		.4byte	0x785
 4461 0754 16       		.uleb128 0x16
 4462 0755 C4080000 		.4byte	.LASF93
 4463 0759 04       		.byte	0x4
 4464 075a 4501     		.2byte	0x145
 4465 075c 12       		.byte	0x12
 4466 075d 85070000 		.4byte	0x785
 4467 0761 02       		.byte	0x2
 4468 0762 23       		.byte	0x23
 4469 0763 00       		.uleb128 0
 4470 0764 16       		.uleb128 0x16
 4471 0765 16040000 		.4byte	.LASF94
 4472 0769 04       		.byte	0x4
 4473 076a 4601     		.2byte	0x146
 4474 076c 12       		.byte	0x12
 4475 076d 85070000 		.4byte	0x785
 4476 0771 02       		.byte	0x2
 4477 0772 23       		.byte	0x23
 4478 0773 06       		.uleb128 0x6
 4479 0774 16       		.uleb128 0x16
 4480 0775 B5060000 		.4byte	.LASF95
 4481 0779 04       		.byte	0x4
 4482 077a 4701     		.2byte	0x147
 4483 077c 12       		.byte	0x12
 4484 077d 45000000 		.4byte	0x45
 4485 0781 02       		.byte	0x2
 4486 0782 23       		.byte	0x23
 4487 0783 0C       		.uleb128 0xc
 4488 0784 00       		.byte	0
 4489 0785 09       		.uleb128 0x9
 4490 0786 45000000 		.4byte	0x45
 4491 078a 95070000 		.4byte	0x795
 4492 078e 0A       		.uleb128 0xa
 4493 078f 6F000000 		.4byte	0x6f
 4494 0793 02       		.byte	0x2
 4495 0794 00       		.byte	0
 4496 0795 18       		.uleb128 0x18
 4497 0796 D0       		.byte	0xd0
 4498 0797 04       		.byte	0x4
 4499 0798 8502     		.2byte	0x285
 4500 079a 07       		.byte	0x7
 4501 079b D9080000 		.4byte	0x8d9
 4502 079f 16       		.uleb128 0x16
 4503 07a0 8E080000 		.4byte	.LASF96
 4504 07a4 04       		.byte	0x4
 4505 07a5 8702     		.2byte	0x287
 4506 07a7 18       		.byte	0x18
 4507 07a8 6F000000 		.4byte	0x6f
 4508 07ac 02       		.byte	0x2
 4509 07ad 23       		.byte	0x23
 4510 07ae 00       		.uleb128 0
 4511 07af 16       		.uleb128 0x16
 4512 07b0 0F070000 		.4byte	.LASF97
 4513 07b4 04       		.byte	0x4
 4514 07b5 8802     		.2byte	0x288
 4515 07b7 12       		.byte	0x12
 4516 07b8 4B060000 		.4byte	0x64b
ARM GAS  /tmp/ccEGVymn.s 			page 96


 4517 07bc 02       		.byte	0x2
 4518 07bd 23       		.byte	0x23
 4519 07be 04       		.uleb128 0x4
 4520 07bf 16       		.uleb128 0x16
 4521 07c0 E7010000 		.4byte	.LASF98
 4522 07c4 04       		.byte	0x4
 4523 07c5 8902     		.2byte	0x289
 4524 07c7 10       		.byte	0x10
 4525 07c8 D9080000 		.4byte	0x8d9
 4526 07cc 02       		.byte	0x2
 4527 07cd 23       		.byte	0x23
 4528 07ce 08       		.uleb128 0x8
 4529 07cf 16       		.uleb128 0x16
 4530 07d0 AE050000 		.4byte	.LASF99
 4531 07d4 04       		.byte	0x4
 4532 07d5 8A02     		.2byte	0x28a
 4533 07d7 17       		.byte	0x17
 4534 07d8 AA010000 		.4byte	0x1aa
 4535 07dc 02       		.byte	0x2
 4536 07dd 23       		.byte	0x23
 4537 07de 24       		.uleb128 0x24
 4538 07df 16       		.uleb128 0x16
 4539 07e0 E9030000 		.4byte	.LASF100
 4540 07e4 04       		.byte	0x4
 4541 07e5 8B02     		.2byte	0x28b
 4542 07e7 0F       		.byte	0xf
 4543 07e8 68000000 		.4byte	0x68
 4544 07ec 02       		.byte	0x2
 4545 07ed 23       		.byte	0x23
 4546 07ee 48       		.uleb128 0x48
 4547 07ef 16       		.uleb128 0x16
 4548 07f0 CA080000 		.4byte	.LASF101
 4549 07f4 04       		.byte	0x4
 4550 07f5 8C02     		.2byte	0x28c
 4551 07f7 2C       		.byte	0x2c
 4552 07f8 61000000 		.4byte	0x61
 4553 07fc 02       		.byte	0x2
 4554 07fd 23       		.byte	0x23
 4555 07fe 50       		.uleb128 0x50
 4556 07ff 16       		.uleb128 0x16
 4557 0800 5D000000 		.4byte	.LASF102
 4558 0804 04       		.byte	0x4
 4559 0805 8D02     		.2byte	0x28d
 4560 0807 1A       		.byte	0x1a
 4561 0808 46070000 		.4byte	0x746
 4562 080c 02       		.byte	0x2
 4563 080d 23       		.byte	0x23
 4564 080e 58       		.uleb128 0x58
 4565 080f 16       		.uleb128 0x16
 4566 0810 2C030000 		.4byte	.LASF103
 4567 0814 04       		.byte	0x4
 4568 0815 8E02     		.2byte	0x28e
 4569 0817 16       		.byte	0x16
 4570 0818 FE000000 		.4byte	0xfe
 4571 081c 02       		.byte	0x2
 4572 081d 23       		.byte	0x23
 4573 081e 68       		.uleb128 0x68
ARM GAS  /tmp/ccEGVymn.s 			page 97


 4574 081f 16       		.uleb128 0x16
 4575 0820 1C070000 		.4byte	.LASF104
 4576 0824 04       		.byte	0x4
 4577 0825 8F02     		.2byte	0x28f
 4578 0827 16       		.byte	0x16
 4579 0828 FE000000 		.4byte	0xfe
 4580 082c 02       		.byte	0x2
 4581 082d 23       		.byte	0x23
 4582 082e 70       		.uleb128 0x70
 4583 082f 16       		.uleb128 0x16
 4584 0830 3E000000 		.4byte	.LASF105
 4585 0834 04       		.byte	0x4
 4586 0835 9002     		.2byte	0x290
 4587 0837 16       		.byte	0x16
 4588 0838 FE000000 		.4byte	0xfe
 4589 083c 02       		.byte	0x2
 4590 083d 23       		.byte	0x23
 4591 083e 78       		.uleb128 0x78
 4592 083f 16       		.uleb128 0x16
 4593 0840 DA050000 		.4byte	.LASF106
 4594 0844 04       		.byte	0x4
 4595 0845 9102     		.2byte	0x291
 4596 0847 10       		.byte	0x10
 4597 0848 E9080000 		.4byte	0x8e9
 4598 084c 03       		.byte	0x3
 4599 084d 23       		.byte	0x23
 4600 084e 8001     		.uleb128 0x80
 4601 0850 16       		.uleb128 0x16
 4602 0851 62000000 		.4byte	.LASF107
 4603 0855 04       		.byte	0x4
 4604 0856 9202     		.2byte	0x292
 4605 0858 10       		.byte	0x10
 4606 0859 F9080000 		.4byte	0x8f9
 4607 085d 03       		.byte	0x3
 4608 085e 23       		.byte	0x23
 4609 085f 8801     		.uleb128 0x88
 4610 0861 16       		.uleb128 0x16
 4611 0862 9D060000 		.4byte	.LASF108
 4612 0866 04       		.byte	0x4
 4613 0867 9302     		.2byte	0x293
 4614 0869 0F       		.byte	0xf
 4615 086a 68000000 		.4byte	0x68
 4616 086e 03       		.byte	0x3
 4617 086f 23       		.byte	0x23
 4618 0870 A001     		.uleb128 0xa0
 4619 0872 16       		.uleb128 0x16
 4620 0873 E8000000 		.4byte	.LASF109
 4621 0877 04       		.byte	0x4
 4622 0878 9402     		.2byte	0x294
 4623 087a 16       		.byte	0x16
 4624 087b FE000000 		.4byte	0xfe
 4625 087f 03       		.byte	0x3
 4626 0880 23       		.byte	0x23
 4627 0881 A401     		.uleb128 0xa4
 4628 0883 16       		.uleb128 0x16
 4629 0884 52030000 		.4byte	.LASF110
 4630 0888 04       		.byte	0x4
ARM GAS  /tmp/ccEGVymn.s 			page 98


 4631 0889 9502     		.2byte	0x295
 4632 088b 16       		.byte	0x16
 4633 088c FE000000 		.4byte	0xfe
 4634 0890 03       		.byte	0x3
 4635 0891 23       		.byte	0x23
 4636 0892 AC01     		.uleb128 0xac
 4637 0894 16       		.uleb128 0x16
 4638 0895 CD020000 		.4byte	.LASF111
 4639 0899 04       		.byte	0x4
 4640 089a 9602     		.2byte	0x296
 4641 089c 16       		.byte	0x16
 4642 089d FE000000 		.4byte	0xfe
 4643 08a1 03       		.byte	0x3
 4644 08a2 23       		.byte	0x23
 4645 08a3 B401     		.uleb128 0xb4
 4646 08a5 16       		.uleb128 0x16
 4647 08a6 2C040000 		.4byte	.LASF112
 4648 08aa 04       		.byte	0x4
 4649 08ab 9702     		.2byte	0x297
 4650 08ad 16       		.byte	0x16
 4651 08ae FE000000 		.4byte	0xfe
 4652 08b2 03       		.byte	0x3
 4653 08b3 23       		.byte	0x23
 4654 08b4 BC01     		.uleb128 0xbc
 4655 08b6 16       		.uleb128 0x16
 4656 08b7 1B030000 		.4byte	.LASF113
 4657 08bb 04       		.byte	0x4
 4658 08bc 9802     		.2byte	0x298
 4659 08be 16       		.byte	0x16
 4660 08bf FE000000 		.4byte	0xfe
 4661 08c3 03       		.byte	0x3
 4662 08c4 23       		.byte	0x23
 4663 08c5 C401     		.uleb128 0xc4
 4664 08c7 16       		.uleb128 0x16
 4665 08c8 92040000 		.4byte	.LASF114
 4666 08cc 04       		.byte	0x4
 4667 08cd 9902     		.2byte	0x299
 4668 08cf 08       		.byte	0x8
 4669 08d0 68000000 		.4byte	0x68
 4670 08d4 03       		.byte	0x3
 4671 08d5 23       		.byte	0x23
 4672 08d6 CC01     		.uleb128 0xcc
 4673 08d8 00       		.byte	0
 4674 08d9 09       		.uleb128 0x9
 4675 08da 51060000 		.4byte	0x651
 4676 08de E9080000 		.4byte	0x8e9
 4677 08e2 0A       		.uleb128 0xa
 4678 08e3 6F000000 		.4byte	0x6f
 4679 08e7 19       		.byte	0x19
 4680 08e8 00       		.byte	0
 4681 08e9 09       		.uleb128 0x9
 4682 08ea 51060000 		.4byte	0x651
 4683 08ee F9080000 		.4byte	0x8f9
 4684 08f2 0A       		.uleb128 0xa
 4685 08f3 6F000000 		.4byte	0x6f
 4686 08f7 07       		.byte	0x7
 4687 08f8 00       		.byte	0
ARM GAS  /tmp/ccEGVymn.s 			page 99


 4688 08f9 09       		.uleb128 0x9
 4689 08fa 51060000 		.4byte	0x651
 4690 08fe 09090000 		.4byte	0x909
 4691 0902 0A       		.uleb128 0xa
 4692 0903 6F000000 		.4byte	0x6f
 4693 0907 17       		.byte	0x17
 4694 0908 00       		.byte	0
 4695 0909 18       		.uleb128 0x18
 4696 090a F0       		.byte	0xf0
 4697 090b 04       		.byte	0x4
 4698 090c 9E02     		.2byte	0x29e
 4699 090e 07       		.byte	0x7
 4700 090f 34090000 		.4byte	0x934
 4701 0913 16       		.uleb128 0x16
 4702 0914 A6010000 		.4byte	.LASF115
 4703 0918 04       		.byte	0x4
 4704 0919 A102     		.2byte	0x2a1
 4705 091b 1B       		.byte	0x1b
 4706 091c 34090000 		.4byte	0x934
 4707 0920 02       		.byte	0x2
 4708 0921 23       		.byte	0x23
 4709 0922 00       		.uleb128 0
 4710 0923 16       		.uleb128 0x16
 4711 0924 F7080000 		.4byte	.LASF116
 4712 0928 04       		.byte	0x4
 4713 0929 A202     		.2byte	0x2a2
 4714 092b 18       		.byte	0x18
 4715 092c 44090000 		.4byte	0x944
 4716 0930 02       		.byte	0x2
 4717 0931 23       		.byte	0x23
 4718 0932 78       		.uleb128 0x78
 4719 0933 00       		.byte	0
 4720 0934 09       		.uleb128 0x9
 4721 0935 33030000 		.4byte	0x333
 4722 0939 44090000 		.4byte	0x944
 4723 093d 0A       		.uleb128 0xa
 4724 093e 6F000000 		.4byte	0x6f
 4725 0942 1D       		.byte	0x1d
 4726 0943 00       		.byte	0
 4727 0944 09       		.uleb128 0x9
 4728 0945 6F000000 		.4byte	0x6f
 4729 0949 54090000 		.4byte	0x954
 4730 094d 0A       		.uleb128 0xa
 4731 094e 6F000000 		.4byte	0x6f
 4732 0952 1D       		.byte	0x1d
 4733 0953 00       		.byte	0
 4734 0954 19       		.uleb128 0x19
 4735 0955 F0       		.byte	0xf0
 4736 0956 04       		.byte	0x4
 4737 0957 8302     		.2byte	0x283
 4738 0959 03       		.byte	0x3
 4739 095a 79090000 		.4byte	0x979
 4740 095e 1A       		.uleb128 0x1a
 4741 095f 57070000 		.4byte	.LASF65
 4742 0963 04       		.byte	0x4
 4743 0964 9A02     		.2byte	0x29a
 4744 0966 0B       		.byte	0xb
ARM GAS  /tmp/ccEGVymn.s 			page 100


 4745 0967 95070000 		.4byte	0x795
 4746 096b 1A       		.uleb128 0x1a
 4747 096c BD050000 		.4byte	.LASF117
 4748 0970 04       		.byte	0x4
 4749 0971 A302     		.2byte	0x2a3
 4750 0973 0B       		.byte	0xb
 4751 0974 09090000 		.4byte	0x909
 4752 0978 00       		.byte	0
 4753 0979 09       		.uleb128 0x9
 4754 097a 51060000 		.4byte	0x651
 4755 097e 89090000 		.4byte	0x989
 4756 0982 0A       		.uleb128 0xa
 4757 0983 6F000000 		.4byte	0x6f
 4758 0987 18       		.byte	0x18
 4759 0988 00       		.byte	0
 4760 0989 1B       		.uleb128 0x1b
 4761 098a D5080000 		.4byte	.LASF204
 4762 098e 01       		.byte	0x1
 4763 098f 0F       		.uleb128 0xf
 4764 0990 04       		.byte	0x4
 4765 0991 89090000 		.4byte	0x989
 4766 0995 1C       		.uleb128 0x1c
 4767 0996 01       		.byte	0x1
 4768 0997 A1090000 		.4byte	0x9a1
 4769 099b 13       		.uleb128 0x13
 4770 099c CB040000 		.4byte	0x4cb
 4771 09a0 00       		.byte	0
 4772 09a1 0F       		.uleb128 0xf
 4773 09a2 04       		.byte	0x4
 4774 09a3 95090000 		.4byte	0x995
 4775 09a7 0F       		.uleb128 0xf
 4776 09a8 04       		.byte	0x4
 4777 09a9 94010000 		.4byte	0x194
 4778 09ad 1C       		.uleb128 0x1c
 4779 09ae 01       		.byte	0x1
 4780 09af B9090000 		.4byte	0x9b9
 4781 09b3 13       		.uleb128 0x13
 4782 09b4 68000000 		.4byte	0x68
 4783 09b8 00       		.byte	0
 4784 09b9 0F       		.uleb128 0xf
 4785 09ba 04       		.byte	0x4
 4786 09bb BF090000 		.4byte	0x9bf
 4787 09bf 0F       		.uleb128 0xf
 4788 09c0 04       		.byte	0x4
 4789 09c1 AD090000 		.4byte	0x9ad
 4790 09c5 09       		.uleb128 0x9
 4791 09c6 EE060000 		.4byte	0x6ee
 4792 09ca D5090000 		.4byte	0x9d5
 4793 09ce 0A       		.uleb128 0xa
 4794 09cf 6F000000 		.4byte	0x6f
 4795 09d3 02       		.byte	0x2
 4796 09d4 00       		.byte	0
 4797 09d5 1D       		.uleb128 0x1d
 4798 09d6 92010000 		.4byte	.LASF118
 4799 09da 04       		.byte	0x4
 4800 09db 3303     		.2byte	0x333
 4801 09dd 17       		.byte	0x17
ARM GAS  /tmp/ccEGVymn.s 			page 101


 4802 09de CB040000 		.4byte	0x4cb
 4803 09e2 01       		.byte	0x1
 4804 09e3 01       		.byte	0x1
 4805 09e4 1D       		.uleb128 0x1d
 4806 09e5 4C050000 		.4byte	.LASF119
 4807 09e9 04       		.byte	0x4
 4808 09ea 3403     		.2byte	0x334
 4809 09ec 1D       		.byte	0x1d
 4810 09ed D1040000 		.4byte	0x4d1
 4811 09f1 01       		.byte	0x1
 4812 09f2 01       		.byte	0x1
 4813 09f3 14       		.uleb128 0x14
 4814 09f4 29000000 		.4byte	0x29
 4815 09f8 02       		.uleb128 0x2
 4816 09f9 08       		.byte	0x8
 4817 09fa 04       		.byte	0x4
 4818 09fb 7A080000 		.4byte	.LASF120
 4819 09ff 1E       		.uleb128 0x1e
 4820 0a00 E2060000 		.4byte	.LASF205
 4821 0a04 05       		.byte	0x5
 4822 0a05 01       		.byte	0x1
 4823 0a06 30000000 		.4byte	0x30
 4824 0a0a 06       		.byte	0x6
 4825 0a0b 5F02     		.2byte	0x25f
 4826 0a0d 06       		.byte	0x6
 4827 0a0e 1F0A0000 		.4byte	0xa1f
 4828 0a12 1F       		.uleb128 0x1f
 4829 0a13 97050000 		.4byte	.LASF121
 4830 0a17 7F       		.sleb128 -1
 4831 0a18 20       		.uleb128 0x20
 4832 0a19 0E020000 		.4byte	.LASF122
 4833 0a1d 00       		.byte	0
 4834 0a1e 00       		.byte	0
 4835 0a1f 1D       		.uleb128 0x1d
 4836 0a20 59040000 		.4byte	.LASF123
 4837 0a24 06       		.byte	0x6
 4838 0a25 6802     		.2byte	0x268
 4839 0a27 23       		.byte	0x23
 4840 0a28 FF090000 		.4byte	0x9ff
 4841 0a2c 01       		.byte	0x1
 4842 0a2d 01       		.byte	0x1
 4843 0a2e 21       		.uleb128 0x21
 4844 0a2f 74020000 		.4byte	.LASF124
 4845 0a33 07       		.byte	0x7
 4846 0a34 67       		.byte	0x67
 4847 0a35 0E       		.byte	0xe
 4848 0a36 4B060000 		.4byte	0x64b
 4849 0a3a 01       		.byte	0x1
 4850 0a3b 01       		.byte	0x1
 4851 0a3c 0D       		.uleb128 0xd
 4852 0a3d 29060000 		.4byte	.LASF125
 4853 0a41 08       		.byte	0x8
 4854 0a42 08       		.byte	0x8
 4855 0a43 12       		.byte	0x12
 4856 0a44 08       		.byte	0x8
 4857 0a45 640A0000 		.4byte	0xa64
 4858 0a49 0E       		.uleb128 0xe
ARM GAS  /tmp/ccEGVymn.s 			page 102


 4859 0a4a 7800     		.ascii	"x\000"
 4860 0a4c 08       		.byte	0x8
 4861 0a4d 14       		.byte	0x14
 4862 0a4e 08       		.byte	0x8
 4863 0a4f 29000000 		.4byte	0x29
 4864 0a53 02       		.byte	0x2
 4865 0a54 23       		.byte	0x23
 4866 0a55 00       		.uleb128 0
 4867 0a56 0E       		.uleb128 0xe
 4868 0a57 7900     		.ascii	"y\000"
 4869 0a59 08       		.byte	0x8
 4870 0a5a 14       		.byte	0x14
 4871 0a5b 0B       		.byte	0xb
 4872 0a5c 29000000 		.4byte	0x29
 4873 0a60 02       		.byte	0x2
 4874 0a61 23       		.byte	0x23
 4875 0a62 04       		.uleb128 0x4
 4876 0a63 00       		.byte	0
 4877 0a64 0D       		.uleb128 0xd
 4878 0a65 55010000 		.4byte	.LASF126
 4879 0a69 04       		.byte	0x4
 4880 0a6a 09       		.byte	0x9
 4881 0a6b 09       		.byte	0x9
 4882 0a6c 09       		.byte	0x9
 4883 0a6d AE0A0000 		.4byte	0xaae
 4884 0a71 0C       		.uleb128 0xc
 4885 0a72 4E060000 		.4byte	.LASF127
 4886 0a76 09       		.byte	0x9
 4887 0a77 0B       		.byte	0xb
 4888 0a78 08       		.byte	0x8
 4889 0a79 51060000 		.4byte	0x651
 4890 0a7d 02       		.byte	0x2
 4891 0a7e 23       		.byte	0x23
 4892 0a7f 00       		.uleb128 0
 4893 0a80 0C       		.uleb128 0xc
 4894 0a81 7B030000 		.4byte	.LASF128
 4895 0a85 09       		.byte	0x9
 4896 0a86 0C       		.byte	0xc
 4897 0a87 08       		.byte	0x8
 4898 0a88 51060000 		.4byte	0x651
 4899 0a8c 02       		.byte	0x2
 4900 0a8d 23       		.byte	0x23
 4901 0a8e 01       		.uleb128 0x1
 4902 0a8f 0C       		.uleb128 0xc
 4903 0a90 56060000 		.4byte	.LASF129
 4904 0a94 09       		.byte	0x9
 4905 0a95 0D       		.byte	0xd
 4906 0a96 08       		.byte	0x8
 4907 0a97 51060000 		.4byte	0x651
 4908 0a9b 02       		.byte	0x2
 4909 0a9c 23       		.byte	0x23
 4910 0a9d 02       		.uleb128 0x2
 4911 0a9e 0C       		.uleb128 0xc
 4912 0a9f 84030000 		.4byte	.LASF130
 4913 0aa3 09       		.byte	0x9
 4914 0aa4 0E       		.byte	0xe
 4915 0aa5 08       		.byte	0x8
ARM GAS  /tmp/ccEGVymn.s 			page 103


 4916 0aa6 51060000 		.4byte	0x651
 4917 0aaa 02       		.byte	0x2
 4918 0aab 23       		.byte	0x23
 4919 0aac 03       		.uleb128 0x3
 4920 0aad 00       		.byte	0
 4921 0aae 22       		.uleb128 0x22
 4922 0aaf 3E020000 		.4byte	.LASF206
 4923 0ab3 04       		.byte	0x4
 4924 0ab4 09       		.byte	0x9
 4925 0ab5 07       		.byte	0x7
 4926 0ab6 07       		.byte	0x7
 4927 0ab7 D20A0000 		.4byte	0xad2
 4928 0abb 23       		.uleb128 0x23
 4929 0abc 6500     		.ascii	"e\000"
 4930 0abe 09       		.byte	0x9
 4931 0abf 0F       		.byte	0xf
 4932 0ac0 04       		.byte	0x4
 4933 0ac1 640A0000 		.4byte	0xa64
 4934 0ac5 08       		.uleb128 0x8
 4935 0ac6 2D020000 		.4byte	.LASF131
 4936 0aca 09       		.byte	0x9
 4937 0acb 10       		.byte	0x10
 4938 0acc 06       		.byte	0x6
 4939 0acd 68000000 		.4byte	0x68
 4940 0ad1 00       		.byte	0
 4941 0ad2 0D       		.uleb128 0xd
 4942 0ad3 37050000 		.4byte	.LASF132
 4943 0ad7 40       		.byte	0x40
 4944 0ad8 09       		.byte	0x9
 4945 0ad9 13       		.byte	0x13
 4946 0ada 08       		.byte	0x8
 4947 0adb 900B0000 		.4byte	0xb90
 4948 0adf 0C       		.uleb128 0xc
 4949 0ae0 E6080000 		.4byte	.LASF133
 4950 0ae4 09       		.byte	0x9
 4951 0ae5 15       		.byte	0x15
 4952 0ae6 0E       		.byte	0xe
 4953 0ae7 3C0A0000 		.4byte	0xa3c
 4954 0aeb 02       		.byte	0x2
 4955 0aec 23       		.byte	0x23
 4956 0aed 00       		.uleb128 0
 4957 0aee 0C       		.uleb128 0xc
 4958 0aef 6A060000 		.4byte	.LASF134
 4959 0af3 09       		.byte	0x9
 4960 0af4 16       		.byte	0x16
 4961 0af5 0E       		.byte	0xe
 4962 0af6 3C0A0000 		.4byte	0xa3c
 4963 0afa 02       		.byte	0x2
 4964 0afb 23       		.byte	0x23
 4965 0afc 08       		.uleb128 0x8
 4966 0afd 0E       		.uleb128 0xe
 4967 0afe 723100   		.ascii	"r1\000"
 4968 0b01 09       		.byte	0x9
 4969 0b02 17       		.byte	0x17
 4970 0b03 0E       		.byte	0xe
 4971 0b04 3C0A0000 		.4byte	0xa3c
 4972 0b08 02       		.byte	0x2
ARM GAS  /tmp/ccEGVymn.s 			page 104


 4973 0b09 23       		.byte	0x23
 4974 0b0a 10       		.uleb128 0x10
 4975 0b0b 0E       		.uleb128 0xe
 4976 0b0c 723200   		.ascii	"r2\000"
 4977 0b0f 09       		.byte	0x9
 4978 0b10 17       		.byte	0x17
 4979 0b11 12       		.byte	0x12
 4980 0b12 3C0A0000 		.4byte	0xa3c
 4981 0b16 02       		.byte	0x2
 4982 0b17 23       		.byte	0x23
 4983 0b18 18       		.uleb128 0x18
 4984 0b19 0C       		.uleb128 0xc
 4985 0b1a A4030000 		.4byte	.LASF135
 4986 0b1e 09       		.byte	0x9
 4987 0b1f 18       		.byte	0x18
 4988 0b20 08       		.byte	0x8
 4989 0b21 29000000 		.4byte	0x29
 4990 0b25 02       		.byte	0x2
 4991 0b26 23       		.byte	0x23
 4992 0b27 20       		.uleb128 0x20
 4993 0b28 0E       		.uleb128 0xe
 4994 0b29 506E00   		.ascii	"Pn\000"
 4995 0b2c 09       		.byte	0x9
 4996 0b2d 19       		.byte	0x19
 4997 0b2e 08       		.byte	0x8
 4998 0b2f 29000000 		.4byte	0x29
 4999 0b33 02       		.byte	0x2
 5000 0b34 23       		.byte	0x23
 5001 0b35 24       		.uleb128 0x24
 5002 0b36 0E       		.uleb128 0xe
 5003 0b37 507400   		.ascii	"Pt\000"
 5004 0b3a 09       		.byte	0x9
 5005 0b3b 1A       		.byte	0x1a
 5006 0b3c 08       		.byte	0x8
 5007 0b3d 29000000 		.4byte	0x29
 5008 0b41 02       		.byte	0x2
 5009 0b42 23       		.byte	0x23
 5010 0b43 28       		.uleb128 0x28
 5011 0b44 0E       		.uleb128 0xe
 5012 0b45 506E6200 		.ascii	"Pnb\000"
 5013 0b49 09       		.byte	0x9
 5014 0b4a 1B       		.byte	0x1b
 5015 0b4b 08       		.byte	0x8
 5016 0b4c 29000000 		.4byte	0x29
 5017 0b50 02       		.byte	0x2
 5018 0b51 23       		.byte	0x23
 5019 0b52 2C       		.uleb128 0x2c
 5020 0b53 0C       		.uleb128 0xc
 5021 0b54 71060000 		.4byte	.LASF136
 5022 0b58 09       		.byte	0x9
 5023 0b59 1C       		.byte	0x1c
 5024 0b5a 08       		.byte	0x8
 5025 0b5b 29000000 		.4byte	0x29
 5026 0b5f 02       		.byte	0x2
 5027 0b60 23       		.byte	0x23
 5028 0b61 30       		.uleb128 0x30
 5029 0b62 0C       		.uleb128 0xc
ARM GAS  /tmp/ccEGVymn.s 			page 105


 5030 0b63 06090000 		.4byte	.LASF137
 5031 0b67 09       		.byte	0x9
 5032 0b68 1C       		.byte	0x1c
 5033 0b69 14       		.byte	0x14
 5034 0b6a 29000000 		.4byte	0x29
 5035 0b6e 02       		.byte	0x2
 5036 0b6f 23       		.byte	0x23
 5037 0b70 34       		.uleb128 0x34
 5038 0b71 0C       		.uleb128 0xc
 5039 0b72 B9010000 		.4byte	.LASF138
 5040 0b76 09       		.byte	0x9
 5041 0b77 1D       		.byte	0x1d
 5042 0b78 08       		.byte	0x8
 5043 0b79 29000000 		.4byte	0x29
 5044 0b7d 02       		.byte	0x2
 5045 0b7e 23       		.byte	0x23
 5046 0b7f 38       		.uleb128 0x38
 5047 0b80 0C       		.uleb128 0xc
 5048 0b81 B1040000 		.4byte	.LASF139
 5049 0b85 09       		.byte	0x9
 5050 0b86 1E       		.byte	0x1e
 5051 0b87 14       		.byte	0x14
 5052 0b88 AE0A0000 		.4byte	0xaae
 5053 0b8c 02       		.byte	0x2
 5054 0b8d 23       		.byte	0x23
 5055 0b8e 3C       		.uleb128 0x3c
 5056 0b8f 00       		.byte	0
 5057 0b90 0D       		.uleb128 0xd
 5058 0b91 2A070000 		.4byte	.LASF140
 5059 0b95 40       		.byte	0x40
 5060 0b96 09       		.byte	0x9
 5061 0b97 21       		.byte	0x21
 5062 0b98 08       		.byte	0x8
 5063 0b99 500C0000 		.4byte	0xc50
 5064 0b9d 0C       		.uleb128 0xc
 5065 0b9e E6080000 		.4byte	.LASF133
 5066 0ba2 09       		.byte	0x9
 5067 0ba3 2B       		.byte	0x2b
 5068 0ba4 0E       		.byte	0xe
 5069 0ba5 3C0A0000 		.4byte	0xa3c
 5070 0ba9 02       		.byte	0x2
 5071 0baa 23       		.byte	0x23
 5072 0bab 00       		.uleb128 0
 5073 0bac 0C       		.uleb128 0xc
 5074 0bad 23010000 		.4byte	.LASF141
 5075 0bb1 09       		.byte	0x9
 5076 0bb2 2C       		.byte	0x2c
 5077 0bb3 08       		.byte	0x8
 5078 0bb4 29000000 		.4byte	0x29
 5079 0bb8 02       		.byte	0x2
 5080 0bb9 23       		.byte	0x23
 5081 0bba 08       		.uleb128 0x8
 5082 0bbb 0C       		.uleb128 0xc
 5083 0bbc 00060000 		.4byte	.LASF142
 5084 0bc0 09       		.byte	0x9
 5085 0bc1 2E       		.byte	0x2e
 5086 0bc2 0E       		.byte	0xe
ARM GAS  /tmp/ccEGVymn.s 			page 106


 5087 0bc3 3C0A0000 		.4byte	0xa3c
 5088 0bc7 02       		.byte	0x2
 5089 0bc8 23       		.byte	0x23
 5090 0bc9 0C       		.uleb128 0xc
 5091 0bca 0C       		.uleb128 0xc
 5092 0bcb BA060000 		.4byte	.LASF143
 5093 0bcf 09       		.byte	0x9
 5094 0bd0 2F       		.byte	0x2f
 5095 0bd1 08       		.byte	0x8
 5096 0bd2 29000000 		.4byte	0x29
 5097 0bd6 02       		.byte	0x2
 5098 0bd7 23       		.byte	0x23
 5099 0bd8 14       		.uleb128 0x14
 5100 0bd9 0C       		.uleb128 0xc
 5101 0bda 01020000 		.4byte	.LASF144
 5102 0bde 09       		.byte	0x9
 5103 0bdf 31       		.byte	0x31
 5104 0be0 0E       		.byte	0xe
 5105 0be1 3C0A0000 		.4byte	0xa3c
 5106 0be5 02       		.byte	0x2
 5107 0be6 23       		.byte	0x23
 5108 0be7 18       		.uleb128 0x18
 5109 0be8 0C       		.uleb128 0xc
 5110 0be9 3C010000 		.4byte	.LASF145
 5111 0bed 09       		.byte	0x9
 5112 0bee 32       		.byte	0x32
 5113 0bef 08       		.byte	0x8
 5114 0bf0 29000000 		.4byte	0x29
 5115 0bf4 02       		.byte	0x2
 5116 0bf5 23       		.byte	0x23
 5117 0bf6 20       		.uleb128 0x20
 5118 0bf7 0C       		.uleb128 0xc
 5119 0bf8 56020000 		.4byte	.LASF146
 5120 0bfc 09       		.byte	0x9
 5121 0bfd 34       		.byte	0x34
 5122 0bfe 0E       		.byte	0xe
 5123 0bff 3C0A0000 		.4byte	0xa3c
 5124 0c03 02       		.byte	0x2
 5125 0c04 23       		.byte	0x23
 5126 0c05 24       		.uleb128 0x24
 5127 0c06 0C       		.uleb128 0xc
 5128 0c07 4C000000 		.4byte	.LASF147
 5129 0c0b 09       		.byte	0x9
 5130 0c0c 36       		.byte	0x36
 5131 0c0d 08       		.byte	0x8
 5132 0c0e 29000000 		.4byte	0x29
 5133 0c12 02       		.byte	0x2
 5134 0c13 23       		.byte	0x23
 5135 0c14 2C       		.uleb128 0x2c
 5136 0c15 0C       		.uleb128 0xc
 5137 0c16 8D040000 		.4byte	.LASF148
 5138 0c1a 09       		.byte	0x9
 5139 0c1b 37       		.byte	0x37
 5140 0c1c 08       		.byte	0x8
 5141 0c1d 29000000 		.4byte	0x29
 5142 0c21 02       		.byte	0x2
 5143 0c22 23       		.byte	0x23
ARM GAS  /tmp/ccEGVymn.s 			page 107


 5144 0c23 30       		.uleb128 0x30
 5145 0c24 0C       		.uleb128 0xc
 5146 0c25 55000000 		.4byte	.LASF149
 5147 0c29 09       		.byte	0x9
 5148 0c2a 37       		.byte	0x37
 5149 0c2b 0E       		.byte	0xe
 5150 0c2c 29000000 		.4byte	0x29
 5151 0c30 02       		.byte	0x2
 5152 0c31 23       		.byte	0x23
 5153 0c32 34       		.uleb128 0x34
 5154 0c33 0E       		.uleb128 0xe
 5155 0c34 4900     		.ascii	"I\000"
 5156 0c36 09       		.byte	0x9
 5157 0c37 38       		.byte	0x38
 5158 0c38 08       		.byte	0x8
 5159 0c39 29000000 		.4byte	0x29
 5160 0c3d 02       		.byte	0x2
 5161 0c3e 23       		.byte	0x23
 5162 0c3f 38       		.uleb128 0x38
 5163 0c40 0C       		.uleb128 0xc
 5164 0c41 9B040000 		.4byte	.LASF150
 5165 0c45 09       		.byte	0x9
 5166 0c46 38       		.byte	0x38
 5167 0c47 0B       		.byte	0xb
 5168 0c48 29000000 		.4byte	0x29
 5169 0c4c 02       		.byte	0x2
 5170 0c4d 23       		.byte	0x23
 5171 0c4e 3C       		.uleb128 0x3c
 5172 0c4f 00       		.byte	0
 5173 0c50 0D       		.uleb128 0xd
 5174 0c51 07070000 		.4byte	.LASF151
 5175 0c55 90       		.byte	0x90
 5176 0c56 01       		.byte	0x1
 5177 0c57 14       		.byte	0x14
 5178 0c58 08       		.byte	0x8
 5179 0c59 AD0C0000 		.4byte	0xcad
 5180 0c5d 0C       		.uleb128 0xc
 5181 0c5e 03030000 		.4byte	.LASF152
 5182 0c62 01       		.byte	0x1
 5183 0c63 16       		.byte	0x16
 5184 0c64 11       		.byte	0x11
 5185 0c65 AD0C0000 		.4byte	0xcad
 5186 0c69 02       		.byte	0x2
 5187 0c6a 23       		.byte	0x23
 5188 0c6b 00       		.uleb128 0
 5189 0c6c 0C       		.uleb128 0xc
 5190 0c6d 9A000000 		.4byte	.LASF153
 5191 0c71 01       		.byte	0x1
 5192 0c72 17       		.byte	0x17
 5193 0c73 06       		.byte	0x6
 5194 0c74 68000000 		.4byte	0x68
 5195 0c78 03       		.byte	0x3
 5196 0c79 23       		.byte	0x23
 5197 0c7a 8001     		.uleb128 0x80
 5198 0c7c 0C       		.uleb128 0xc
 5199 0c7d DC030000 		.4byte	.LASF154
 5200 0c81 01       		.byte	0x1
ARM GAS  /tmp/ccEGVymn.s 			page 108


 5201 0c82 19       		.byte	0x19
 5202 0c83 0F       		.byte	0xf
 5203 0c84 BD0C0000 		.4byte	0xcbd
 5204 0c88 03       		.byte	0x3
 5205 0c89 23       		.byte	0x23
 5206 0c8a 8401     		.uleb128 0x84
 5207 0c8c 0C       		.uleb128 0xc
 5208 0c8d 1C000000 		.4byte	.LASF155
 5209 0c91 01       		.byte	0x1
 5210 0c92 1A       		.byte	0x1a
 5211 0c93 0F       		.byte	0xf
 5212 0c94 BD0C0000 		.4byte	0xcbd
 5213 0c98 03       		.byte	0x3
 5214 0c99 23       		.byte	0x23
 5215 0c9a 8801     		.uleb128 0x88
 5216 0c9c 0C       		.uleb128 0xc
 5217 0c9d 4C000000 		.4byte	.LASF147
 5218 0ca1 01       		.byte	0x1
 5219 0ca2 1D       		.byte	0x1d
 5220 0ca3 08       		.byte	0x8
 5221 0ca4 29000000 		.4byte	0x29
 5222 0ca8 03       		.byte	0x3
 5223 0ca9 23       		.byte	0x23
 5224 0caa 8C01     		.uleb128 0x8c
 5225 0cac 00       		.byte	0
 5226 0cad 09       		.uleb128 0x9
 5227 0cae D20A0000 		.4byte	0xad2
 5228 0cb2 BD0C0000 		.4byte	0xcbd
 5229 0cb6 0A       		.uleb128 0xa
 5230 0cb7 6F000000 		.4byte	0x6f
 5231 0cbb 01       		.byte	0x1
 5232 0cbc 00       		.byte	0
 5233 0cbd 0F       		.uleb128 0xf
 5234 0cbe 04       		.byte	0x4
 5235 0cbf 900B0000 		.4byte	0xb90
 5236 0cc3 0D       		.uleb128 0xd
 5237 0cc4 AA060000 		.4byte	.LASF156
 5238 0cc8 08       		.byte	0x8
 5239 0cc9 01       		.byte	0x1
 5240 0cca 20       		.byte	0x20
 5241 0ccb 08       		.byte	0x8
 5242 0ccc EF0C0000 		.4byte	0xcef
 5243 0cd0 0C       		.uleb128 0xc
 5244 0cd1 DC030000 		.4byte	.LASF154
 5245 0cd5 01       		.byte	0x1
 5246 0cd6 22       		.byte	0x22
 5247 0cd7 0F       		.byte	0xf
 5248 0cd8 BD0C0000 		.4byte	0xcbd
 5249 0cdc 02       		.byte	0x2
 5250 0cdd 23       		.byte	0x23
 5251 0cde 00       		.uleb128 0
 5252 0cdf 0C       		.uleb128 0xc
 5253 0ce0 1C000000 		.4byte	.LASF155
 5254 0ce4 01       		.byte	0x1
 5255 0ce5 23       		.byte	0x23
 5256 0ce6 0F       		.byte	0xf
 5257 0ce7 BD0C0000 		.4byte	0xcbd
ARM GAS  /tmp/ccEGVymn.s 			page 109


 5258 0ceb 02       		.byte	0x2
 5259 0cec 23       		.byte	0x23
 5260 0ced 04       		.uleb128 0x4
 5261 0cee 00       		.byte	0
 5262 0cef 09       		.uleb128 0x9
 5263 0cf0 BD0C0000 		.4byte	0xcbd
 5264 0cf4 FF0C0000 		.4byte	0xcff
 5265 0cf8 0A       		.uleb128 0xa
 5266 0cf9 6F000000 		.4byte	0x6f
 5267 0cfd 63       		.byte	0x63
 5268 0cfe 00       		.byte	0
 5269 0cff 24       		.uleb128 0x24
 5270 0d00 A8040000 		.4byte	.LASF157
 5271 0d04 01       		.byte	0x1
 5272 0d05 28       		.byte	0x28
 5273 0d06 0E       		.byte	0xe
 5274 0d07 EF0C0000 		.4byte	0xcef
 5275 0d0b 01       		.byte	0x1
 5276 0d0c 05       		.byte	0x5
 5277 0d0d 03       		.byte	0x3
 5278 0d0e 00000000 		.4byte	g_bodies
 5279 0d12 24       		.uleb128 0x24
 5280 0d13 76050000 		.4byte	.LASF158
 5281 0d17 01       		.byte	0x1
 5282 0d18 29       		.byte	0x29
 5283 0d19 05       		.byte	0x5
 5284 0d1a 68000000 		.4byte	0x68
 5285 0d1e 01       		.byte	0x1
 5286 0d1f 05       		.byte	0x5
 5287 0d20 03       		.byte	0x3
 5288 0d21 00000000 		.4byte	g_numBodies
 5289 0d25 09       		.uleb128 0x9
 5290 0d26 500C0000 		.4byte	0xc50
 5291 0d2a 350D0000 		.4byte	0xd35
 5292 0d2e 0A       		.uleb128 0xa
 5293 0d2f 6F000000 		.4byte	0x6f
 5294 0d33 63       		.byte	0x63
 5295 0d34 00       		.byte	0
 5296 0d35 24       		.uleb128 0x24
 5297 0d36 99030000 		.4byte	.LASF159
 5298 0d3a 01       		.byte	0x1
 5299 0d3b 2B       		.byte	0x2b
 5300 0d3c 10       		.byte	0x10
 5301 0d3d 250D0000 		.4byte	0xd25
 5302 0d41 01       		.byte	0x1
 5303 0d42 05       		.byte	0x5
 5304 0d43 03       		.byte	0x3
 5305 0d44 00000000 		.4byte	g_arbiters
 5306 0d48 09       		.uleb128 0x9
 5307 0d49 C30C0000 		.4byte	0xcc3
 5308 0d4d 580D0000 		.4byte	0xd58
 5309 0d51 0A       		.uleb128 0xa
 5310 0d52 6F000000 		.4byte	0x6f
 5311 0d56 63       		.byte	0x63
 5312 0d57 00       		.byte	0
 5313 0d58 24       		.uleb128 0x24
 5314 0d59 41040000 		.4byte	.LASF160
ARM GAS  /tmp/ccEGVymn.s 			page 110


 5315 0d5d 01       		.byte	0x1
 5316 0d5e 2C       		.byte	0x2c
 5317 0d5f 13       		.byte	0x13
 5318 0d60 480D0000 		.4byte	0xd48
 5319 0d64 01       		.byte	0x1
 5320 0d65 05       		.byte	0x5
 5321 0d66 03       		.byte	0x3
 5322 0d67 00000000 		.4byte	g_arbiterKeys
 5323 0d6b 24       		.uleb128 0x24
 5324 0d6c 22000000 		.4byte	.LASF161
 5325 0d70 01       		.byte	0x1
 5326 0d71 2D       		.byte	0x2d
 5327 0d72 05       		.byte	0x5
 5328 0d73 68000000 		.4byte	0x68
 5329 0d77 01       		.byte	0x1
 5330 0d78 05       		.byte	0x5
 5331 0d79 03       		.byte	0x3
 5332 0d7a 00000000 		.4byte	g_numArbiters
 5333 0d7e 24       		.uleb128 0x24
 5334 0d7f A0040000 		.4byte	.LASF162
 5335 0d83 01       		.byte	0x1
 5336 0d84 2F       		.byte	0x2f
 5337 0d85 0D       		.byte	0xd
 5338 0d86 3C0A0000 		.4byte	0xa3c
 5339 0d8a 01       		.byte	0x1
 5340 0d8b 05       		.byte	0x5
 5341 0d8c 03       		.byte	0x3
 5342 0d8d 00000000 		.4byte	gravity
 5343 0d91 24       		.uleb128 0x24
 5344 0d92 D1060000 		.4byte	.LASF163
 5345 0d96 01       		.byte	0x1
 5346 0d97 30       		.byte	0x30
 5347 0d98 05       		.byte	0x5
 5348 0d99 68000000 		.4byte	0x68
 5349 0d9d 01       		.byte	0x1
 5350 0d9e 05       		.byte	0x5
 5351 0d9f 03       		.byte	0x3
 5352 0da0 00000000 		.4byte	iterations
 5353 0da4 24       		.uleb128 0x24
 5354 0da5 C1030000 		.4byte	.LASF164
 5355 0da9 01       		.byte	0x1
 5356 0daa 31       		.byte	0x31
 5357 0dab 05       		.byte	0x5
 5358 0dac 68000000 		.4byte	0x68
 5359 0db0 01       		.byte	0x1
 5360 0db1 05       		.byte	0x5
 5361 0db2 03       		.byte	0x3
 5362 0db3 00000000 		.4byte	accumulateImpulses
 5363 0db7 24       		.uleb128 0x24
 5364 0db8 BB000000 		.4byte	.LASF165
 5365 0dbc 01       		.byte	0x1
 5366 0dbd 32       		.byte	0x32
 5367 0dbe 05       		.byte	0x5
 5368 0dbf 68000000 		.4byte	0x68
 5369 0dc3 01       		.byte	0x1
 5370 0dc4 05       		.byte	0x5
 5371 0dc5 03       		.byte	0x3
ARM GAS  /tmp/ccEGVymn.s 			page 111


 5372 0dc6 00000000 		.4byte	warmStarting
 5373 0dca 24       		.uleb128 0x24
 5374 0dcb EB020000 		.4byte	.LASF166
 5375 0dcf 01       		.byte	0x1
 5376 0dd0 33       		.byte	0x33
 5377 0dd1 05       		.byte	0x5
 5378 0dd2 68000000 		.4byte	0x68
 5379 0dd6 01       		.byte	0x1
 5380 0dd7 05       		.byte	0x5
 5381 0dd8 03       		.byte	0x3
 5382 0dd9 00000000 		.4byte	positionCorrection
 5383 0ddd 25       		.uleb128 0x25
 5384 0dde 01       		.byte	0x1
 5385 0ddf 6A030000 		.4byte	.LASF207
 5386 0de3 01       		.byte	0x1
 5387 0de4 9C01     		.2byte	0x19c
 5388 0de6 0E       		.byte	0xe
 5389 0de7 01       		.byte	0x1
 5390 0de8 BD0C0000 		.4byte	0xcbd
 5391 0dec 00000000 		.4byte	.LFB14
 5392 0df0 0C000000 		.4byte	.LFE14
 5393 0df4 02       		.byte	0x2
 5394 0df5 7D       		.byte	0x7d
 5395 0df6 00       		.sleb128 0
 5396 0df7 01       		.byte	0x1
 5397 0df8 100E0000 		.4byte	0xe10
 5398 0dfc 26       		.uleb128 0x26
 5399 0dfd 6900     		.ascii	"i\000"
 5400 0dff 01       		.byte	0x1
 5401 0e00 9C01     		.2byte	0x19c
 5402 0e02 1A       		.byte	0x1a
 5403 0e03 68000000 		.4byte	0x68
 5404 0e07 04000000 		.4byte	.LLST70
 5405 0e0b 00000000 		.4byte	.LVUS70
 5406 0e0f 00       		.byte	0
 5407 0e10 27       		.uleb128 0x27
 5408 0e11 01       		.byte	0x1
 5409 0e12 7B000000 		.4byte	.LASF167
 5410 0e16 01       		.byte	0x1
 5411 0e17 9601     		.2byte	0x196
 5412 0e19 06       		.byte	0x6
 5413 0e1a 01       		.byte	0x1
 5414 0e1b 00000000 		.4byte	.LFB13
 5415 0e1f 20000000 		.4byte	.LFE13
 5416 0e23 25000000 		.4byte	.LLST69
 5417 0e27 01       		.byte	0x1
 5418 0e28 3A0E0000 		.4byte	0xe3a
 5419 0e2c 28       		.uleb128 0x28
 5420 0e2d 6200     		.ascii	"b\000"
 5421 0e2f 01       		.byte	0x1
 5422 0e30 9601     		.2byte	0x196
 5423 0e32 1B       		.byte	0x1b
 5424 0e33 BD0C0000 		.4byte	0xcbd
 5425 0e37 01       		.byte	0x1
 5426 0e38 50       		.byte	0x50
 5427 0e39 00       		.byte	0
 5428 0e3a 27       		.uleb128 0x27
ARM GAS  /tmp/ccEGVymn.s 			page 112


 5429 0e3b 01       		.byte	0x1
 5430 0e3c 10050000 		.4byte	.LASF168
 5431 0e40 01       		.byte	0x1
 5432 0e41 7701     		.2byte	0x177
 5433 0e43 06       		.byte	0x6
 5434 0e44 01       		.byte	0x1
 5435 0e45 00000000 		.4byte	.LFB12
 5436 0e49 9C000000 		.4byte	.LFE12
 5437 0e4d 51000000 		.4byte	.LLST66
 5438 0e51 01       		.byte	0x1
 5439 0e52 8B0E0000 		.4byte	0xe8b
 5440 0e56 26       		.uleb128 0x26
 5441 0e57 6200     		.ascii	"b\000"
 5442 0e59 01       		.byte	0x1
 5443 0e5a 7701     		.2byte	0x177
 5444 0e5c 1C       		.byte	0x1c
 5445 0e5d BD0C0000 		.4byte	0xcbd
 5446 0e61 BD000000 		.4byte	.LLST67
 5447 0e65 B9000000 		.4byte	.LVUS67
 5448 0e69 28       		.uleb128 0x28
 5449 0e6a 7700     		.ascii	"w\000"
 5450 0e6c 01       		.byte	0x1
 5451 0e6d 7701     		.2byte	0x177
 5452 0e6f 2B       		.byte	0x2b
 5453 0e70 3C0A0000 		.4byte	0xa3c
 5454 0e74 02       		.byte	0x2
 5455 0e75 91       		.byte	0x91
 5456 0e76 70       		.sleb128 -16
 5457 0e77 26       		.uleb128 0x26
 5458 0e78 6D00     		.ascii	"m\000"
 5459 0e7a 01       		.byte	0x1
 5460 0e7b 7701     		.2byte	0x177
 5461 0e7d 34       		.byte	0x34
 5462 0e7e 29000000 		.4byte	0x29
 5463 0e82 E1000000 		.4byte	.LLST68
 5464 0e86 DB000000 		.4byte	.LVUS68
 5465 0e8a 00       		.byte	0
 5466 0e8b 27       		.uleb128 0x27
 5467 0e8c 01       		.byte	0x1
 5468 0e8d 71010000 		.4byte	.LASF169
 5469 0e91 01       		.byte	0x1
 5470 0e92 4801     		.2byte	0x148
 5471 0e94 06       		.byte	0x6
 5472 0e95 01       		.byte	0x1
 5473 0e96 00000000 		.4byte	.LFB11
 5474 0e9a 8C010000 		.4byte	.LFE11
 5475 0e9e 0D010000 		.4byte	.LLST56
 5476 0ea2 01       		.byte	0x1
 5477 0ea3 30100000 		.4byte	0x1030
 5478 0ea7 26       		.uleb128 0x26
 5479 0ea8 647400   		.ascii	"dt\000"
 5480 0eab 01       		.byte	0x1
 5481 0eac 4801     		.2byte	0x148
 5482 0eae 11       		.byte	0x11
 5483 0eaf 29000000 		.4byte	0x29
 5484 0eb3 73010000 		.4byte	.LLST57
 5485 0eb7 6B010000 		.4byte	.LVUS57
ARM GAS  /tmp/ccEGVymn.s 			page 113


 5486 0ebb 29       		.uleb128 0x29
 5487 0ebc 07010000 		.4byte	.LASF170
 5488 0ec0 01       		.byte	0x1
 5489 0ec1 4A01     		.2byte	0x14a
 5490 0ec3 08       		.byte	0x8
 5491 0ec4 29000000 		.4byte	0x29
 5492 0ec8 B1010000 		.4byte	.LLST58
 5493 0ecc AF010000 		.4byte	.LVUS58
 5494 0ed0 2A       		.uleb128 0x2a
 5495 0ed1 D0020000 		.4byte	.Ldebug_ranges0+0x2d0
 5496 0ed5 3E0F0000 		.4byte	0xf3e
 5497 0ed9 2B       		.uleb128 0x2b
 5498 0eda 6900     		.ascii	"i\000"
 5499 0edc 01       		.byte	0x1
 5500 0edd 5001     		.2byte	0x150
 5501 0edf 0B       		.byte	0xb
 5502 0ee0 68000000 		.4byte	0x68
 5503 0ee4 CD010000 		.4byte	.LLST59
 5504 0ee8 C5010000 		.4byte	.LVUS59
 5505 0eec 2C       		.uleb128 0x2c
 5506 0eed E8020000 		.4byte	.Ldebug_ranges0+0x2e8
 5507 0ef1 2B       		.uleb128 0x2b
 5508 0ef2 6200     		.ascii	"b\000"
 5509 0ef4 01       		.byte	0x1
 5510 0ef5 5201     		.2byte	0x152
 5511 0ef7 10       		.byte	0x10
 5512 0ef8 BD0C0000 		.4byte	0xcbd
 5513 0efc 06020000 		.4byte	.LLST60
 5514 0f00 04020000 		.4byte	.LVUS60
 5515 0f04 2D       		.uleb128 0x2d
 5516 0f05 56000000 		.4byte	.LVL181
 5517 0f09 8B1A0000 		.4byte	0x1a8b
 5518 0f0d 2D       		.uleb128 0x2d
 5519 0f0e 72000000 		.4byte	.LVL182
 5520 0f12 991A0000 		.4byte	0x1a99
 5521 0f16 2E       		.uleb128 0x2e
 5522 0f17 8E000000 		.4byte	.LVL183
 5523 0f1b 8B1A0000 		.4byte	0x1a8b
 5524 0f1f 2C0F0000 		.4byte	0xf2c
 5525 0f23 2F       		.uleb128 0x2f
 5526 0f24 02       		.byte	0x2
 5527 0f25 90       		.byte	0x90
 5528 0f26 40       		.uleb128 0x40
 5529 0f27 03       		.byte	0x3
 5530 0f28 F5       		.byte	0xf5
 5531 0f29 50       		.uleb128 0x50
 5532 0f2a 29       		.uleb128 0x29
 5533 0f2b 00       		.byte	0
 5534 0f2c 30       		.uleb128 0x30
 5535 0f2d 9E000000 		.4byte	.LVL184
 5536 0f31 A71A0000 		.4byte	0x1aa7
 5537 0f35 2F       		.uleb128 0x2f
 5538 0f36 01       		.byte	0x1
 5539 0f37 50       		.byte	0x50
 5540 0f38 02       		.byte	0x2
 5541 0f39 74       		.byte	0x74
 5542 0f3a 0C       		.sleb128 12
ARM GAS  /tmp/ccEGVymn.s 			page 114


 5543 0f3b 00       		.byte	0
 5544 0f3c 00       		.byte	0
 5545 0f3d 00       		.byte	0
 5546 0f3e 31       		.uleb128 0x31
 5547 0f3f BC000000 		.4byte	.LBB117
 5548 0f43 DC000000 		.4byte	.LBE117
 5549 0f47 770F0000 		.4byte	0xf77
 5550 0f4b 2B       		.uleb128 0x2b
 5551 0f4c 6900     		.ascii	"i\000"
 5552 0f4e 01       		.byte	0x1
 5553 0f4f 5D01     		.2byte	0x15d
 5554 0f51 0B       		.byte	0xb
 5555 0f52 68000000 		.4byte	0x68
 5556 0f56 1D020000 		.4byte	.LLST61
 5557 0f5a 19020000 		.4byte	.LVUS61
 5558 0f5e 30       		.uleb128 0x30
 5559 0f5f D2000000 		.4byte	.LVL188
 5560 0f63 54130000 		.4byte	0x1354
 5561 0f67 2F       		.uleb128 0x2f
 5562 0f68 01       		.byte	0x1
 5563 0f69 50       		.byte	0x50
 5564 0f6a 02       		.byte	0x2
 5565 0f6b 75       		.byte	0x75
 5566 0f6c 00       		.sleb128 0
 5567 0f6d 2F       		.uleb128 0x2f
 5568 0f6e 02       		.byte	0x2
 5569 0f6f 90       		.byte	0x90
 5570 0f70 40       		.uleb128 0x40
 5571 0f71 03       		.byte	0x3
 5572 0f72 F5       		.byte	0xf5
 5573 0f73 51       		.uleb128 0x51
 5574 0f74 29       		.uleb128 0x29
 5575 0f75 00       		.byte	0
 5576 0f76 00       		.byte	0
 5577 0f77 31       		.uleb128 0x31
 5578 0f78 DC000000 		.4byte	.LBB118
 5579 0f7c 12010000 		.4byte	.LBE118
 5580 0f80 C60F0000 		.4byte	0xfc6
 5581 0f84 2B       		.uleb128 0x2b
 5582 0f85 697400   		.ascii	"it\000"
 5583 0f88 01       		.byte	0x1
 5584 0f89 6301     		.2byte	0x163
 5585 0f8b 0B       		.byte	0xb
 5586 0f8c 68000000 		.4byte	0x68
 5587 0f90 40020000 		.4byte	.LLST62
 5588 0f94 3C020000 		.4byte	.LVUS62
 5589 0f98 32       		.uleb128 0x32
 5590 0f99 EC000000 		.4byte	.LBB119
 5591 0f9d 06010000 		.4byte	.LBE119
 5592 0fa1 2B       		.uleb128 0x2b
 5593 0fa2 6900     		.ascii	"i\000"
 5594 0fa4 01       		.byte	0x1
 5595 0fa5 6501     		.2byte	0x165
 5596 0fa7 0C       		.byte	0xc
 5597 0fa8 68000000 		.4byte	0x68
 5598 0fac 67020000 		.4byte	.LLST63
 5599 0fb0 5F020000 		.4byte	.LVUS63
ARM GAS  /tmp/ccEGVymn.s 			page 115


 5600 0fb4 30       		.uleb128 0x30
 5601 0fb5 FE000000 		.4byte	.LVL194
 5602 0fb9 30100000 		.4byte	0x1030
 5603 0fbd 2F       		.uleb128 0x2f
 5604 0fbe 01       		.byte	0x1
 5605 0fbf 50       		.byte	0x50
 5606 0fc0 02       		.byte	0x2
 5607 0fc1 75       		.byte	0x75
 5608 0fc2 00       		.sleb128 0
 5609 0fc3 00       		.byte	0
 5610 0fc4 00       		.byte	0
 5611 0fc5 00       		.byte	0
 5612 0fc6 31       		.uleb128 0x31
 5613 0fc7 12010000 		.4byte	.LBB120
 5614 0fcb 60010000 		.4byte	.LBE120
 5615 0fcf 26100000 		.4byte	0x1026
 5616 0fd3 2B       		.uleb128 0x2b
 5617 0fd4 6900     		.ascii	"i\000"
 5618 0fd6 01       		.byte	0x1
 5619 0fd7 6A01     		.2byte	0x16a
 5620 0fd9 0B       		.byte	0xb
 5621 0fda 68000000 		.4byte	0x68
 5622 0fde A6020000 		.4byte	.LLST64
 5623 0fe2 9E020000 		.4byte	.LVUS64
 5624 0fe6 2C       		.uleb128 0x2c
 5625 0fe7 00030000 		.4byte	.Ldebug_ranges0+0x300
 5626 0feb 2B       		.uleb128 0x2b
 5627 0fec 6200     		.ascii	"b\000"
 5628 0fee 01       		.byte	0x1
 5629 0fef 6C01     		.2byte	0x16c
 5630 0ff1 10       		.byte	0x10
 5631 0ff2 BD0C0000 		.4byte	0xcbd
 5632 0ff6 DF020000 		.4byte	.LLST65
 5633 0ffa DD020000 		.4byte	.LVUS65
 5634 0ffe 2E       		.uleb128 0x2e
 5635 0fff 36010000 		.4byte	.LVL201
 5636 1003 8B1A0000 		.4byte	0x1a8b
 5637 1007 14100000 		.4byte	0x1014
 5638 100b 2F       		.uleb128 0x2f
 5639 100c 02       		.byte	0x2
 5640 100d 90       		.byte	0x90
 5641 100e 40       		.uleb128 0x40
 5642 100f 03       		.byte	0x3
 5643 1010 F5       		.byte	0xf5
 5644 1011 50       		.uleb128 0x50
 5645 1012 29       		.uleb128 0x29
 5646 1013 00       		.byte	0
 5647 1014 30       		.uleb128 0x30
 5648 1015 44010000 		.4byte	.LVL202
 5649 1019 A71A0000 		.4byte	0x1aa7
 5650 101d 2F       		.uleb128 0x2f
 5651 101e 01       		.byte	0x1
 5652 101f 50       		.byte	0x50
 5653 1020 02       		.byte	0x2
 5654 1021 74       		.byte	0x74
 5655 1022 00       		.sleb128 0
 5656 1023 00       		.byte	0
ARM GAS  /tmp/ccEGVymn.s 			page 116


 5657 1024 00       		.byte	0
 5658 1025 00       		.byte	0
 5659 1026 2D       		.uleb128 0x2d
 5660 1027 28000000 		.4byte	.LVL177
 5661 102b 92150000 		.4byte	0x1592
 5662 102f 00       		.byte	0
 5663 1030 33       		.uleb128 0x33
 5664 1031 01       		.byte	0x1
 5665 1032 5F050000 		.4byte	.LASF174
 5666 1036 01       		.byte	0x1
 5667 1037 FC       		.byte	0xfc
 5668 1038 06       		.byte	0x6
 5669 1039 01       		.byte	0x1
 5670 103a 00000000 		.4byte	.LFB10
 5671 103e A4030000 		.4byte	.LFE10
 5672 1042 F2020000 		.4byte	.LLST42
 5673 1046 01       		.byte	0x1
 5674 1047 48130000 		.4byte	0x1348
 5675 104b 34       		.uleb128 0x34
 5676 104c 6100     		.ascii	"a\000"
 5677 104e 01       		.byte	0x1
 5678 104f FC       		.byte	0xfc
 5679 1050 23       		.byte	0x23
 5680 1051 48130000 		.4byte	0x1348
 5681 1055 49030000 		.4byte	.LLST43
 5682 1059 43030000 		.4byte	.LVUS43
 5683 105d 35       		.uleb128 0x35
 5684 105e 623100   		.ascii	"b1\000"
 5685 1061 01       		.byte	0x1
 5686 1062 FE       		.byte	0xfe
 5687 1063 0F       		.byte	0xf
 5688 1064 BD0C0000 		.4byte	0xcbd
 5689 1068 77030000 		.4byte	.LLST44
 5690 106c 75030000 		.4byte	.LVUS44
 5691 1070 35       		.uleb128 0x35
 5692 1071 623200   		.ascii	"b2\000"
 5693 1074 01       		.byte	0x1
 5694 1075 FF       		.byte	0xff
 5695 1076 0F       		.byte	0xf
 5696 1077 BD0C0000 		.4byte	0xcbd
 5697 107b 8C030000 		.4byte	.LLST45
 5698 107f 8A030000 		.4byte	.LVUS45
 5699 1083 2C       		.uleb128 0x2c
 5700 1084 70020000 		.4byte	.Ldebug_ranges0+0x270
 5701 1088 2B       		.uleb128 0x2b
 5702 1089 6900     		.ascii	"i\000"
 5703 108b 01       		.byte	0x1
 5704 108c 0101     		.2byte	0x101
 5705 108e 0B       		.byte	0xb
 5706 108f 68000000 		.4byte	0x68
 5707 1093 A7030000 		.4byte	.LLST46
 5708 1097 9F030000 		.4byte	.LVUS46
 5709 109b 2C       		.uleb128 0x2c
 5710 109c 88020000 		.4byte	.Ldebug_ranges0+0x288
 5711 10a0 2B       		.uleb128 0x2b
 5712 10a1 6300     		.ascii	"c\000"
 5713 10a3 01       		.byte	0x1
ARM GAS  /tmp/ccEGVymn.s 			page 117


 5714 10a4 0301     		.2byte	0x103
 5715 10a6 13       		.byte	0x13
 5716 10a7 4E130000 		.4byte	0x134e
 5717 10ab E4030000 		.4byte	.LLST47
 5718 10af DE030000 		.4byte	.LVUS47
 5719 10b3 36       		.uleb128 0x36
 5720 10b4 647600   		.ascii	"dv\000"
 5721 10b7 01       		.byte	0x1
 5722 10b8 0801     		.2byte	0x108
 5723 10ba 0F       		.byte	0xf
 5724 10bb 3C0A0000 		.4byte	0xa3c
 5725 10bf 03       		.byte	0x3
 5726 10c0 91       		.byte	0x91
 5727 10c1 C87E     		.sleb128 -184
 5728 10c3 2B       		.uleb128 0x2b
 5729 10c4 766E00   		.ascii	"vn\000"
 5730 10c7 01       		.byte	0x1
 5731 10c8 0C01     		.2byte	0x10c
 5732 10ca 09       		.byte	0x9
 5733 10cb 29000000 		.4byte	0x29
 5734 10cf 11040000 		.4byte	.LLST48
 5735 10d3 0F040000 		.4byte	.LVUS48
 5736 10d7 2B       		.uleb128 0x2b
 5737 10d8 64506E00 		.ascii	"dPn\000"
 5738 10dc 01       		.byte	0x1
 5739 10dd 0E01     		.2byte	0x10e
 5740 10df 09       		.byte	0x9
 5741 10e0 29000000 		.4byte	0x29
 5742 10e4 2F040000 		.4byte	.LLST49
 5743 10e8 25040000 		.4byte	.LVUS49
 5744 10ec 36       		.uleb128 0x36
 5745 10ed 506E00   		.ascii	"Pn\000"
 5746 10f0 01       		.byte	0x1
 5747 10f1 1D01     		.2byte	0x11d
 5748 10f3 0F       		.byte	0xf
 5749 10f4 3C0A0000 		.4byte	0xa3c
 5750 10f8 03       		.byte	0x3
 5751 10f9 91       		.byte	0x91
 5752 10fa D07E     		.sleb128 -176
 5753 10fc 37       		.uleb128 0x37
 5754 10fd 5C020000 		.4byte	.LASF175
 5755 1101 01       		.byte	0x1
 5756 1102 2901     		.2byte	0x129
 5757 1104 0F       		.byte	0xf
 5758 1105 3C0A0000 		.4byte	0xa3c
 5759 1109 03       		.byte	0x3
 5760 110a 91       		.byte	0x91
 5761 110b D87E     		.sleb128 -168
 5762 110d 2B       		.uleb128 0x2b
 5763 110e 767400   		.ascii	"vt\000"
 5764 1111 01       		.byte	0x1
 5765 1112 2A01     		.2byte	0x12a
 5766 1114 09       		.byte	0x9
 5767 1115 29000000 		.4byte	0x29
 5768 1119 75040000 		.4byte	.LLST50
 5769 111d 73040000 		.4byte	.LVUS50
 5770 1121 2B       		.uleb128 0x2b
ARM GAS  /tmp/ccEGVymn.s 			page 118


 5771 1122 64507400 		.ascii	"dPt\000"
 5772 1126 01       		.byte	0x1
 5773 1127 2B01     		.2byte	0x12b
 5774 1129 09       		.byte	0x9
 5775 112a 29000000 		.4byte	0x29
 5776 112e 91040000 		.4byte	.LLST51
 5777 1132 89040000 		.4byte	.LVUS51
 5778 1136 36       		.uleb128 0x36
 5779 1137 507400   		.ascii	"Pt\000"
 5780 113a 01       		.byte	0x1
 5781 113b 3E01     		.2byte	0x13e
 5782 113d 0F       		.byte	0xf
 5783 113e 3C0A0000 		.4byte	0xa3c
 5784 1142 03       		.byte	0x3
 5785 1143 91       		.byte	0x91
 5786 1144 E07E     		.sleb128 -160
 5787 1146 31       		.uleb128 0x31
 5788 1147 30000000 		.4byte	.LBB104
 5789 114b 48000000 		.4byte	.LBE104
 5790 114f 7B110000 		.4byte	0x117b
 5791 1153 2B       		.uleb128 0x2b
 5792 1154 506E3000 		.ascii	"Pn0\000"
 5793 1158 01       		.byte	0x1
 5794 1159 1301     		.2byte	0x113
 5795 115b 0A       		.byte	0xa
 5796 115c 29000000 		.4byte	0x29
 5797 1160 CB040000 		.4byte	.LLST52
 5798 1164 C9040000 		.4byte	.LVUS52
 5799 1168 30       		.uleb128 0x30
 5800 1169 40000000 		.4byte	.LVL124
 5801 116d B51A0000 		.4byte	0x1ab5
 5802 1171 2F       		.uleb128 0x2f
 5803 1172 02       		.byte	0x2
 5804 1173 90       		.byte	0x90
 5805 1174 41       		.uleb128 0x41
 5806 1175 03       		.byte	0x3
 5807 1176 F5       		.byte	0xf5
 5808 1177 51       		.uleb128 0x51
 5809 1178 29       		.uleb128 0x29
 5810 1179 00       		.byte	0
 5811 117a 00       		.byte	0
 5812 117b 2A       		.uleb128 0x2a
 5813 117c B8020000 		.4byte	.Ldebug_ranges0+0x2b8
 5814 1180 B8110000 		.4byte	0x11b8
 5815 1184 29       		.uleb128 0x29
 5816 1185 F3060000 		.4byte	.LASF176
 5817 1189 01       		.byte	0x1
 5818 118a 3001     		.2byte	0x130
 5819 118c 0A       		.byte	0xa
 5820 118d 29000000 		.4byte	0x29
 5821 1191 E1040000 		.4byte	.LLST53
 5822 1195 DF040000 		.4byte	.LVUS53
 5823 1199 29       		.uleb128 0x29
 5824 119a 2E060000 		.4byte	.LASF177
 5825 119e 01       		.byte	0x1
 5826 119f 3301     		.2byte	0x133
 5827 11a1 0A       		.byte	0xa
ARM GAS  /tmp/ccEGVymn.s 			page 119


 5828 11a2 29000000 		.4byte	0x29
 5829 11a6 F7040000 		.4byte	.LLST54
 5830 11aa F5040000 		.4byte	.LVUS54
 5831 11ae 2D       		.uleb128 0x2d
 5832 11af D6010000 		.4byte	.LVL145
 5833 11b3 C31A0000 		.4byte	0x1ac3
 5834 11b7 00       		.byte	0
 5835 11b8 31       		.uleb128 0x31
 5836 11b9 84030000 		.4byte	.LBB107
 5837 11bd 92030000 		.4byte	.LBE107
 5838 11c1 E4110000 		.4byte	0x11e4
 5839 11c5 29       		.uleb128 0x29
 5840 11c6 F3060000 		.4byte	.LASF176
 5841 11ca 01       		.byte	0x1
 5842 11cb 3901     		.2byte	0x139
 5843 11cd 0A       		.byte	0xa
 5844 11ce 29000000 		.4byte	0x29
 5845 11d2 0D050000 		.4byte	.LLST55
 5846 11d6 0B050000 		.4byte	.LVUS55
 5847 11da 2D       		.uleb128 0x2d
 5848 11db 90030000 		.4byte	.LVL172
 5849 11df C31A0000 		.4byte	0x1ac3
 5850 11e3 00       		.byte	0
 5851 11e4 2E       		.uleb128 0x2e
 5852 11e5 58000000 		.4byte	.LVL127
 5853 11e9 8B1A0000 		.4byte	0x1a8b
 5854 11ed FA110000 		.4byte	0x11fa
 5855 11f1 2F       		.uleb128 0x2f
 5856 11f2 02       		.byte	0x2
 5857 11f3 90       		.byte	0x90
 5858 11f4 40       		.uleb128 0x40
 5859 11f5 03       		.byte	0x3
 5860 11f6 F5       		.byte	0xf5
 5861 11f7 50       		.uleb128 0x50
 5862 11f8 29       		.uleb128 0x29
 5863 11f9 00       		.byte	0
 5864 11fa 2D       		.uleb128 0x2d
 5865 11fb 74000000 		.4byte	.LVL128
 5866 11ff 8B1A0000 		.4byte	0x1a8b
 5867 1203 2E       		.uleb128 0x2e
 5868 1204 82000000 		.4byte	.LVL129
 5869 1208 D11A0000 		.4byte	0x1ad1
 5870 120c 17120000 		.4byte	0x1217
 5871 1210 2F       		.uleb128 0x2f
 5872 1211 01       		.byte	0x1
 5873 1212 50       		.byte	0x50
 5874 1213 02       		.byte	0x2
 5875 1214 7B       		.byte	0x7b
 5876 1215 00       		.sleb128 0
 5877 1216 00       		.byte	0
 5878 1217 2D       		.uleb128 0x2d
 5879 1218 9A000000 		.4byte	.LVL130
 5880 121c DF1A0000 		.4byte	0x1adf
 5881 1220 2D       		.uleb128 0x2d
 5882 1221 B6000000 		.4byte	.LVL131
 5883 1225 8B1A0000 		.4byte	0x1a8b
 5884 1229 2E       		.uleb128 0x2e
ARM GAS  /tmp/ccEGVymn.s 			page 120


 5885 122a C4000000 		.4byte	.LVL132
 5886 122e A71A0000 		.4byte	0x1aa7
 5887 1232 3D120000 		.4byte	0x123d
 5888 1236 2F       		.uleb128 0x2f
 5889 1237 01       		.byte	0x1
 5890 1238 50       		.byte	0x50
 5891 1239 02       		.byte	0x2
 5892 123a 7A       		.byte	0x7a
 5893 123b 00       		.sleb128 0
 5894 123c 00       		.byte	0
 5895 123d 2D       		.uleb128 0x2d
 5896 123e DC000000 		.4byte	.LVL133
 5897 1242 DF1A0000 		.4byte	0x1adf
 5898 1246 2D       		.uleb128 0x2d
 5899 1247 F8000000 		.4byte	.LVL134
 5900 124b ED1A0000 		.4byte	0x1aed
 5901 124f 2D       		.uleb128 0x2d
 5902 1250 14010000 		.4byte	.LVL135
 5903 1254 991A0000 		.4byte	0x1a99
 5904 1258 2D       		.uleb128 0x2d
 5905 1259 34010000 		.4byte	.LVL136
 5906 125d ED1A0000 		.4byte	0x1aed
 5907 1261 2D       		.uleb128 0x2d
 5908 1262 50010000 		.4byte	.LVL137
 5909 1266 991A0000 		.4byte	0x1a99
 5910 126a 2D       		.uleb128 0x2d
 5911 126b 6C010000 		.4byte	.LVL138
 5912 126f FB1A0000 		.4byte	0x1afb
 5913 1273 2E       		.uleb128 0x2e
 5914 1274 8C010000 		.4byte	.LVL139
 5915 1278 091B0000 		.4byte	0x1b09
 5916 127c 8D120000 		.4byte	0x128d
 5917 1280 2F       		.uleb128 0x2f
 5918 1281 02       		.byte	0x2
 5919 1282 90       		.byte	0x90
 5920 1283 42       		.uleb128 0x42
 5921 1284 07       		.byte	0x7
 5922 1285 F4       		.byte	0xf4
 5923 1286 29       		.uleb128 0x29
 5924 1287 04       		.byte	0x4
 5925 1288 0000803F 		.4byte	0x3f800000
 5926 128c 00       		.byte	0
 5927 128d 2D       		.uleb128 0x2d
 5928 128e A8010000 		.4byte	.LVL140
 5929 1292 171B0000 		.4byte	0x1b17
 5930 1296 2D       		.uleb128 0x2d
 5931 1297 EE010000 		.4byte	.LVL149
 5932 129b 8B1A0000 		.4byte	0x1a8b
 5933 129f 2D       		.uleb128 0x2d
 5934 12a0 0A020000 		.4byte	.LVL150
 5935 12a4 8B1A0000 		.4byte	0x1a8b
 5936 12a8 2E       		.uleb128 0x2e
 5937 12a9 18020000 		.4byte	.LVL151
 5938 12ad D11A0000 		.4byte	0x1ad1
 5939 12b1 BC120000 		.4byte	0x12bc
 5940 12b5 2F       		.uleb128 0x2f
 5941 12b6 01       		.byte	0x1
ARM GAS  /tmp/ccEGVymn.s 			page 121


 5942 12b7 50       		.byte	0x50
 5943 12b8 02       		.byte	0x2
 5944 12b9 7B       		.byte	0x7b
 5945 12ba 00       		.sleb128 0
 5946 12bb 00       		.byte	0
 5947 12bc 2D       		.uleb128 0x2d
 5948 12bd 30020000 		.4byte	.LVL152
 5949 12c1 DF1A0000 		.4byte	0x1adf
 5950 12c5 2D       		.uleb128 0x2d
 5951 12c6 4C020000 		.4byte	.LVL153
 5952 12ca 8B1A0000 		.4byte	0x1a8b
 5953 12ce 2E       		.uleb128 0x2e
 5954 12cf 5A020000 		.4byte	.LVL154
 5955 12d3 A71A0000 		.4byte	0x1aa7
 5956 12d7 E2120000 		.4byte	0x12e2
 5957 12db 2F       		.uleb128 0x2f
 5958 12dc 01       		.byte	0x1
 5959 12dd 50       		.byte	0x50
 5960 12de 02       		.byte	0x2
 5961 12df 7A       		.byte	0x7a
 5962 12e0 00       		.sleb128 0
 5963 12e1 00       		.byte	0
 5964 12e2 2D       		.uleb128 0x2d
 5965 12e3 72020000 		.4byte	.LVL155
 5966 12e7 DF1A0000 		.4byte	0x1adf
 5967 12eb 2D       		.uleb128 0x2d
 5968 12ec 9C020000 		.4byte	.LVL158
 5969 12f0 FB1A0000 		.4byte	0x1afb
 5970 12f4 2D       		.uleb128 0x2d
 5971 12f5 B8020000 		.4byte	.LVL159
 5972 12f9 FB1A0000 		.4byte	0x1afb
 5973 12fd 2D       		.uleb128 0x2d
 5974 12fe D4020000 		.4byte	.LVL160
 5975 1302 ED1A0000 		.4byte	0x1aed
 5976 1306 2D       		.uleb128 0x2d
 5977 1307 F0020000 		.4byte	.LVL161
 5978 130b 991A0000 		.4byte	0x1a99
 5979 130f 2D       		.uleb128 0x2d
 5980 1310 10030000 		.4byte	.LVL162
 5981 1314 ED1A0000 		.4byte	0x1aed
 5982 1318 2D       		.uleb128 0x2d
 5983 1319 2C030000 		.4byte	.LVL163
 5984 131d 991A0000 		.4byte	0x1a99
 5985 1321 2D       		.uleb128 0x2d
 5986 1322 48030000 		.4byte	.LVL164
 5987 1326 FB1A0000 		.4byte	0x1afb
 5988 132a 2D       		.uleb128 0x2d
 5989 132b 5C030000 		.4byte	.LVL165
 5990 132f 171B0000 		.4byte	0x1b17
 5991 1333 30       		.uleb128 0x30
 5992 1334 7E030000 		.4byte	.LVL168
 5993 1338 B51A0000 		.4byte	0x1ab5
 5994 133c 2F       		.uleb128 0x2f
 5995 133d 02       		.byte	0x2
 5996 133e 90       		.byte	0x90
 5997 133f 41       		.uleb128 0x41
 5998 1340 03       		.byte	0x3
ARM GAS  /tmp/ccEGVymn.s 			page 122


 5999 1341 F5       		.byte	0xf5
 6000 1342 51       		.uleb128 0x51
 6001 1343 29       		.uleb128 0x29
 6002 1344 00       		.byte	0
 6003 1345 00       		.byte	0
 6004 1346 00       		.byte	0
 6005 1347 00       		.byte	0
 6006 1348 0F       		.uleb128 0xf
 6007 1349 04       		.byte	0x4
 6008 134a 500C0000 		.4byte	0xc50
 6009 134e 0F       		.uleb128 0xf
 6010 134f 04       		.byte	0x4
 6011 1350 D20A0000 		.4byte	0xad2
 6012 1354 33       		.uleb128 0x33
 6013 1355 01       		.byte	0x1
 6014 1356 24040000 		.4byte	.LASF178
 6015 135a 01       		.byte	0x1
 6016 135b D2       		.byte	0xd2
 6017 135c 06       		.byte	0x6
 6018 135d 01       		.byte	0x1
 6019 135e 00000000 		.4byte	.LFB9
 6020 1362 28030000 		.4byte	.LFE9
 6021 1366 21050000 		.4byte	.LLST30
 6022 136a 01       		.byte	0x1
 6023 136b 92150000 		.4byte	0x1592
 6024 136f 34       		.uleb128 0x34
 6025 1370 6100     		.ascii	"a\000"
 6026 1372 01       		.byte	0x1
 6027 1373 D2       		.byte	0xd2
 6028 1374 1E       		.byte	0x1e
 6029 1375 48130000 		.4byte	0x1348
 6030 1379 7A050000 		.4byte	.LLST31
 6031 137d 74050000 		.4byte	.LVUS31
 6032 1381 38       		.uleb128 0x38
 6033 1382 07010000 		.4byte	.LASF170
 6034 1386 01       		.byte	0x1
 6035 1387 D2       		.byte	0xd2
 6036 1388 27       		.byte	0x27
 6037 1389 29000000 		.4byte	0x29
 6038 138d AA050000 		.4byte	.LLST32
 6039 1391 A6050000 		.4byte	.LVUS32
 6040 1395 39       		.uleb128 0x39
 6041 1396 82050000 		.4byte	.LASF179
 6042 139a 01       		.byte	0x1
 6043 139b D4       		.byte	0xd4
 6044 139c 0E       		.byte	0xe
 6045 139d F3090000 		.4byte	0x9f3
 6046 13a1 04       		.byte	0x4
 6047 13a2 0AD7233C 		.4byte	0x3c23d70a
 6048 13a6 3A       		.uleb128 0x3a
 6049 13a7 AE000000 		.4byte	.LASF180
 6050 13ab 01       		.byte	0x1
 6051 13ac D5       		.byte	0xd5
 6052 13ad 08       		.byte	0x8
 6053 13ae 29000000 		.4byte	0x29
 6054 13b2 D2050000 		.4byte	.LLST33
 6055 13b6 CE050000 		.4byte	.LVUS33
ARM GAS  /tmp/ccEGVymn.s 			page 123


 6056 13ba 2C       		.uleb128 0x2c
 6057 13bb 18020000 		.4byte	.Ldebug_ranges0+0x218
 6058 13bf 35       		.uleb128 0x35
 6059 13c0 6900     		.ascii	"i\000"
 6060 13c2 01       		.byte	0x1
 6061 13c3 D7       		.byte	0xd7
 6062 13c4 0B       		.byte	0xb
 6063 13c5 68000000 		.4byte	0x68
 6064 13c9 10060000 		.4byte	.LLST34
 6065 13cd 08060000 		.4byte	.LVUS34
 6066 13d1 2C       		.uleb128 0x2c
 6067 13d2 30020000 		.4byte	.Ldebug_ranges0+0x230
 6068 13d6 35       		.uleb128 0x35
 6069 13d7 6300     		.ascii	"c\000"
 6070 13d9 01       		.byte	0x1
 6071 13da D9       		.byte	0xd9
 6072 13db 13       		.byte	0x13
 6073 13dc 4E130000 		.4byte	0x134e
 6074 13e0 4F060000 		.4byte	.LLST35
 6075 13e4 47060000 		.4byte	.LVUS35
 6076 13e8 3B       		.uleb128 0x3b
 6077 13e9 723100   		.ascii	"r1\000"
 6078 13ec 01       		.byte	0x1
 6079 13ed DB       		.byte	0xdb
 6080 13ee 0F       		.byte	0xf
 6081 13ef 3C0A0000 		.4byte	0xa3c
 6082 13f3 03       		.byte	0x3
 6083 13f4 91       		.byte	0x91
 6084 13f5 807F     		.sleb128 -128
 6085 13f7 3B       		.uleb128 0x3b
 6086 13f8 723200   		.ascii	"r2\000"
 6087 13fb 01       		.byte	0x1
 6088 13fc DC       		.byte	0xdc
 6089 13fd 0F       		.byte	0xf
 6090 13fe 3C0A0000 		.4byte	0xa3c
 6091 1402 03       		.byte	0x3
 6092 1403 91       		.byte	0x91
 6093 1404 887F     		.sleb128 -120
 6094 1406 35       		.uleb128 0x35
 6095 1407 726E3100 		.ascii	"rn1\000"
 6096 140b 01       		.byte	0x1
 6097 140c DF       		.byte	0xdf
 6098 140d 09       		.byte	0x9
 6099 140e 29000000 		.4byte	0x29
 6100 1412 8B060000 		.4byte	.LLST36
 6101 1416 87060000 		.4byte	.LVUS36
 6102 141a 35       		.uleb128 0x35
 6103 141b 726E3200 		.ascii	"rn2\000"
 6104 141f 01       		.byte	0x1
 6105 1420 E0       		.byte	0xe0
 6106 1421 09       		.byte	0x9
 6107 1422 29000000 		.4byte	0x29
 6108 1426 AF060000 		.4byte	.LLST37
 6109 142a AB060000 		.4byte	.LVUS37
 6110 142e 3A       		.uleb128 0x3a
 6111 142f 25020000 		.4byte	.LASF181
 6112 1433 01       		.byte	0x1
ARM GAS  /tmp/ccEGVymn.s 			page 124


 6113 1434 E1       		.byte	0xe1
 6114 1435 09       		.byte	0x9
 6115 1436 29000000 		.4byte	0x29
 6116 143a D5060000 		.4byte	.LLST38
 6117 143e CF060000 		.4byte	.LVUS38
 6118 1442 3C       		.uleb128 0x3c
 6119 1443 5C020000 		.4byte	.LASF175
 6120 1447 01       		.byte	0x1
 6121 1448 E5       		.byte	0xe5
 6122 1449 0F       		.byte	0xf
 6123 144a 3C0A0000 		.4byte	0xa3c
 6124 144e 03       		.byte	0x3
 6125 144f 91       		.byte	0x91
 6126 1450 907F     		.sleb128 -112
 6127 1452 35       		.uleb128 0x35
 6128 1453 72743100 		.ascii	"rt1\000"
 6129 1457 01       		.byte	0x1
 6130 1458 E6       		.byte	0xe6
 6131 1459 09       		.byte	0x9
 6132 145a 29000000 		.4byte	0x29
 6133 145e 0B070000 		.4byte	.LLST39
 6134 1462 07070000 		.4byte	.LVUS39
 6135 1466 35       		.uleb128 0x35
 6136 1467 72743200 		.ascii	"rt2\000"
 6137 146b 01       		.byte	0x1
 6138 146c E7       		.byte	0xe7
 6139 146d 09       		.byte	0x9
 6140 146e 29000000 		.4byte	0x29
 6141 1472 31070000 		.4byte	.LLST40
 6142 1476 2B070000 		.4byte	.LVUS40
 6143 147a 3A       		.uleb128 0x3a
 6144 147b 92020000 		.4byte	.LASF182
 6145 147f 01       		.byte	0x1
 6146 1480 E8       		.byte	0xe8
 6147 1481 09       		.byte	0x9
 6148 1482 29000000 		.4byte	0x29
 6149 1486 65070000 		.4byte	.LLST41
 6150 148a 5D070000 		.4byte	.LVUS41
 6151 148e 2A       		.uleb128 0x2a
 6152 148f 58020000 		.4byte	.Ldebug_ranges0+0x258
 6153 1493 0D150000 		.4byte	0x150d
 6154 1497 3B       		.uleb128 0x3b
 6155 1498 5000     		.ascii	"P\000"
 6156 149a 01       		.byte	0x1
 6157 149b F1       		.byte	0xf1
 6158 149c 10       		.byte	0x10
 6159 149d 3C0A0000 		.4byte	0xa3c
 6160 14a1 03       		.byte	0x3
 6161 14a2 91       		.byte	0x91
 6162 14a3 987F     		.sleb128 -104
 6163 14a5 2D       		.uleb128 0x2d
 6164 14a6 16020000 		.4byte	.LVL106
 6165 14aa 8B1A0000 		.4byte	0x1a8b
 6166 14ae 2D       		.uleb128 0x2d
 6167 14af 36020000 		.4byte	.LVL107
 6168 14b3 8B1A0000 		.4byte	0x1a8b
 6169 14b7 2D       		.uleb128 0x2d
ARM GAS  /tmp/ccEGVymn.s 			page 125


 6170 14b8 52020000 		.4byte	.LVL108
 6171 14bc 991A0000 		.4byte	0x1a99
 6172 14c0 2D       		.uleb128 0x2d
 6173 14c1 6E020000 		.4byte	.LVL109
 6174 14c5 8B1A0000 		.4byte	0x1a8b
 6175 14c9 2E       		.uleb128 0x2e
 6176 14ca 7E020000 		.4byte	.LVL110
 6177 14ce D11A0000 		.4byte	0x1ad1
 6178 14d2 DD140000 		.4byte	0x14dd
 6179 14d6 2F       		.uleb128 0x2f
 6180 14d7 01       		.byte	0x1
 6181 14d8 50       		.byte	0x50
 6182 14d9 02       		.byte	0x2
 6183 14da 78       		.byte	0x78
 6184 14db 0C       		.sleb128 12
 6185 14dc 00       		.byte	0
 6186 14dd 2D       		.uleb128 0x2d
 6187 14de 9A020000 		.4byte	.LVL112
 6188 14e2 DF1A0000 		.4byte	0x1adf
 6189 14e6 2D       		.uleb128 0x2d
 6190 14e7 C2020000 		.4byte	.LVL113
 6191 14eb 8B1A0000 		.4byte	0x1a8b
 6192 14ef 2E       		.uleb128 0x2e
 6193 14f0 D2020000 		.4byte	.LVL114
 6194 14f4 A71A0000 		.4byte	0x1aa7
 6195 14f8 03150000 		.4byte	0x1503
 6196 14fc 2F       		.uleb128 0x2f
 6197 14fd 01       		.byte	0x1
 6198 14fe 50       		.byte	0x50
 6199 14ff 02       		.byte	0x2
 6200 1500 78       		.byte	0x78
 6201 1501 0C       		.sleb128 12
 6202 1502 00       		.byte	0
 6203 1503 2D       		.uleb128 0x2d
 6204 1504 EE020000 		.4byte	.LVL115
 6205 1508 DF1A0000 		.4byte	0x1adf
 6206 150c 00       		.byte	0
 6207 150d 2D       		.uleb128 0x2d
 6208 150e 62000000 		.4byte	.LVL75
 6209 1512 FB1A0000 		.4byte	0x1afb
 6210 1516 2D       		.uleb128 0x2d
 6211 1517 8A000000 		.4byte	.LVL76
 6212 151b FB1A0000 		.4byte	0x1afb
 6213 151f 2D       		.uleb128 0x2d
 6214 1520 AE000000 		.4byte	.LVL77
 6215 1524 171B0000 		.4byte	0x1b17
 6216 1528 2D       		.uleb128 0x2d
 6217 1529 C6000000 		.4byte	.LVL80
 6218 152d 171B0000 		.4byte	0x1b17
 6219 1531 2D       		.uleb128 0x2d
 6220 1532 F2000000 		.4byte	.LVL84
 6221 1536 171B0000 		.4byte	0x1b17
 6222 153a 2D       		.uleb128 0x2d
 6223 153b 16010000 		.4byte	.LVL86
 6224 153f 171B0000 		.4byte	0x1b17
 6225 1543 2E       		.uleb128 0x2e
 6226 1544 42010000 		.4byte	.LVL89
ARM GAS  /tmp/ccEGVymn.s 			page 126


 6227 1548 091B0000 		.4byte	0x1b09
 6228 154c 59150000 		.4byte	0x1559
 6229 1550 2F       		.uleb128 0x2f
 6230 1551 02       		.byte	0x2
 6231 1552 90       		.byte	0x90
 6232 1553 42       		.uleb128 0x42
 6233 1554 03       		.byte	0x3
 6234 1555 F5       		.byte	0xf5
 6235 1556 52       		.uleb128 0x52
 6236 1557 29       		.uleb128 0x29
 6237 1558 00       		.byte	0
 6238 1559 2D       		.uleb128 0x2d
 6239 155a 5E010000 		.4byte	.LVL90
 6240 155e 171B0000 		.4byte	0x1b17
 6241 1562 2D       		.uleb128 0x2d
 6242 1563 76010000 		.4byte	.LVL93
 6243 1567 171B0000 		.4byte	0x1b17
 6244 156b 2D       		.uleb128 0x2d
 6245 156c A2010000 		.4byte	.LVL98
 6246 1570 171B0000 		.4byte	0x1b17
 6247 1574 2D       		.uleb128 0x2d
 6248 1575 C6010000 		.4byte	.LVL100
 6249 1579 171B0000 		.4byte	0x1b17
 6250 157d 30       		.uleb128 0x30
 6251 157e F2010000 		.4byte	.LVL103
 6252 1582 251B0000 		.4byte	0x1b25
 6253 1586 2F       		.uleb128 0x2f
 6254 1587 02       		.byte	0x2
 6255 1588 90       		.byte	0x90
 6256 1589 40       		.uleb128 0x40
 6257 158a 03       		.byte	0x3
 6258 158b F5       		.byte	0xf5
 6259 158c 54       		.uleb128 0x54
 6260 158d 29       		.uleb128 0x29
 6261 158e 00       		.byte	0
 6262 158f 00       		.byte	0
 6263 1590 00       		.byte	0
 6264 1591 00       		.byte	0
 6265 1592 3D       		.uleb128 0x3d
 6266 1593 01       		.byte	0x1
 6267 1594 7C060000 		.4byte	.LASF208
 6268 1598 01       		.byte	0x1
 6269 1599 99       		.byte	0x99
 6270 159a 06       		.byte	0x6
 6271 159b 00000000 		.4byte	.LFB8
 6272 159f 9C010000 		.4byte	.LFE8
 6273 15a3 A3070000 		.4byte	.LLST19
 6274 15a7 01       		.byte	0x1
 6275 15a8 96170000 		.4byte	0x1796
 6276 15ac 2A       		.uleb128 0x2a
 6277 15ad 08010000 		.4byte	.Ldebug_ranges0+0x108
 6278 15b1 57170000 		.4byte	0x1757
 6279 15b5 35       		.uleb128 0x35
 6280 15b6 6900     		.ascii	"i\000"
 6281 15b8 01       		.byte	0x1
 6282 15b9 9B       		.byte	0x9b
 6283 15ba 0B       		.byte	0xb
ARM GAS  /tmp/ccEGVymn.s 			page 127


 6284 15bb 68000000 		.4byte	0x68
 6285 15bf 2A080000 		.4byte	.LLST20
 6286 15c3 1A080000 		.4byte	.LVUS20
 6287 15c7 2C       		.uleb128 0x2c
 6288 15c8 28010000 		.4byte	.Ldebug_ranges0+0x128
 6289 15cc 35       		.uleb128 0x35
 6290 15cd 626900   		.ascii	"bi\000"
 6291 15d0 01       		.byte	0x1
 6292 15d1 9D       		.byte	0x9d
 6293 15d2 10       		.byte	0x10
 6294 15d3 BD0C0000 		.4byte	0xcbd
 6295 15d7 A8080000 		.4byte	.LLST21
 6296 15db A4080000 		.4byte	.LVUS21
 6297 15df 2C       		.uleb128 0x2c
 6298 15e0 48010000 		.4byte	.Ldebug_ranges0+0x148
 6299 15e4 35       		.uleb128 0x35
 6300 15e5 6A00     		.ascii	"j\000"
 6301 15e7 01       		.byte	0x1
 6302 15e8 9F       		.byte	0x9f
 6303 15e9 0C       		.byte	0xc
 6304 15ea 68000000 		.4byte	0x68
 6305 15ee CE080000 		.4byte	.LLST22
 6306 15f2 C6080000 		.4byte	.LVUS22
 6307 15f6 2C       		.uleb128 0x2c
 6308 15f7 80010000 		.4byte	.Ldebug_ranges0+0x180
 6309 15fb 35       		.uleb128 0x35
 6310 15fc 626A00   		.ascii	"bj\000"
 6311 15ff 01       		.byte	0x1
 6312 1600 A1       		.byte	0xa1
 6313 1601 11       		.byte	0x11
 6314 1602 BD0C0000 		.4byte	0xcbd
 6315 1606 08090000 		.4byte	.LLST23
 6316 160a 02090000 		.4byte	.LVUS23
 6317 160e 3C       		.uleb128 0x3c
 6318 160f 6D020000 		.4byte	.LASF183
 6319 1613 01       		.byte	0x1
 6320 1614 A6       		.byte	0xa6
 6321 1615 13       		.byte	0x13
 6322 1616 500C0000 		.4byte	0xc50
 6323 161a 03       		.byte	0x3
 6324 161b 91       		.byte	0x91
 6325 161c B07D     		.sleb128 -336
 6326 161e 35       		.uleb128 0x35
 6327 161f 6B657900 		.ascii	"key\000"
 6328 1623 01       		.byte	0x1
 6329 1624 A7       		.byte	0xa7
 6330 1625 16       		.byte	0x16
 6331 1626 C30C0000 		.4byte	0xcc3
 6332 162a 40090000 		.4byte	.LLST24
 6333 162e 32090000 		.4byte	.LVUS24
 6334 1632 2A       		.uleb128 0x2a
 6335 1633 C0010000 		.4byte	.Ldebug_ranges0+0x1c0
 6336 1637 D7160000 		.4byte	0x16d7
 6337 163b 35       		.uleb128 0x35
 6338 163c 6100     		.ascii	"a\000"
 6339 163e 01       		.byte	0x1
 6340 163f C0       		.byte	0xc0
ARM GAS  /tmp/ccEGVymn.s 			page 128


 6341 1640 15       		.byte	0x15
 6342 1641 48130000 		.4byte	0x1348
 6343 1645 BD090000 		.4byte	.LLST26
 6344 1649 B9090000 		.4byte	.LVUS26
 6345 164d 3E       		.uleb128 0x3e
 6346 164e C2190000 		.4byte	0x19c2
 6347 1652 E0010000 		.4byte	.Ldebug_ranges0+0x1e0
 6348 1656 01       		.byte	0x1
 6349 1657 C0       		.byte	0xc0
 6350 1658 19       		.byte	0x19
 6351 1659 7A160000 		.4byte	0x167a
 6352 165d 3F       		.uleb128 0x3f
 6353 165e D5190000 		.4byte	0x19d5
 6354 1662 40       		.uleb128 0x40
 6355 1663 E1190000 		.4byte	0x19e1
 6356 1667 E0010000 		.4byte	.Ldebug_ranges0+0x1e0
 6357 166b 41       		.uleb128 0x41
 6358 166c E2190000 		.4byte	0x19e2
 6359 1670 EB090000 		.4byte	.LLST27
 6360 1674 E7090000 		.4byte	.LVUS27
 6361 1678 00       		.byte	0
 6362 1679 00       		.byte	0
 6363 167a 42       		.uleb128 0x42
 6364 167b 9A190000 		.4byte	0x199a
 6365 167f 38010000 		.4byte	.LBI72
 6366 1683 00       		.byte	.LVU318
 6367 1684 00020000 		.4byte	.Ldebug_ranges0+0x200
 6368 1688 01       		.byte	0x1
 6369 1689 C3       		.byte	0xc3
 6370 168a 06       		.byte	0x6
 6371 168b C6160000 		.4byte	0x16c6
 6372 168f 43       		.uleb128 0x43
 6373 1690 B5190000 		.4byte	0x19b5
 6374 1694 03       		.byte	0x3
 6375 1695 91       		.byte	0x91
 6376 1696 C07E     		.sleb128 -192
 6377 1698 44       		.uleb128 0x44
 6378 1699 A9190000 		.4byte	0x19a9
 6379 169d 0E0A0000 		.4byte	.LLST28
 6380 16a1 0A0A0000 		.4byte	.LVUS28
 6381 16a5 30       		.uleb128 0x30
 6382 16a6 5A010000 		.4byte	.LVL61
 6383 16aa 331B0000 		.4byte	0x1b33
 6384 16ae 2F       		.uleb128 0x2f
 6385 16af 01       		.byte	0x1
 6386 16b0 50       		.byte	0x50
 6387 16b1 0C       		.byte	0xc
 6388 16b2 76       		.byte	0x76
 6389 16b3 7F       		.sleb128 -1
 6390 16b4 39       		.byte	0x39
 6391 16b5 1E       		.byte	0x1e
 6392 16b6 34       		.byte	0x34
 6393 16b7 24       		.byte	0x24
 6394 16b8 03       		.byte	0x3
 6395 16b9 00000000 		.4byte	g_arbiters
 6396 16bd 22       		.byte	0x22
 6397 16be 2F       		.uleb128 0x2f
ARM GAS  /tmp/ccEGVymn.s 			page 129


 6398 16bf 01       		.byte	0x1
 6399 16c0 52       		.byte	0x52
 6400 16c1 02       		.byte	0x2
 6401 16c2 08       		.byte	0x8
 6402 16c3 90       		.byte	0x90
 6403 16c4 00       		.byte	0
 6404 16c5 00       		.byte	0
 6405 16c6 30       		.uleb128 0x30
 6406 16c7 F4000000 		.4byte	.LVL51
 6407 16cb 96170000 		.4byte	0x1796
 6408 16cf 2F       		.uleb128 0x2f
 6409 16d0 01       		.byte	0x1
 6410 16d1 51       		.byte	0x51
 6411 16d2 02       		.byte	0x2
 6412 16d3 74       		.byte	0x74
 6413 16d4 00       		.sleb128 0
 6414 16d5 00       		.byte	0
 6415 16d6 00       		.byte	0
 6416 16d7 42       		.uleb128 0x42
 6417 16d8 08190000 		.4byte	0x1908
 6418 16dc 70000000 		.4byte	.LBI61
 6419 16e0 04       		.byte	.LVU244
 6420 16e1 A0010000 		.4byte	.Ldebug_ranges0+0x1a0
 6421 16e5 01       		.byte	0x1
 6422 16e6 B8       		.byte	0xb8
 6423 16e7 04       		.byte	0x4
 6424 16e8 FA160000 		.4byte	0x16fa
 6425 16ec 44       		.uleb128 0x44
 6426 16ed 17190000 		.4byte	0x1917
 6427 16f1 380A0000 		.4byte	.LLST25
 6428 16f5 360A0000 		.4byte	.LVUS25
 6429 16f9 00       		.byte	0
 6430 16fa 45       		.uleb128 0x45
 6431 16fb 08190000 		.4byte	0x1908
 6432 16ff 82000000 		.4byte	.LBI79
 6433 1703 02       		.byte	.LVU254
 6434 1704 82000000 		.4byte	.LBB79
 6435 1708 8E000000 		.4byte	.LBE79
 6436 170c 01       		.byte	0x1
 6437 170d B9       		.byte	0xb9
 6438 170e 04       		.byte	0x4
 6439 170f 21170000 		.4byte	0x1721
 6440 1713 44       		.uleb128 0x44
 6441 1714 17190000 		.4byte	0x1917
 6442 1718 4D0A0000 		.4byte	.LLST29
 6443 171c 4B0A0000 		.4byte	.LVUS29
 6444 1720 00       		.byte	0
 6445 1721 2E       		.uleb128 0x2e
 6446 1722 92000000 		.4byte	.LVL43
 6447 1726 401B0000 		.4byte	0x1b40
 6448 172a 41170000 		.4byte	0x1741
 6449 172e 2F       		.uleb128 0x2f
 6450 172f 01       		.byte	0x1
 6451 1730 50       		.byte	0x50
 6452 1731 02       		.byte	0x2
 6453 1732 74       		.byte	0x74
 6454 1733 00       		.sleb128 0
ARM GAS  /tmp/ccEGVymn.s 			page 130


 6455 1734 2F       		.uleb128 0x2f
 6456 1735 01       		.byte	0x1
 6457 1736 51       		.byte	0x51
 6458 1737 02       		.byte	0x2
 6459 1738 75       		.byte	0x75
 6460 1739 00       		.sleb128 0
 6461 173a 2F       		.uleb128 0x2f
 6462 173b 01       		.byte	0x1
 6463 173c 52       		.byte	0x52
 6464 173d 02       		.byte	0x2
 6465 173e 78       		.byte	0x78
 6466 173f 00       		.sleb128 0
 6467 1740 00       		.byte	0
 6468 1741 2D       		.uleb128 0x2d
 6469 1742 26010000 		.4byte	.LVL58
 6470 1746 22190000 		.4byte	0x1922
 6471 174a 2D       		.uleb128 0x2d
 6472 174b 78010000 		.4byte	.LVL67
 6473 174f 4E1B0000 		.4byte	0x1b4e
 6474 1753 00       		.byte	0
 6475 1754 00       		.byte	0
 6476 1755 00       		.byte	0
 6477 1756 00       		.byte	0
 6478 1757 2E       		.uleb128 0x2e
 6479 1758 34010000 		.4byte	.LVL60
 6480 175c 331B0000 		.4byte	0x1b33
 6481 1760 78170000 		.4byte	0x1778
 6482 1764 2F       		.uleb128 0x2f
 6483 1765 01       		.byte	0x1
 6484 1766 50       		.byte	0x50
 6485 1767 03       		.byte	0x3
 6486 1768 91       		.byte	0x91
 6487 1769 C07E     		.sleb128 -192
 6488 176b 2F       		.uleb128 0x2f
 6489 176c 01       		.byte	0x1
 6490 176d 51       		.byte	0x51
 6491 176e 02       		.byte	0x2
 6492 176f 74       		.byte	0x74
 6493 1770 00       		.sleb128 0
 6494 1771 2F       		.uleb128 0x2f
 6495 1772 01       		.byte	0x1
 6496 1773 52       		.byte	0x52
 6497 1774 02       		.byte	0x2
 6498 1775 08       		.byte	0x8
 6499 1776 90       		.byte	0x90
 6500 1777 00       		.byte	0
 6501 1778 30       		.uleb128 0x30
 6502 1779 6E010000 		.4byte	.LVL64
 6503 177d 331B0000 		.4byte	0x1b33
 6504 1781 2F       		.uleb128 0x2f
 6505 1782 01       		.byte	0x1
 6506 1783 50       		.byte	0x50
 6507 1784 03       		.byte	0x3
 6508 1785 91       		.byte	0x91
 6509 1786 C07E     		.sleb128 -192
 6510 1788 2F       		.uleb128 0x2f
 6511 1789 01       		.byte	0x1
ARM GAS  /tmp/ccEGVymn.s 			page 131


 6512 178a 51       		.byte	0x51
 6513 178b 02       		.byte	0x2
 6514 178c 74       		.byte	0x74
 6515 178d 00       		.sleb128 0
 6516 178e 2F       		.uleb128 0x2f
 6517 178f 01       		.byte	0x1
 6518 1790 52       		.byte	0x52
 6519 1791 02       		.byte	0x2
 6520 1792 08       		.byte	0x8
 6521 1793 90       		.byte	0x90
 6522 1794 00       		.byte	0
 6523 1795 00       		.byte	0
 6524 1796 33       		.uleb128 0x33
 6525 1797 01       		.byte	0x1
 6526 1798 E4050000 		.4byte	.LASF184
 6527 179c 01       		.byte	0x1
 6528 179d 67       		.byte	0x67
 6529 179e 06       		.byte	0x6
 6530 179f 01       		.byte	0x1
 6531 17a0 00000000 		.4byte	.LFB7
 6532 17a4 F0000000 		.4byte	.LFE7
 6533 17a8 630A0000 		.4byte	.LLST6
 6534 17ac 01       		.byte	0x1
 6535 17ad 08190000 		.4byte	0x1908
 6536 17b1 34       		.uleb128 0x34
 6537 17b2 6100     		.ascii	"a\000"
 6538 17b4 01       		.byte	0x1
 6539 17b5 67       		.byte	0x67
 6540 17b6 24       		.byte	0x24
 6541 17b7 48130000 		.4byte	0x1348
 6542 17bb AD0A0000 		.4byte	.LLST7
 6543 17bf A90A0000 		.4byte	.LVUS7
 6544 17c3 38       		.uleb128 0x38
 6545 17c4 AD010000 		.4byte	.LASF185
 6546 17c8 01       		.byte	0x1
 6547 17c9 67       		.byte	0x67
 6548 17ca 37       		.byte	0x37
 6549 17cb 4E130000 		.4byte	0x134e
 6550 17cf CF0A0000 		.4byte	.LLST8
 6551 17d3 CB0A0000 		.4byte	.LVUS8
 6552 17d7 38       		.uleb128 0x38
 6553 17d8 0C030000 		.4byte	.LASF186
 6554 17dc 01       		.byte	0x1
 6555 17dd 67       		.byte	0x67
 6556 17de 48       		.byte	0x48
 6557 17df 68000000 		.4byte	0x68
 6558 17e3 F40A0000 		.4byte	.LLST9
 6559 17e7 F00A0000 		.4byte	.LVUS9
 6560 17eb 3C       		.uleb128 0x3c
 6561 17ec E6040000 		.4byte	.LASF187
 6562 17f0 01       		.byte	0x1
 6563 17f1 69       		.byte	0x69
 6564 17f2 11       		.byte	0x11
 6565 17f3 AD0C0000 		.4byte	0xcad
 6566 17f7 03       		.byte	0x3
 6567 17f8 91       		.byte	0x91
 6568 17f9 D87E     		.sleb128 -168
ARM GAS  /tmp/ccEGVymn.s 			page 132


 6569 17fb 2A       		.uleb128 0x2a
 6570 17fc 88000000 		.4byte	.Ldebug_ranges0+0x88
 6571 1800 A9180000 		.4byte	0x18a9
 6572 1804 35       		.uleb128 0x35
 6573 1805 6900     		.ascii	"i\000"
 6574 1807 01       		.byte	0x1
 6575 1808 6D       		.byte	0x6d
 6576 1809 0B       		.byte	0xb
 6577 180a 68000000 		.4byte	0x68
 6578 180e 140B0000 		.4byte	.LLST11
 6579 1812 120B0000 		.4byte	.LVUS11
 6580 1816 2C       		.uleb128 0x2c
 6581 1817 A8000000 		.4byte	.Ldebug_ranges0+0xa8
 6582 181b 3A       		.uleb128 0x3a
 6583 181c DE020000 		.4byte	.LASF188
 6584 1820 01       		.byte	0x1
 6585 1821 6F       		.byte	0x6f
 6586 1822 13       		.byte	0x13
 6587 1823 4E130000 		.4byte	0x134e
 6588 1827 2E0B0000 		.4byte	.LLST12
 6589 182b 280B0000 		.4byte	.LVUS12
 6590 182f 35       		.uleb128 0x35
 6591 1830 6B00     		.ascii	"k\000"
 6592 1832 01       		.byte	0x1
 6593 1833 70       		.byte	0x70
 6594 1834 07       		.byte	0x7
 6595 1835 68000000 		.4byte	0x68
 6596 1839 5F0B0000 		.4byte	.LLST13
 6597 183d 590B0000 		.4byte	.LVUS13
 6598 1841 31       		.uleb128 0x31
 6599 1842 38000000 		.4byte	.LBB43
 6600 1846 56000000 		.4byte	.LBE43
 6601 184a 7B180000 		.4byte	0x187b
 6602 184e 35       		.uleb128 0x35
 6603 184f 6A00     		.ascii	"j\000"
 6604 1851 01       		.byte	0x1
 6605 1852 71       		.byte	0x71
 6606 1853 0C       		.byte	0xc
 6607 1854 68000000 		.4byte	0x68
 6608 1858 940B0000 		.4byte	.LLST16
 6609 185c 8C0B0000 		.4byte	.LVUS16
 6610 1860 2C       		.uleb128 0x2c
 6611 1861 E0000000 		.4byte	.Ldebug_ranges0+0xe0
 6612 1865 3A       		.uleb128 0x3a
 6613 1866 76010000 		.4byte	.LASF189
 6614 186a 01       		.byte	0x1
 6615 186b 73       		.byte	0x73
 6616 186c 14       		.byte	0x14
 6617 186d 4E130000 		.4byte	0x134e
 6618 1871 D30B0000 		.4byte	.LLST17
 6619 1875 CB0B0000 		.4byte	.LVUS17
 6620 1879 00       		.byte	0
 6621 187a 00       		.byte	0
 6622 187b 2C       		.uleb128 0x2c
 6623 187c C0000000 		.4byte	.Ldebug_ranges0+0xc0
 6624 1880 35       		.uleb128 0x35
 6625 1881 6300     		.ascii	"c\000"
ARM GAS  /tmp/ccEGVymn.s 			page 133


 6626 1883 01       		.byte	0x1
 6627 1884 7D       		.byte	0x7d
 6628 1885 14       		.byte	0x14
 6629 1886 4E130000 		.4byte	0x134e
 6630 188a 0D0C0000 		.4byte	.LLST14
 6631 188e 090C0000 		.4byte	.LVUS14
 6632 1892 3A       		.uleb128 0x3a
 6633 1893 76010000 		.4byte	.LASF189
 6634 1897 01       		.byte	0x1
 6635 1898 7E       		.byte	0x7e
 6636 1899 14       		.byte	0x14
 6637 189a 4E130000 		.4byte	0x134e
 6638 189e 470C0000 		.4byte	.LLST15
 6639 18a2 430C0000 		.4byte	.LVUS15
 6640 18a6 00       		.byte	0
 6641 18a7 00       		.byte	0
 6642 18a8 00       		.byte	0
 6643 18a9 31       		.uleb128 0x31
 6644 18aa 98000000 		.4byte	.LBB55
 6645 18ae BA000000 		.4byte	.LBE55
 6646 18b2 C1180000 		.4byte	0x18c1
 6647 18b6 46       		.uleb128 0x46
 6648 18b7 6900     		.ascii	"i\000"
 6649 18b9 01       		.byte	0x1
 6650 18ba 93       		.byte	0x93
 6651 18bb 0B       		.byte	0xb
 6652 18bc 68000000 		.4byte	0x68
 6653 18c0 00       		.byte	0
 6654 18c1 42       		.uleb128 0x42
 6655 18c2 08190000 		.4byte	0x1908
 6656 18c6 0E000000 		.4byte	.LBI37
 6657 18ca 02       		.byte	.LVU114
 6658 18cb 70000000 		.4byte	.Ldebug_ranges0+0x70
 6659 18cf 01       		.byte	0x1
 6660 18d0 6A       		.byte	0x6a
 6661 18d1 02       		.byte	0x2
 6662 18d2 E4180000 		.4byte	0x18e4
 6663 18d6 44       		.uleb128 0x44
 6664 18d7 17190000 		.4byte	0x1917
 6665 18db 670C0000 		.4byte	.LLST10
 6666 18df 650C0000 		.4byte	.LVUS10
 6667 18e3 00       		.byte	0
 6668 18e4 47       		.uleb128 0x47
 6669 18e5 08190000 		.4byte	0x1908
 6670 18e9 14000000 		.4byte	.LBI52
 6671 18ed 02       		.byte	.LVU123
 6672 18ee 14000000 		.4byte	.LBB52
 6673 18f2 1A000000 		.4byte	.LBE52
 6674 18f6 01       		.byte	0x1
 6675 18f7 6B       		.byte	0x6b
 6676 18f8 02       		.byte	0x2
 6677 18f9 44       		.uleb128 0x44
 6678 18fa 17190000 		.4byte	0x1917
 6679 18fe 7F0C0000 		.4byte	.LLST18
 6680 1902 7D0C0000 		.4byte	.LVUS18
 6681 1906 00       		.byte	0
 6682 1907 00       		.byte	0
ARM GAS  /tmp/ccEGVymn.s 			page 134


 6683 1908 48       		.uleb128 0x48
 6684 1909 01       		.byte	0x1
 6685 190a 5B010000 		.4byte	.LASF191
 6686 190e 01       		.byte	0x1
 6687 190f 60       		.byte	0x60
 6688 1910 06       		.byte	0x6
 6689 1911 01       		.byte	0x1
 6690 1912 01       		.byte	0x1
 6691 1913 22190000 		.4byte	0x1922
 6692 1917 49       		.uleb128 0x49
 6693 1918 6300     		.ascii	"c\000"
 6694 191a 01       		.byte	0x1
 6695 191b 60       		.byte	0x60
 6696 191c 22       		.byte	0x22
 6697 191d 4E130000 		.4byte	0x134e
 6698 1921 00       		.byte	0
 6699 1922 33       		.uleb128 0x33
 6700 1923 01       		.byte	0x1
 6701 1924 0F000000 		.4byte	.LASF190
 6702 1928 01       		.byte	0x1
 6703 1929 4F       		.byte	0x4f
 6704 192a 06       		.byte	0x6
 6705 192b 01       		.byte	0x1
 6706 192c 00000000 		.4byte	.LFB5
 6707 1930 A4000000 		.4byte	.LFE5
 6708 1934 950C0000 		.4byte	.LLST3
 6709 1938 01       		.byte	0x1
 6710 1939 9A190000 		.4byte	0x199a
 6711 193d 4A       		.uleb128 0x4a
 6712 193e 6B657900 		.ascii	"key\000"
 6713 1942 01       		.byte	0x1
 6714 1943 4F       		.byte	0x4f
 6715 1944 25       		.byte	0x25
 6716 1945 C30C0000 		.4byte	0xcc3
 6717 1949 02       		.byte	0x2
 6718 194a 91       		.byte	0x91
 6719 194b 50       		.sleb128 -48
 6720 194c 2C       		.uleb128 0x2c
 6721 194d 28000000 		.4byte	.Ldebug_ranges0+0x28
 6722 1951 35       		.uleb128 0x35
 6723 1952 6900     		.ascii	"i\000"
 6724 1954 01       		.byte	0x1
 6725 1955 51       		.byte	0x51
 6726 1956 0B       		.byte	0xb
 6727 1957 68000000 		.4byte	0x68
 6728 195b D50C0000 		.4byte	.LLST4
 6729 195f CD0C0000 		.4byte	.LVUS4
 6730 1963 2C       		.uleb128 0x2c
 6731 1964 58000000 		.4byte	.Ldebug_ranges0+0x58
 6732 1968 35       		.uleb128 0x35
 6733 1969 6A00     		.ascii	"j\000"
 6734 196b 01       		.byte	0x1
 6735 196c 56       		.byte	0x56
 6736 196d 0D       		.byte	0xd
 6737 196e 68000000 		.4byte	0x68
 6738 1972 0E0D0000 		.4byte	.LLST5
 6739 1976 0C0D0000 		.4byte	.LVUS5
ARM GAS  /tmp/ccEGVymn.s 			page 135


 6740 197a 30       		.uleb128 0x30
 6741 197b 78000000 		.4byte	.LVL12
 6742 197f 331B0000 		.4byte	0x1b33
 6743 1983 2F       		.uleb128 0x2f
 6744 1984 01       		.byte	0x1
 6745 1985 50       		.byte	0x50
 6746 1986 03       		.byte	0x3
 6747 1987 7A       		.byte	0x7a
 6748 1988 F07E     		.sleb128 -144
 6749 198a 2F       		.uleb128 0x2f
 6750 198b 01       		.byte	0x1
 6751 198c 51       		.byte	0x51
 6752 198d 02       		.byte	0x2
 6753 198e 7A       		.byte	0x7a
 6754 198f 00       		.sleb128 0
 6755 1990 2F       		.uleb128 0x2f
 6756 1991 01       		.byte	0x1
 6757 1992 52       		.byte	0x52
 6758 1993 02       		.byte	0x2
 6759 1994 08       		.byte	0x8
 6760 1995 90       		.byte	0x90
 6761 1996 00       		.byte	0
 6762 1997 00       		.byte	0
 6763 1998 00       		.byte	0
 6764 1999 00       		.byte	0
 6765 199a 48       		.uleb128 0x48
 6766 199b 01       		.byte	0x1
 6767 199c 7F040000 		.4byte	.LASF192
 6768 19a0 01       		.byte	0x1
 6769 19a1 41       		.byte	0x41
 6770 19a2 06       		.byte	0x6
 6771 19a3 01       		.byte	0x1
 6772 19a4 01       		.byte	0x1
 6773 19a5 C2190000 		.4byte	0x19c2
 6774 19a9 49       		.uleb128 0x49
 6775 19aa 6B657900 		.ascii	"key\000"
 6776 19ae 01       		.byte	0x1
 6777 19af 41       		.byte	0x41
 6778 19b0 26       		.byte	0x26
 6779 19b1 C30C0000 		.4byte	0xcc3
 6780 19b5 4B       		.uleb128 0x4b
 6781 19b6 2D020000 		.4byte	.LASF131
 6782 19ba 01       		.byte	0x1
 6783 19bb 41       		.byte	0x41
 6784 19bc 3A       		.byte	0x3a
 6785 19bd 500C0000 		.4byte	0xc50
 6786 19c1 00       		.byte	0
 6787 19c2 4C       		.uleb128 0x4c
 6788 19c3 01       		.byte	0x1
 6789 19c4 4A020000 		.4byte	.LASF209
 6790 19c8 01       		.byte	0x1
 6791 19c9 35       		.byte	0x35
 6792 19ca 11       		.byte	0x11
 6793 19cb 01       		.byte	0x1
 6794 19cc 48130000 		.4byte	0x1348
 6795 19d0 01       		.byte	0x1
 6796 19d1 EE190000 		.4byte	0x19ee
ARM GAS  /tmp/ccEGVymn.s 			page 136


 6797 19d5 49       		.uleb128 0x49
 6798 19d6 6B657900 		.ascii	"key\000"
 6799 19da 01       		.byte	0x1
 6800 19db 35       		.byte	0x35
 6801 19dc 2F       		.byte	0x2f
 6802 19dd C30C0000 		.4byte	0xcc3
 6803 19e1 4D       		.uleb128 0x4d
 6804 19e2 46       		.uleb128 0x46
 6805 19e3 6900     		.ascii	"i\000"
 6806 19e5 01       		.byte	0x1
 6807 19e6 37       		.byte	0x37
 6808 19e7 0B       		.byte	0xb
 6809 19e8 68000000 		.4byte	0x68
 6810 19ec 00       		.byte	0
 6811 19ed 00       		.byte	0
 6812 19ee 4E       		.uleb128 0x4e
 6813 19ef C2190000 		.4byte	0x19c2
 6814 19f3 00000000 		.4byte	.LFB3
 6815 19f7 58000000 		.4byte	.LFE3
 6816 19fb 210D0000 		.4byte	.LLST0
 6817 19ff 01       		.byte	0x1
 6818 1a00 241A0000 		.4byte	0x1a24
 6819 1a04 43       		.uleb128 0x43
 6820 1a05 D5190000 		.4byte	0x19d5
 6821 1a09 02       		.byte	0x2
 6822 1a0a 91       		.byte	0x91
 6823 1a0b 68       		.sleb128 -24
 6824 1a0c 40       		.uleb128 0x40
 6825 1a0d E1190000 		.4byte	0x19e1
 6826 1a11 00000000 		.4byte	.Ldebug_ranges0+0
 6827 1a15 41       		.uleb128 0x41
 6828 1a16 E2190000 		.4byte	0x19e2
 6829 1a1a 8D0D0000 		.4byte	.LLST1
 6830 1a1e 890D0000 		.4byte	.LVUS1
 6831 1a22 00       		.byte	0
 6832 1a23 00       		.byte	0
 6833 1a24 4E       		.uleb128 0x4e
 6834 1a25 9A190000 		.4byte	0x199a
 6835 1a29 00000000 		.4byte	.LFB4
 6836 1a2d 54000000 		.4byte	.LFE4
 6837 1a31 AC0D0000 		.4byte	.LLST2
 6838 1a35 01       		.byte	0x1
 6839 1a36 6E1A0000 		.4byte	0x1a6e
 6840 1a3a 43       		.uleb128 0x43
 6841 1a3b A9190000 		.4byte	0x19a9
 6842 1a3f 02       		.byte	0x2
 6843 1a40 91       		.byte	0x91
 6844 1a41 58       		.sleb128 -40
 6845 1a42 43       		.uleb128 0x43
 6846 1a43 B5190000 		.4byte	0x19b5
 6847 1a47 02       		.byte	0x2
 6848 1a48 91       		.byte	0x91
 6849 1a49 78       		.sleb128 -8
 6850 1a4a 30       		.uleb128 0x30
 6851 1a4b 3C000000 		.4byte	.LVL5
 6852 1a4f 331B0000 		.4byte	0x1b33
 6853 1a53 2F       		.uleb128 0x2f
ARM GAS  /tmp/ccEGVymn.s 			page 137


 6854 1a54 01       		.byte	0x1
 6855 1a55 50       		.byte	0x50
 6856 1a56 09       		.byte	0x9
 6857 1a57 74       		.byte	0x74
 6858 1a58 7F       		.sleb128 -1
 6859 1a59 39       		.byte	0x39
 6860 1a5a 1E       		.byte	0x1e
 6861 1a5b 34       		.byte	0x34
 6862 1a5c 24       		.byte	0x24
 6863 1a5d 77       		.byte	0x77
 6864 1a5e 00       		.sleb128 0
 6865 1a5f 22       		.byte	0x22
 6866 1a60 2F       		.uleb128 0x2f
 6867 1a61 01       		.byte	0x1
 6868 1a62 51       		.byte	0x51
 6869 1a63 02       		.byte	0x2
 6870 1a64 91       		.byte	0x91
 6871 1a65 68       		.sleb128 -24
 6872 1a66 2F       		.uleb128 0x2f
 6873 1a67 01       		.byte	0x1
 6874 1a68 52       		.byte	0x52
 6875 1a69 02       		.byte	0x2
 6876 1a6a 08       		.byte	0x8
 6877 1a6b 90       		.byte	0x90
 6878 1a6c 00       		.byte	0
 6879 1a6d 00       		.byte	0
 6880 1a6e 4F       		.uleb128 0x4f
 6881 1a6f 08190000 		.4byte	0x1908
 6882 1a73 00000000 		.4byte	.LFB6
 6883 1a77 0A000000 		.4byte	.LFE6
 6884 1a7b 02       		.byte	0x2
 6885 1a7c 7D       		.byte	0x7d
 6886 1a7d 00       		.sleb128 0
 6887 1a7e 01       		.byte	0x1
 6888 1a7f 8B1A0000 		.4byte	0x1a8b
 6889 1a83 43       		.uleb128 0x43
 6890 1a84 17190000 		.4byte	0x1917
 6891 1a88 01       		.byte	0x1
 6892 1a89 50       		.byte	0x50
 6893 1a8a 00       		.byte	0
 6894 1a8b 50       		.uleb128 0x50
 6895 1a8c 01       		.byte	0x1
 6896 1a8d 01       		.byte	0x1
 6897 1a8e CE040000 		.4byte	.LASF193
 6898 1a92 CE040000 		.4byte	.LASF193
 6899 1a96 08       		.byte	0x8
 6900 1a97 24       		.byte	0x24
 6901 1a98 0D       		.byte	0xd
 6902 1a99 50       		.uleb128 0x50
 6903 1a9a 01       		.byte	0x1
 6904 1a9b 01       		.byte	0x1
 6905 1a9c A6000000 		.4byte	.LASF194
 6906 1aa0 A6000000 		.4byte	.LASF194
 6907 1aa4 08       		.byte	0x8
 6908 1aa5 26       		.byte	0x26
 6909 1aa6 0D       		.byte	0xd
 6910 1aa7 50       		.uleb128 0x50
ARM GAS  /tmp/ccEGVymn.s 			page 138


 6911 1aa8 01       		.byte	0x1
 6912 1aa9 01       		.byte	0x1
 6913 1aaa 2D050000 		.4byte	.LASF195
 6914 1aae 2D050000 		.4byte	.LASF195
 6915 1ab2 08       		.byte	0x8
 6916 1ab3 21       		.byte	0x21
 6917 1ab4 06       		.byte	0x6
 6918 1ab5 51       		.uleb128 0x51
 6919 1ab6 01       		.byte	0x1
 6920 1ab7 01       		.byte	0x1
 6921 1ab8 4D617800 		.ascii	"Max\000"
 6922 1abc 4D617800 		.ascii	"Max\000"
 6923 1ac0 08       		.byte	0x8
 6924 1ac1 36       		.byte	0x36
 6925 1ac2 07       		.byte	0x7
 6926 1ac3 50       		.uleb128 0x50
 6927 1ac4 01       		.byte	0x1
 6928 1ac5 01       		.byte	0x1
 6929 1ac6 E0040000 		.4byte	.LASF196
 6930 1aca E0040000 		.4byte	.LASF196
 6931 1ace 08       		.byte	0x8
 6932 1acf 37       		.byte	0x37
 6933 1ad0 07       		.byte	0x7
 6934 1ad1 50       		.uleb128 0x50
 6935 1ad2 01       		.byte	0x1
 6936 1ad3 01       		.byte	0x1
 6937 1ad4 2F070000 		.4byte	.LASF197
 6938 1ad8 2F070000 		.4byte	.LASF197
 6939 1adc 08       		.byte	0x8
 6940 1add 22       		.byte	0x22
 6941 1ade 06       		.byte	0x6
 6942 1adf 50       		.uleb128 0x50
 6943 1ae0 01       		.byte	0x1
 6944 1ae1 01       		.byte	0x1
 6945 1ae2 D4030000 		.4byte	.LASF198
 6946 1ae6 D4030000 		.4byte	.LASF198
 6947 1aea 08       		.byte	0x8
 6948 1aeb 2C       		.byte	0x2c
 6949 1aec 07       		.byte	0x7
 6950 1aed 50       		.uleb128 0x50
 6951 1aee 01       		.byte	0x1
 6952 1aef 01       		.byte	0x1
 6953 1af0 0F060000 		.4byte	.LASF199
 6954 1af4 0F060000 		.4byte	.LASF199
 6955 1af8 08       		.byte	0x8
 6956 1af9 2E       		.byte	0x2e
 6957 1afa 0D       		.byte	0xd
 6958 1afb 50       		.uleb128 0x50
 6959 1afc 01       		.byte	0x1
 6960 1afd 01       		.byte	0x1
 6961 1afe A5050000 		.4byte	.LASF200
 6962 1b02 A5050000 		.4byte	.LASF200
 6963 1b06 08       		.byte	0x8
 6964 1b07 27       		.byte	0x27
 6965 1b08 0D       		.byte	0xd
 6966 1b09 50       		.uleb128 0x50
 6967 1b0a 01       		.byte	0x1
ARM GAS  /tmp/ccEGVymn.s 			page 139


 6968 1b0b 01       		.byte	0x1
 6969 1b0c 9E010000 		.4byte	.LASF201
 6970 1b10 9E010000 		.4byte	.LASF201
 6971 1b14 08       		.byte	0x8
 6972 1b15 2D       		.byte	0x2d
 6973 1b16 0D       		.byte	0xd
 6974 1b17 51       		.uleb128 0x51
 6975 1b18 01       		.byte	0x1
 6976 1b19 01       		.byte	0x1
 6977 1b1a 446F7400 		.ascii	"Dot\000"
 6978 1b1e 446F7400 		.ascii	"Dot\000"
 6979 1b22 08       		.byte	0x8
 6980 1b23 2A       		.byte	0x2a
 6981 1b24 07       		.byte	0x7
 6982 1b25 51       		.uleb128 0x51
 6983 1b26 01       		.byte	0x1
 6984 1b27 01       		.byte	0x1
 6985 1b28 4D696E00 		.ascii	"Min\000"
 6986 1b2c 4D696E00 		.ascii	"Min\000"
 6987 1b30 08       		.byte	0x8
 6988 1b31 35       		.byte	0x35
 6989 1b32 07       		.byte	0x7
 6990 1b33 52       		.uleb128 0x52
 6991 1b34 01       		.byte	0x1
 6992 1b35 01       		.byte	0x1
 6993 1b36 64080000 		.4byte	.LASF210
 6994 1b3a F6000000 		.4byte	.LASF211
 6995 1b3e 0A       		.byte	0xa
 6996 1b3f 00       		.byte	0
 6997 1b40 50       		.uleb128 0x50
 6998 1b41 01       		.byte	0x1
 6999 1b42 01       		.byte	0x1
 7000 1b43 E0000000 		.4byte	.LASF202
 7001 1b47 E0000000 		.4byte	.LASF202
 7002 1b4b 09       		.byte	0x9
 7003 1b4c 3B       		.byte	0x3b
 7004 1b4d 05       		.byte	0x5
 7005 1b4e 53       		.uleb128 0x53
 7006 1b4f 01       		.byte	0x1
 7007 1b50 01       		.byte	0x1
 7008 1b51 F9060000 		.4byte	.LASF203
 7009 1b55 F9060000 		.4byte	.LASF203
 7010 1b59 06       		.byte	0x6
 7011 1b5a 6E01     		.2byte	0x16e
 7012 1b5c 0E       		.byte	0xe
 7013 1b5d 00       		.byte	0
 7014              		.section	.debug_abbrev,"",%progbits
 7015              	.Ldebug_abbrev0:
 7016 0000 01       		.uleb128 0x1
 7017 0001 11       		.uleb128 0x11
 7018 0002 01       		.byte	0x1
 7019 0003 25       		.uleb128 0x25
 7020 0004 0E       		.uleb128 0xe
 7021 0005 13       		.uleb128 0x13
 7022 0006 0B       		.uleb128 0xb
 7023 0007 03       		.uleb128 0x3
 7024 0008 0E       		.uleb128 0xe
ARM GAS  /tmp/ccEGVymn.s 			page 140


 7025 0009 1B       		.uleb128 0x1b
 7026 000a 0E       		.uleb128 0xe
 7027 000b 55       		.uleb128 0x55
 7028 000c 06       		.uleb128 0x6
 7029 000d 11       		.uleb128 0x11
 7030 000e 01       		.uleb128 0x1
 7031 000f 52       		.uleb128 0x52
 7032 0010 01       		.uleb128 0x1
 7033 0011 10       		.uleb128 0x10
 7034 0012 06       		.uleb128 0x6
 7035 0013 00       		.byte	0
 7036 0014 00       		.byte	0
 7037 0015 02       		.uleb128 0x2
 7038 0016 24       		.uleb128 0x24
 7039 0017 00       		.byte	0
 7040 0018 0B       		.uleb128 0xb
 7041 0019 0B       		.uleb128 0xb
 7042 001a 3E       		.uleb128 0x3e
 7043 001b 0B       		.uleb128 0xb
 7044 001c 03       		.uleb128 0x3
 7045 001d 0E       		.uleb128 0xe
 7046 001e 00       		.byte	0
 7047 001f 00       		.byte	0
 7048 0020 03       		.uleb128 0x3
 7049 0021 24       		.uleb128 0x24
 7050 0022 00       		.byte	0
 7051 0023 0B       		.uleb128 0xb
 7052 0024 0B       		.uleb128 0xb
 7053 0025 3E       		.uleb128 0x3e
 7054 0026 0B       		.uleb128 0xb
 7055 0027 03       		.uleb128 0x3
 7056 0028 08       		.uleb128 0x8
 7057 0029 00       		.byte	0
 7058 002a 00       		.byte	0
 7059 002b 04       		.uleb128 0x4
 7060 002c 0F       		.uleb128 0xf
 7061 002d 00       		.byte	0
 7062 002e 0B       		.uleb128 0xb
 7063 002f 0B       		.uleb128 0xb
 7064 0030 00       		.byte	0
 7065 0031 00       		.byte	0
 7066 0032 05       		.uleb128 0x5
 7067 0033 16       		.uleb128 0x16
 7068 0034 00       		.byte	0
 7069 0035 03       		.uleb128 0x3
 7070 0036 0E       		.uleb128 0xe
 7071 0037 3A       		.uleb128 0x3a
 7072 0038 0B       		.uleb128 0xb
 7073 0039 3B       		.uleb128 0x3b
 7074 003a 05       		.uleb128 0x5
 7075 003b 39       		.uleb128 0x39
 7076 003c 0B       		.uleb128 0xb
 7077 003d 49       		.uleb128 0x49
 7078 003e 13       		.uleb128 0x13
 7079 003f 00       		.byte	0
 7080 0040 00       		.byte	0
 7081 0041 06       		.uleb128 0x6
ARM GAS  /tmp/ccEGVymn.s 			page 141


 7082 0042 16       		.uleb128 0x16
 7083 0043 00       		.byte	0
 7084 0044 03       		.uleb128 0x3
 7085 0045 0E       		.uleb128 0xe
 7086 0046 3A       		.uleb128 0x3a
 7087 0047 0B       		.uleb128 0xb
 7088 0048 3B       		.uleb128 0x3b
 7089 0049 0B       		.uleb128 0xb
 7090 004a 39       		.uleb128 0x39
 7091 004b 0B       		.uleb128 0xb
 7092 004c 49       		.uleb128 0x49
 7093 004d 13       		.uleb128 0x13
 7094 004e 00       		.byte	0
 7095 004f 00       		.byte	0
 7096 0050 07       		.uleb128 0x7
 7097 0051 17       		.uleb128 0x17
 7098 0052 01       		.byte	0x1
 7099 0053 0B       		.uleb128 0xb
 7100 0054 0B       		.uleb128 0xb
 7101 0055 3A       		.uleb128 0x3a
 7102 0056 0B       		.uleb128 0xb
 7103 0057 3B       		.uleb128 0x3b
 7104 0058 0B       		.uleb128 0xb
 7105 0059 39       		.uleb128 0x39
 7106 005a 0B       		.uleb128 0xb
 7107 005b 01       		.uleb128 0x1
 7108 005c 13       		.uleb128 0x13
 7109 005d 00       		.byte	0
 7110 005e 00       		.byte	0
 7111 005f 08       		.uleb128 0x8
 7112 0060 0D       		.uleb128 0xd
 7113 0061 00       		.byte	0
 7114 0062 03       		.uleb128 0x3
 7115 0063 0E       		.uleb128 0xe
 7116 0064 3A       		.uleb128 0x3a
 7117 0065 0B       		.uleb128 0xb
 7118 0066 3B       		.uleb128 0x3b
 7119 0067 0B       		.uleb128 0xb
 7120 0068 39       		.uleb128 0x39
 7121 0069 0B       		.uleb128 0xb
 7122 006a 49       		.uleb128 0x49
 7123 006b 13       		.uleb128 0x13
 7124 006c 00       		.byte	0
 7125 006d 00       		.byte	0
 7126 006e 09       		.uleb128 0x9
 7127 006f 01       		.uleb128 0x1
 7128 0070 01       		.byte	0x1
 7129 0071 49       		.uleb128 0x49
 7130 0072 13       		.uleb128 0x13
 7131 0073 01       		.uleb128 0x1
 7132 0074 13       		.uleb128 0x13
 7133 0075 00       		.byte	0
 7134 0076 00       		.byte	0
 7135 0077 0A       		.uleb128 0xa
 7136 0078 21       		.uleb128 0x21
 7137 0079 00       		.byte	0
 7138 007a 49       		.uleb128 0x49
ARM GAS  /tmp/ccEGVymn.s 			page 142


 7139 007b 13       		.uleb128 0x13
 7140 007c 2F       		.uleb128 0x2f
 7141 007d 0B       		.uleb128 0xb
 7142 007e 00       		.byte	0
 7143 007f 00       		.byte	0
 7144 0080 0B       		.uleb128 0xb
 7145 0081 13       		.uleb128 0x13
 7146 0082 01       		.byte	0x1
 7147 0083 0B       		.uleb128 0xb
 7148 0084 0B       		.uleb128 0xb
 7149 0085 3A       		.uleb128 0x3a
 7150 0086 0B       		.uleb128 0xb
 7151 0087 3B       		.uleb128 0x3b
 7152 0088 0B       		.uleb128 0xb
 7153 0089 39       		.uleb128 0x39
 7154 008a 0B       		.uleb128 0xb
 7155 008b 01       		.uleb128 0x1
 7156 008c 13       		.uleb128 0x13
 7157 008d 00       		.byte	0
 7158 008e 00       		.byte	0
 7159 008f 0C       		.uleb128 0xc
 7160 0090 0D       		.uleb128 0xd
 7161 0091 00       		.byte	0
 7162 0092 03       		.uleb128 0x3
 7163 0093 0E       		.uleb128 0xe
 7164 0094 3A       		.uleb128 0x3a
 7165 0095 0B       		.uleb128 0xb
 7166 0096 3B       		.uleb128 0x3b
 7167 0097 0B       		.uleb128 0xb
 7168 0098 39       		.uleb128 0x39
 7169 0099 0B       		.uleb128 0xb
 7170 009a 49       		.uleb128 0x49
 7171 009b 13       		.uleb128 0x13
 7172 009c 38       		.uleb128 0x38
 7173 009d 0A       		.uleb128 0xa
 7174 009e 00       		.byte	0
 7175 009f 00       		.byte	0
 7176 00a0 0D       		.uleb128 0xd
 7177 00a1 13       		.uleb128 0x13
 7178 00a2 01       		.byte	0x1
 7179 00a3 03       		.uleb128 0x3
 7180 00a4 0E       		.uleb128 0xe
 7181 00a5 0B       		.uleb128 0xb
 7182 00a6 0B       		.uleb128 0xb
 7183 00a7 3A       		.uleb128 0x3a
 7184 00a8 0B       		.uleb128 0xb
 7185 00a9 3B       		.uleb128 0x3b
 7186 00aa 0B       		.uleb128 0xb
 7187 00ab 39       		.uleb128 0x39
 7188 00ac 0B       		.uleb128 0xb
 7189 00ad 01       		.uleb128 0x1
 7190 00ae 13       		.uleb128 0x13
 7191 00af 00       		.byte	0
 7192 00b0 00       		.byte	0
 7193 00b1 0E       		.uleb128 0xe
 7194 00b2 0D       		.uleb128 0xd
 7195 00b3 00       		.byte	0
ARM GAS  /tmp/ccEGVymn.s 			page 143


 7196 00b4 03       		.uleb128 0x3
 7197 00b5 08       		.uleb128 0x8
 7198 00b6 3A       		.uleb128 0x3a
 7199 00b7 0B       		.uleb128 0xb
 7200 00b8 3B       		.uleb128 0x3b
 7201 00b9 0B       		.uleb128 0xb
 7202 00ba 39       		.uleb128 0x39
 7203 00bb 0B       		.uleb128 0xb
 7204 00bc 49       		.uleb128 0x49
 7205 00bd 13       		.uleb128 0x13
 7206 00be 38       		.uleb128 0x38
 7207 00bf 0A       		.uleb128 0xa
 7208 00c0 00       		.byte	0
 7209 00c1 00       		.byte	0
 7210 00c2 0F       		.uleb128 0xf
 7211 00c3 0F       		.uleb128 0xf
 7212 00c4 00       		.byte	0
 7213 00c5 0B       		.uleb128 0xb
 7214 00c6 0B       		.uleb128 0xb
 7215 00c7 49       		.uleb128 0x49
 7216 00c8 13       		.uleb128 0x13
 7217 00c9 00       		.byte	0
 7218 00ca 00       		.byte	0
 7219 00cb 10       		.uleb128 0x10
 7220 00cc 13       		.uleb128 0x13
 7221 00cd 01       		.byte	0x1
 7222 00ce 03       		.uleb128 0x3
 7223 00cf 0E       		.uleb128 0xe
 7224 00d0 0B       		.uleb128 0xb
 7225 00d1 05       		.uleb128 0x5
 7226 00d2 3A       		.uleb128 0x3a
 7227 00d3 0B       		.uleb128 0xb
 7228 00d4 3B       		.uleb128 0x3b
 7229 00d5 0B       		.uleb128 0xb
 7230 00d6 39       		.uleb128 0x39
 7231 00d7 0B       		.uleb128 0xb
 7232 00d8 01       		.uleb128 0x1
 7233 00d9 13       		.uleb128 0x13
 7234 00da 00       		.byte	0
 7235 00db 00       		.byte	0
 7236 00dc 11       		.uleb128 0x11
 7237 00dd 15       		.uleb128 0x15
 7238 00de 00       		.byte	0
 7239 00df 27       		.uleb128 0x27
 7240 00e0 0C       		.uleb128 0xc
 7241 00e1 00       		.byte	0
 7242 00e2 00       		.byte	0
 7243 00e3 12       		.uleb128 0x12
 7244 00e4 15       		.uleb128 0x15
 7245 00e5 01       		.byte	0x1
 7246 00e6 27       		.uleb128 0x27
 7247 00e7 0C       		.uleb128 0xc
 7248 00e8 49       		.uleb128 0x49
 7249 00e9 13       		.uleb128 0x13
 7250 00ea 01       		.uleb128 0x1
 7251 00eb 13       		.uleb128 0x13
 7252 00ec 00       		.byte	0
ARM GAS  /tmp/ccEGVymn.s 			page 144


 7253 00ed 00       		.byte	0
 7254 00ee 13       		.uleb128 0x13
 7255 00ef 05       		.uleb128 0x5
 7256 00f0 00       		.byte	0
 7257 00f1 49       		.uleb128 0x49
 7258 00f2 13       		.uleb128 0x13
 7259 00f3 00       		.byte	0
 7260 00f4 00       		.byte	0
 7261 00f5 14       		.uleb128 0x14
 7262 00f6 26       		.uleb128 0x26
 7263 00f7 00       		.byte	0
 7264 00f8 49       		.uleb128 0x49
 7265 00f9 13       		.uleb128 0x13
 7266 00fa 00       		.byte	0
 7267 00fb 00       		.byte	0
 7268 00fc 15       		.uleb128 0x15
 7269 00fd 13       		.uleb128 0x13
 7270 00fe 01       		.byte	0x1
 7271 00ff 03       		.uleb128 0x3
 7272 0100 0E       		.uleb128 0xe
 7273 0101 0B       		.uleb128 0xb
 7274 0102 05       		.uleb128 0x5
 7275 0103 3A       		.uleb128 0x3a
 7276 0104 0B       		.uleb128 0xb
 7277 0105 3B       		.uleb128 0x3b
 7278 0106 05       		.uleb128 0x5
 7279 0107 39       		.uleb128 0x39
 7280 0108 0B       		.uleb128 0xb
 7281 0109 01       		.uleb128 0x1
 7282 010a 13       		.uleb128 0x13
 7283 010b 00       		.byte	0
 7284 010c 00       		.byte	0
 7285 010d 16       		.uleb128 0x16
 7286 010e 0D       		.uleb128 0xd
 7287 010f 00       		.byte	0
 7288 0110 03       		.uleb128 0x3
 7289 0111 0E       		.uleb128 0xe
 7290 0112 3A       		.uleb128 0x3a
 7291 0113 0B       		.uleb128 0xb
 7292 0114 3B       		.uleb128 0x3b
 7293 0115 05       		.uleb128 0x5
 7294 0116 39       		.uleb128 0x39
 7295 0117 0B       		.uleb128 0xb
 7296 0118 49       		.uleb128 0x49
 7297 0119 13       		.uleb128 0x13
 7298 011a 38       		.uleb128 0x38
 7299 011b 0A       		.uleb128 0xa
 7300 011c 00       		.byte	0
 7301 011d 00       		.byte	0
 7302 011e 17       		.uleb128 0x17
 7303 011f 13       		.uleb128 0x13
 7304 0120 01       		.byte	0x1
 7305 0121 03       		.uleb128 0x3
 7306 0122 0E       		.uleb128 0xe
 7307 0123 0B       		.uleb128 0xb
 7308 0124 0B       		.uleb128 0xb
 7309 0125 3A       		.uleb128 0x3a
ARM GAS  /tmp/ccEGVymn.s 			page 145


 7310 0126 0B       		.uleb128 0xb
 7311 0127 3B       		.uleb128 0x3b
 7312 0128 05       		.uleb128 0x5
 7313 0129 39       		.uleb128 0x39
 7314 012a 0B       		.uleb128 0xb
 7315 012b 01       		.uleb128 0x1
 7316 012c 13       		.uleb128 0x13
 7317 012d 00       		.byte	0
 7318 012e 00       		.byte	0
 7319 012f 18       		.uleb128 0x18
 7320 0130 13       		.uleb128 0x13
 7321 0131 01       		.byte	0x1
 7322 0132 0B       		.uleb128 0xb
 7323 0133 0B       		.uleb128 0xb
 7324 0134 3A       		.uleb128 0x3a
 7325 0135 0B       		.uleb128 0xb
 7326 0136 3B       		.uleb128 0x3b
 7327 0137 05       		.uleb128 0x5
 7328 0138 39       		.uleb128 0x39
 7329 0139 0B       		.uleb128 0xb
 7330 013a 01       		.uleb128 0x1
 7331 013b 13       		.uleb128 0x13
 7332 013c 00       		.byte	0
 7333 013d 00       		.byte	0
 7334 013e 19       		.uleb128 0x19
 7335 013f 17       		.uleb128 0x17
 7336 0140 01       		.byte	0x1
 7337 0141 0B       		.uleb128 0xb
 7338 0142 0B       		.uleb128 0xb
 7339 0143 3A       		.uleb128 0x3a
 7340 0144 0B       		.uleb128 0xb
 7341 0145 3B       		.uleb128 0x3b
 7342 0146 05       		.uleb128 0x5
 7343 0147 39       		.uleb128 0x39
 7344 0148 0B       		.uleb128 0xb
 7345 0149 01       		.uleb128 0x1
 7346 014a 13       		.uleb128 0x13
 7347 014b 00       		.byte	0
 7348 014c 00       		.byte	0
 7349 014d 1A       		.uleb128 0x1a
 7350 014e 0D       		.uleb128 0xd
 7351 014f 00       		.byte	0
 7352 0150 03       		.uleb128 0x3
 7353 0151 0E       		.uleb128 0xe
 7354 0152 3A       		.uleb128 0x3a
 7355 0153 0B       		.uleb128 0xb
 7356 0154 3B       		.uleb128 0x3b
 7357 0155 05       		.uleb128 0x5
 7358 0156 39       		.uleb128 0x39
 7359 0157 0B       		.uleb128 0xb
 7360 0158 49       		.uleb128 0x49
 7361 0159 13       		.uleb128 0x13
 7362 015a 00       		.byte	0
 7363 015b 00       		.byte	0
 7364 015c 1B       		.uleb128 0x1b
 7365 015d 13       		.uleb128 0x13
 7366 015e 00       		.byte	0
ARM GAS  /tmp/ccEGVymn.s 			page 146


 7367 015f 03       		.uleb128 0x3
 7368 0160 0E       		.uleb128 0xe
 7369 0161 3C       		.uleb128 0x3c
 7370 0162 0C       		.uleb128 0xc
 7371 0163 00       		.byte	0
 7372 0164 00       		.byte	0
 7373 0165 1C       		.uleb128 0x1c
 7374 0166 15       		.uleb128 0x15
 7375 0167 01       		.byte	0x1
 7376 0168 27       		.uleb128 0x27
 7377 0169 0C       		.uleb128 0xc
 7378 016a 01       		.uleb128 0x1
 7379 016b 13       		.uleb128 0x13
 7380 016c 00       		.byte	0
 7381 016d 00       		.byte	0
 7382 016e 1D       		.uleb128 0x1d
 7383 016f 34       		.uleb128 0x34
 7384 0170 00       		.byte	0
 7385 0171 03       		.uleb128 0x3
 7386 0172 0E       		.uleb128 0xe
 7387 0173 3A       		.uleb128 0x3a
 7388 0174 0B       		.uleb128 0xb
 7389 0175 3B       		.uleb128 0x3b
 7390 0176 05       		.uleb128 0x5
 7391 0177 39       		.uleb128 0x39
 7392 0178 0B       		.uleb128 0xb
 7393 0179 49       		.uleb128 0x49
 7394 017a 13       		.uleb128 0x13
 7395 017b 3F       		.uleb128 0x3f
 7396 017c 0C       		.uleb128 0xc
 7397 017d 3C       		.uleb128 0x3c
 7398 017e 0C       		.uleb128 0xc
 7399 017f 00       		.byte	0
 7400 0180 00       		.byte	0
 7401 0181 1E       		.uleb128 0x1e
 7402 0182 04       		.uleb128 0x4
 7403 0183 01       		.byte	0x1
 7404 0184 03       		.uleb128 0x3
 7405 0185 0E       		.uleb128 0xe
 7406 0186 3E       		.uleb128 0x3e
 7407 0187 0B       		.uleb128 0xb
 7408 0188 0B       		.uleb128 0xb
 7409 0189 0B       		.uleb128 0xb
 7410 018a 49       		.uleb128 0x49
 7411 018b 13       		.uleb128 0x13
 7412 018c 3A       		.uleb128 0x3a
 7413 018d 0B       		.uleb128 0xb
 7414 018e 3B       		.uleb128 0x3b
 7415 018f 05       		.uleb128 0x5
 7416 0190 39       		.uleb128 0x39
 7417 0191 0B       		.uleb128 0xb
 7418 0192 01       		.uleb128 0x1
 7419 0193 13       		.uleb128 0x13
 7420 0194 00       		.byte	0
 7421 0195 00       		.byte	0
 7422 0196 1F       		.uleb128 0x1f
 7423 0197 28       		.uleb128 0x28
ARM GAS  /tmp/ccEGVymn.s 			page 147


 7424 0198 00       		.byte	0
 7425 0199 03       		.uleb128 0x3
 7426 019a 0E       		.uleb128 0xe
 7427 019b 1C       		.uleb128 0x1c
 7428 019c 0D       		.uleb128 0xd
 7429 019d 00       		.byte	0
 7430 019e 00       		.byte	0
 7431 019f 20       		.uleb128 0x20
 7432 01a0 28       		.uleb128 0x28
 7433 01a1 00       		.byte	0
 7434 01a2 03       		.uleb128 0x3
 7435 01a3 0E       		.uleb128 0xe
 7436 01a4 1C       		.uleb128 0x1c
 7437 01a5 0B       		.uleb128 0xb
 7438 01a6 00       		.byte	0
 7439 01a7 00       		.byte	0
 7440 01a8 21       		.uleb128 0x21
 7441 01a9 34       		.uleb128 0x34
 7442 01aa 00       		.byte	0
 7443 01ab 03       		.uleb128 0x3
 7444 01ac 0E       		.uleb128 0xe
 7445 01ad 3A       		.uleb128 0x3a
 7446 01ae 0B       		.uleb128 0xb
 7447 01af 3B       		.uleb128 0x3b
 7448 01b0 0B       		.uleb128 0xb
 7449 01b1 39       		.uleb128 0x39
 7450 01b2 0B       		.uleb128 0xb
 7451 01b3 49       		.uleb128 0x49
 7452 01b4 13       		.uleb128 0x13
 7453 01b5 3F       		.uleb128 0x3f
 7454 01b6 0C       		.uleb128 0xc
 7455 01b7 3C       		.uleb128 0x3c
 7456 01b8 0C       		.uleb128 0xc
 7457 01b9 00       		.byte	0
 7458 01ba 00       		.byte	0
 7459 01bb 22       		.uleb128 0x22
 7460 01bc 17       		.uleb128 0x17
 7461 01bd 01       		.byte	0x1
 7462 01be 03       		.uleb128 0x3
 7463 01bf 0E       		.uleb128 0xe
 7464 01c0 0B       		.uleb128 0xb
 7465 01c1 0B       		.uleb128 0xb
 7466 01c2 3A       		.uleb128 0x3a
 7467 01c3 0B       		.uleb128 0xb
 7468 01c4 3B       		.uleb128 0x3b
 7469 01c5 0B       		.uleb128 0xb
 7470 01c6 39       		.uleb128 0x39
 7471 01c7 0B       		.uleb128 0xb
 7472 01c8 01       		.uleb128 0x1
 7473 01c9 13       		.uleb128 0x13
 7474 01ca 00       		.byte	0
 7475 01cb 00       		.byte	0
 7476 01cc 23       		.uleb128 0x23
 7477 01cd 0D       		.uleb128 0xd
 7478 01ce 00       		.byte	0
 7479 01cf 03       		.uleb128 0x3
 7480 01d0 08       		.uleb128 0x8
ARM GAS  /tmp/ccEGVymn.s 			page 148


 7481 01d1 3A       		.uleb128 0x3a
 7482 01d2 0B       		.uleb128 0xb
 7483 01d3 3B       		.uleb128 0x3b
 7484 01d4 0B       		.uleb128 0xb
 7485 01d5 39       		.uleb128 0x39
 7486 01d6 0B       		.uleb128 0xb
 7487 01d7 49       		.uleb128 0x49
 7488 01d8 13       		.uleb128 0x13
 7489 01d9 00       		.byte	0
 7490 01da 00       		.byte	0
 7491 01db 24       		.uleb128 0x24
 7492 01dc 34       		.uleb128 0x34
 7493 01dd 00       		.byte	0
 7494 01de 03       		.uleb128 0x3
 7495 01df 0E       		.uleb128 0xe
 7496 01e0 3A       		.uleb128 0x3a
 7497 01e1 0B       		.uleb128 0xb
 7498 01e2 3B       		.uleb128 0x3b
 7499 01e3 0B       		.uleb128 0xb
 7500 01e4 39       		.uleb128 0x39
 7501 01e5 0B       		.uleb128 0xb
 7502 01e6 49       		.uleb128 0x49
 7503 01e7 13       		.uleb128 0x13
 7504 01e8 3F       		.uleb128 0x3f
 7505 01e9 0C       		.uleb128 0xc
 7506 01ea 02       		.uleb128 0x2
 7507 01eb 0A       		.uleb128 0xa
 7508 01ec 00       		.byte	0
 7509 01ed 00       		.byte	0
 7510 01ee 25       		.uleb128 0x25
 7511 01ef 2E       		.uleb128 0x2e
 7512 01f0 01       		.byte	0x1
 7513 01f1 3F       		.uleb128 0x3f
 7514 01f2 0C       		.uleb128 0xc
 7515 01f3 03       		.uleb128 0x3
 7516 01f4 0E       		.uleb128 0xe
 7517 01f5 3A       		.uleb128 0x3a
 7518 01f6 0B       		.uleb128 0xb
 7519 01f7 3B       		.uleb128 0x3b
 7520 01f8 05       		.uleb128 0x5
 7521 01f9 39       		.uleb128 0x39
 7522 01fa 0B       		.uleb128 0xb
 7523 01fb 27       		.uleb128 0x27
 7524 01fc 0C       		.uleb128 0xc
 7525 01fd 49       		.uleb128 0x49
 7526 01fe 13       		.uleb128 0x13
 7527 01ff 11       		.uleb128 0x11
 7528 0200 01       		.uleb128 0x1
 7529 0201 12       		.uleb128 0x12
 7530 0202 01       		.uleb128 0x1
 7531 0203 40       		.uleb128 0x40
 7532 0204 0A       		.uleb128 0xa
 7533 0205 9742     		.uleb128 0x2117
 7534 0207 0C       		.uleb128 0xc
 7535 0208 01       		.uleb128 0x1
 7536 0209 13       		.uleb128 0x13
 7537 020a 00       		.byte	0
ARM GAS  /tmp/ccEGVymn.s 			page 149


 7538 020b 00       		.byte	0
 7539 020c 26       		.uleb128 0x26
 7540 020d 05       		.uleb128 0x5
 7541 020e 00       		.byte	0
 7542 020f 03       		.uleb128 0x3
 7543 0210 08       		.uleb128 0x8
 7544 0211 3A       		.uleb128 0x3a
 7545 0212 0B       		.uleb128 0xb
 7546 0213 3B       		.uleb128 0x3b
 7547 0214 05       		.uleb128 0x5
 7548 0215 39       		.uleb128 0x39
 7549 0216 0B       		.uleb128 0xb
 7550 0217 49       		.uleb128 0x49
 7551 0218 13       		.uleb128 0x13
 7552 0219 02       		.uleb128 0x2
 7553 021a 06       		.uleb128 0x6
 7554 021b B742     		.uleb128 0x2137
 7555 021d 06       		.uleb128 0x6
 7556 021e 00       		.byte	0
 7557 021f 00       		.byte	0
 7558 0220 27       		.uleb128 0x27
 7559 0221 2E       		.uleb128 0x2e
 7560 0222 01       		.byte	0x1
 7561 0223 3F       		.uleb128 0x3f
 7562 0224 0C       		.uleb128 0xc
 7563 0225 03       		.uleb128 0x3
 7564 0226 0E       		.uleb128 0xe
 7565 0227 3A       		.uleb128 0x3a
 7566 0228 0B       		.uleb128 0xb
 7567 0229 3B       		.uleb128 0x3b
 7568 022a 05       		.uleb128 0x5
 7569 022b 39       		.uleb128 0x39
 7570 022c 0B       		.uleb128 0xb
 7571 022d 27       		.uleb128 0x27
 7572 022e 0C       		.uleb128 0xc
 7573 022f 11       		.uleb128 0x11
 7574 0230 01       		.uleb128 0x1
 7575 0231 12       		.uleb128 0x12
 7576 0232 01       		.uleb128 0x1
 7577 0233 40       		.uleb128 0x40
 7578 0234 06       		.uleb128 0x6
 7579 0235 9742     		.uleb128 0x2117
 7580 0237 0C       		.uleb128 0xc
 7581 0238 01       		.uleb128 0x1
 7582 0239 13       		.uleb128 0x13
 7583 023a 00       		.byte	0
 7584 023b 00       		.byte	0
 7585 023c 28       		.uleb128 0x28
 7586 023d 05       		.uleb128 0x5
 7587 023e 00       		.byte	0
 7588 023f 03       		.uleb128 0x3
 7589 0240 08       		.uleb128 0x8
 7590 0241 3A       		.uleb128 0x3a
 7591 0242 0B       		.uleb128 0xb
 7592 0243 3B       		.uleb128 0x3b
 7593 0244 05       		.uleb128 0x5
 7594 0245 39       		.uleb128 0x39
ARM GAS  /tmp/ccEGVymn.s 			page 150


 7595 0246 0B       		.uleb128 0xb
 7596 0247 49       		.uleb128 0x49
 7597 0248 13       		.uleb128 0x13
 7598 0249 02       		.uleb128 0x2
 7599 024a 0A       		.uleb128 0xa
 7600 024b 00       		.byte	0
 7601 024c 00       		.byte	0
 7602 024d 29       		.uleb128 0x29
 7603 024e 34       		.uleb128 0x34
 7604 024f 00       		.byte	0
 7605 0250 03       		.uleb128 0x3
 7606 0251 0E       		.uleb128 0xe
 7607 0252 3A       		.uleb128 0x3a
 7608 0253 0B       		.uleb128 0xb
 7609 0254 3B       		.uleb128 0x3b
 7610 0255 05       		.uleb128 0x5
 7611 0256 39       		.uleb128 0x39
 7612 0257 0B       		.uleb128 0xb
 7613 0258 49       		.uleb128 0x49
 7614 0259 13       		.uleb128 0x13
 7615 025a 02       		.uleb128 0x2
 7616 025b 06       		.uleb128 0x6
 7617 025c B742     		.uleb128 0x2137
 7618 025e 06       		.uleb128 0x6
 7619 025f 00       		.byte	0
 7620 0260 00       		.byte	0
 7621 0261 2A       		.uleb128 0x2a
 7622 0262 0B       		.uleb128 0xb
 7623 0263 01       		.byte	0x1
 7624 0264 55       		.uleb128 0x55
 7625 0265 06       		.uleb128 0x6
 7626 0266 01       		.uleb128 0x1
 7627 0267 13       		.uleb128 0x13
 7628 0268 00       		.byte	0
 7629 0269 00       		.byte	0
 7630 026a 2B       		.uleb128 0x2b
 7631 026b 34       		.uleb128 0x34
 7632 026c 00       		.byte	0
 7633 026d 03       		.uleb128 0x3
 7634 026e 08       		.uleb128 0x8
 7635 026f 3A       		.uleb128 0x3a
 7636 0270 0B       		.uleb128 0xb
 7637 0271 3B       		.uleb128 0x3b
 7638 0272 05       		.uleb128 0x5
 7639 0273 39       		.uleb128 0x39
 7640 0274 0B       		.uleb128 0xb
 7641 0275 49       		.uleb128 0x49
 7642 0276 13       		.uleb128 0x13
 7643 0277 02       		.uleb128 0x2
 7644 0278 06       		.uleb128 0x6
 7645 0279 B742     		.uleb128 0x2137
 7646 027b 06       		.uleb128 0x6
 7647 027c 00       		.byte	0
 7648 027d 00       		.byte	0
 7649 027e 2C       		.uleb128 0x2c
 7650 027f 0B       		.uleb128 0xb
 7651 0280 01       		.byte	0x1
ARM GAS  /tmp/ccEGVymn.s 			page 151


 7652 0281 55       		.uleb128 0x55
 7653 0282 06       		.uleb128 0x6
 7654 0283 00       		.byte	0
 7655 0284 00       		.byte	0
 7656 0285 2D       		.uleb128 0x2d
 7657 0286 898201   		.uleb128 0x4109
 7658 0289 00       		.byte	0
 7659 028a 11       		.uleb128 0x11
 7660 028b 01       		.uleb128 0x1
 7661 028c 31       		.uleb128 0x31
 7662 028d 13       		.uleb128 0x13
 7663 028e 00       		.byte	0
 7664 028f 00       		.byte	0
 7665 0290 2E       		.uleb128 0x2e
 7666 0291 898201   		.uleb128 0x4109
 7667 0294 01       		.byte	0x1
 7668 0295 11       		.uleb128 0x11
 7669 0296 01       		.uleb128 0x1
 7670 0297 31       		.uleb128 0x31
 7671 0298 13       		.uleb128 0x13
 7672 0299 01       		.uleb128 0x1
 7673 029a 13       		.uleb128 0x13
 7674 029b 00       		.byte	0
 7675 029c 00       		.byte	0
 7676 029d 2F       		.uleb128 0x2f
 7677 029e 8A8201   		.uleb128 0x410a
 7678 02a1 00       		.byte	0
 7679 02a2 02       		.uleb128 0x2
 7680 02a3 0A       		.uleb128 0xa
 7681 02a4 9142     		.uleb128 0x2111
 7682 02a6 0A       		.uleb128 0xa
 7683 02a7 00       		.byte	0
 7684 02a8 00       		.byte	0
 7685 02a9 30       		.uleb128 0x30
 7686 02aa 898201   		.uleb128 0x4109
 7687 02ad 01       		.byte	0x1
 7688 02ae 11       		.uleb128 0x11
 7689 02af 01       		.uleb128 0x1
 7690 02b0 31       		.uleb128 0x31
 7691 02b1 13       		.uleb128 0x13
 7692 02b2 00       		.byte	0
 7693 02b3 00       		.byte	0
 7694 02b4 31       		.uleb128 0x31
 7695 02b5 0B       		.uleb128 0xb
 7696 02b6 01       		.byte	0x1
 7697 02b7 11       		.uleb128 0x11
 7698 02b8 01       		.uleb128 0x1
 7699 02b9 12       		.uleb128 0x12
 7700 02ba 01       		.uleb128 0x1
 7701 02bb 01       		.uleb128 0x1
 7702 02bc 13       		.uleb128 0x13
 7703 02bd 00       		.byte	0
 7704 02be 00       		.byte	0
 7705 02bf 32       		.uleb128 0x32
 7706 02c0 0B       		.uleb128 0xb
 7707 02c1 01       		.byte	0x1
 7708 02c2 11       		.uleb128 0x11
ARM GAS  /tmp/ccEGVymn.s 			page 152


 7709 02c3 01       		.uleb128 0x1
 7710 02c4 12       		.uleb128 0x12
 7711 02c5 01       		.uleb128 0x1
 7712 02c6 00       		.byte	0
 7713 02c7 00       		.byte	0
 7714 02c8 33       		.uleb128 0x33
 7715 02c9 2E       		.uleb128 0x2e
 7716 02ca 01       		.byte	0x1
 7717 02cb 3F       		.uleb128 0x3f
 7718 02cc 0C       		.uleb128 0xc
 7719 02cd 03       		.uleb128 0x3
 7720 02ce 0E       		.uleb128 0xe
 7721 02cf 3A       		.uleb128 0x3a
 7722 02d0 0B       		.uleb128 0xb
 7723 02d1 3B       		.uleb128 0x3b
 7724 02d2 0B       		.uleb128 0xb
 7725 02d3 39       		.uleb128 0x39
 7726 02d4 0B       		.uleb128 0xb
 7727 02d5 27       		.uleb128 0x27
 7728 02d6 0C       		.uleb128 0xc
 7729 02d7 11       		.uleb128 0x11
 7730 02d8 01       		.uleb128 0x1
 7731 02d9 12       		.uleb128 0x12
 7732 02da 01       		.uleb128 0x1
 7733 02db 40       		.uleb128 0x40
 7734 02dc 06       		.uleb128 0x6
 7735 02dd 9742     		.uleb128 0x2117
 7736 02df 0C       		.uleb128 0xc
 7737 02e0 01       		.uleb128 0x1
 7738 02e1 13       		.uleb128 0x13
 7739 02e2 00       		.byte	0
 7740 02e3 00       		.byte	0
 7741 02e4 34       		.uleb128 0x34
 7742 02e5 05       		.uleb128 0x5
 7743 02e6 00       		.byte	0
 7744 02e7 03       		.uleb128 0x3
 7745 02e8 08       		.uleb128 0x8
 7746 02e9 3A       		.uleb128 0x3a
 7747 02ea 0B       		.uleb128 0xb
 7748 02eb 3B       		.uleb128 0x3b
 7749 02ec 0B       		.uleb128 0xb
 7750 02ed 39       		.uleb128 0x39
 7751 02ee 0B       		.uleb128 0xb
 7752 02ef 49       		.uleb128 0x49
 7753 02f0 13       		.uleb128 0x13
 7754 02f1 02       		.uleb128 0x2
 7755 02f2 06       		.uleb128 0x6
 7756 02f3 B742     		.uleb128 0x2137
 7757 02f5 06       		.uleb128 0x6
 7758 02f6 00       		.byte	0
 7759 02f7 00       		.byte	0
 7760 02f8 35       		.uleb128 0x35
 7761 02f9 34       		.uleb128 0x34
 7762 02fa 00       		.byte	0
 7763 02fb 03       		.uleb128 0x3
 7764 02fc 08       		.uleb128 0x8
 7765 02fd 3A       		.uleb128 0x3a
ARM GAS  /tmp/ccEGVymn.s 			page 153


 7766 02fe 0B       		.uleb128 0xb
 7767 02ff 3B       		.uleb128 0x3b
 7768 0300 0B       		.uleb128 0xb
 7769 0301 39       		.uleb128 0x39
 7770 0302 0B       		.uleb128 0xb
 7771 0303 49       		.uleb128 0x49
 7772 0304 13       		.uleb128 0x13
 7773 0305 02       		.uleb128 0x2
 7774 0306 06       		.uleb128 0x6
 7775 0307 B742     		.uleb128 0x2137
 7776 0309 06       		.uleb128 0x6
 7777 030a 00       		.byte	0
 7778 030b 00       		.byte	0
 7779 030c 36       		.uleb128 0x36
 7780 030d 34       		.uleb128 0x34
 7781 030e 00       		.byte	0
 7782 030f 03       		.uleb128 0x3
 7783 0310 08       		.uleb128 0x8
 7784 0311 3A       		.uleb128 0x3a
 7785 0312 0B       		.uleb128 0xb
 7786 0313 3B       		.uleb128 0x3b
 7787 0314 05       		.uleb128 0x5
 7788 0315 39       		.uleb128 0x39
 7789 0316 0B       		.uleb128 0xb
 7790 0317 49       		.uleb128 0x49
 7791 0318 13       		.uleb128 0x13
 7792 0319 02       		.uleb128 0x2
 7793 031a 0A       		.uleb128 0xa
 7794 031b 00       		.byte	0
 7795 031c 00       		.byte	0
 7796 031d 37       		.uleb128 0x37
 7797 031e 34       		.uleb128 0x34
 7798 031f 00       		.byte	0
 7799 0320 03       		.uleb128 0x3
 7800 0321 0E       		.uleb128 0xe
 7801 0322 3A       		.uleb128 0x3a
 7802 0323 0B       		.uleb128 0xb
 7803 0324 3B       		.uleb128 0x3b
 7804 0325 05       		.uleb128 0x5
 7805 0326 39       		.uleb128 0x39
 7806 0327 0B       		.uleb128 0xb
 7807 0328 49       		.uleb128 0x49
 7808 0329 13       		.uleb128 0x13
 7809 032a 02       		.uleb128 0x2
 7810 032b 0A       		.uleb128 0xa
 7811 032c 00       		.byte	0
 7812 032d 00       		.byte	0
 7813 032e 38       		.uleb128 0x38
 7814 032f 05       		.uleb128 0x5
 7815 0330 00       		.byte	0
 7816 0331 03       		.uleb128 0x3
 7817 0332 0E       		.uleb128 0xe
 7818 0333 3A       		.uleb128 0x3a
 7819 0334 0B       		.uleb128 0xb
 7820 0335 3B       		.uleb128 0x3b
 7821 0336 0B       		.uleb128 0xb
 7822 0337 39       		.uleb128 0x39
ARM GAS  /tmp/ccEGVymn.s 			page 154


 7823 0338 0B       		.uleb128 0xb
 7824 0339 49       		.uleb128 0x49
 7825 033a 13       		.uleb128 0x13
 7826 033b 02       		.uleb128 0x2
 7827 033c 06       		.uleb128 0x6
 7828 033d B742     		.uleb128 0x2137
 7829 033f 06       		.uleb128 0x6
 7830 0340 00       		.byte	0
 7831 0341 00       		.byte	0
 7832 0342 39       		.uleb128 0x39
 7833 0343 34       		.uleb128 0x34
 7834 0344 00       		.byte	0
 7835 0345 03       		.uleb128 0x3
 7836 0346 0E       		.uleb128 0xe
 7837 0347 3A       		.uleb128 0x3a
 7838 0348 0B       		.uleb128 0xb
 7839 0349 3B       		.uleb128 0x3b
 7840 034a 0B       		.uleb128 0xb
 7841 034b 39       		.uleb128 0x39
 7842 034c 0B       		.uleb128 0xb
 7843 034d 49       		.uleb128 0x49
 7844 034e 13       		.uleb128 0x13
 7845 034f 1C       		.uleb128 0x1c
 7846 0350 0A       		.uleb128 0xa
 7847 0351 00       		.byte	0
 7848 0352 00       		.byte	0
 7849 0353 3A       		.uleb128 0x3a
 7850 0354 34       		.uleb128 0x34
 7851 0355 00       		.byte	0
 7852 0356 03       		.uleb128 0x3
 7853 0357 0E       		.uleb128 0xe
 7854 0358 3A       		.uleb128 0x3a
 7855 0359 0B       		.uleb128 0xb
 7856 035a 3B       		.uleb128 0x3b
 7857 035b 0B       		.uleb128 0xb
 7858 035c 39       		.uleb128 0x39
 7859 035d 0B       		.uleb128 0xb
 7860 035e 49       		.uleb128 0x49
 7861 035f 13       		.uleb128 0x13
 7862 0360 02       		.uleb128 0x2
 7863 0361 06       		.uleb128 0x6
 7864 0362 B742     		.uleb128 0x2137
 7865 0364 06       		.uleb128 0x6
 7866 0365 00       		.byte	0
 7867 0366 00       		.byte	0
 7868 0367 3B       		.uleb128 0x3b
 7869 0368 34       		.uleb128 0x34
 7870 0369 00       		.byte	0
 7871 036a 03       		.uleb128 0x3
 7872 036b 08       		.uleb128 0x8
 7873 036c 3A       		.uleb128 0x3a
 7874 036d 0B       		.uleb128 0xb
 7875 036e 3B       		.uleb128 0x3b
 7876 036f 0B       		.uleb128 0xb
 7877 0370 39       		.uleb128 0x39
 7878 0371 0B       		.uleb128 0xb
 7879 0372 49       		.uleb128 0x49
ARM GAS  /tmp/ccEGVymn.s 			page 155


 7880 0373 13       		.uleb128 0x13
 7881 0374 02       		.uleb128 0x2
 7882 0375 0A       		.uleb128 0xa
 7883 0376 00       		.byte	0
 7884 0377 00       		.byte	0
 7885 0378 3C       		.uleb128 0x3c
 7886 0379 34       		.uleb128 0x34
 7887 037a 00       		.byte	0
 7888 037b 03       		.uleb128 0x3
 7889 037c 0E       		.uleb128 0xe
 7890 037d 3A       		.uleb128 0x3a
 7891 037e 0B       		.uleb128 0xb
 7892 037f 3B       		.uleb128 0x3b
 7893 0380 0B       		.uleb128 0xb
 7894 0381 39       		.uleb128 0x39
 7895 0382 0B       		.uleb128 0xb
 7896 0383 49       		.uleb128 0x49
 7897 0384 13       		.uleb128 0x13
 7898 0385 02       		.uleb128 0x2
 7899 0386 0A       		.uleb128 0xa
 7900 0387 00       		.byte	0
 7901 0388 00       		.byte	0
 7902 0389 3D       		.uleb128 0x3d
 7903 038a 2E       		.uleb128 0x2e
 7904 038b 01       		.byte	0x1
 7905 038c 3F       		.uleb128 0x3f
 7906 038d 0C       		.uleb128 0xc
 7907 038e 03       		.uleb128 0x3
 7908 038f 0E       		.uleb128 0xe
 7909 0390 3A       		.uleb128 0x3a
 7910 0391 0B       		.uleb128 0xb
 7911 0392 3B       		.uleb128 0x3b
 7912 0393 0B       		.uleb128 0xb
 7913 0394 39       		.uleb128 0x39
 7914 0395 0B       		.uleb128 0xb
 7915 0396 11       		.uleb128 0x11
 7916 0397 01       		.uleb128 0x1
 7917 0398 12       		.uleb128 0x12
 7918 0399 01       		.uleb128 0x1
 7919 039a 40       		.uleb128 0x40
 7920 039b 06       		.uleb128 0x6
 7921 039c 9742     		.uleb128 0x2117
 7922 039e 0C       		.uleb128 0xc
 7923 039f 01       		.uleb128 0x1
 7924 03a0 13       		.uleb128 0x13
 7925 03a1 00       		.byte	0
 7926 03a2 00       		.byte	0
 7927 03a3 3E       		.uleb128 0x3e
 7928 03a4 1D       		.uleb128 0x1d
 7929 03a5 01       		.byte	0x1
 7930 03a6 31       		.uleb128 0x31
 7931 03a7 13       		.uleb128 0x13
 7932 03a8 55       		.uleb128 0x55
 7933 03a9 06       		.uleb128 0x6
 7934 03aa 58       		.uleb128 0x58
 7935 03ab 0B       		.uleb128 0xb
 7936 03ac 59       		.uleb128 0x59
ARM GAS  /tmp/ccEGVymn.s 			page 156


 7937 03ad 0B       		.uleb128 0xb
 7938 03ae 57       		.uleb128 0x57
 7939 03af 0B       		.uleb128 0xb
 7940 03b0 01       		.uleb128 0x1
 7941 03b1 13       		.uleb128 0x13
 7942 03b2 00       		.byte	0
 7943 03b3 00       		.byte	0
 7944 03b4 3F       		.uleb128 0x3f
 7945 03b5 05       		.uleb128 0x5
 7946 03b6 00       		.byte	0
 7947 03b7 31       		.uleb128 0x31
 7948 03b8 13       		.uleb128 0x13
 7949 03b9 00       		.byte	0
 7950 03ba 00       		.byte	0
 7951 03bb 40       		.uleb128 0x40
 7952 03bc 0B       		.uleb128 0xb
 7953 03bd 01       		.byte	0x1
 7954 03be 31       		.uleb128 0x31
 7955 03bf 13       		.uleb128 0x13
 7956 03c0 55       		.uleb128 0x55
 7957 03c1 06       		.uleb128 0x6
 7958 03c2 00       		.byte	0
 7959 03c3 00       		.byte	0
 7960 03c4 41       		.uleb128 0x41
 7961 03c5 34       		.uleb128 0x34
 7962 03c6 00       		.byte	0
 7963 03c7 31       		.uleb128 0x31
 7964 03c8 13       		.uleb128 0x13
 7965 03c9 02       		.uleb128 0x2
 7966 03ca 06       		.uleb128 0x6
 7967 03cb B742     		.uleb128 0x2137
 7968 03cd 06       		.uleb128 0x6
 7969 03ce 00       		.byte	0
 7970 03cf 00       		.byte	0
 7971 03d0 42       		.uleb128 0x42
 7972 03d1 1D       		.uleb128 0x1d
 7973 03d2 01       		.byte	0x1
 7974 03d3 31       		.uleb128 0x31
 7975 03d4 13       		.uleb128 0x13
 7976 03d5 52       		.uleb128 0x52
 7977 03d6 01       		.uleb128 0x1
 7978 03d7 B842     		.uleb128 0x2138
 7979 03d9 0B       		.uleb128 0xb
 7980 03da 55       		.uleb128 0x55
 7981 03db 06       		.uleb128 0x6
 7982 03dc 58       		.uleb128 0x58
 7983 03dd 0B       		.uleb128 0xb
 7984 03de 59       		.uleb128 0x59
 7985 03df 0B       		.uleb128 0xb
 7986 03e0 57       		.uleb128 0x57
 7987 03e1 0B       		.uleb128 0xb
 7988 03e2 01       		.uleb128 0x1
 7989 03e3 13       		.uleb128 0x13
 7990 03e4 00       		.byte	0
 7991 03e5 00       		.byte	0
 7992 03e6 43       		.uleb128 0x43
 7993 03e7 05       		.uleb128 0x5
ARM GAS  /tmp/ccEGVymn.s 			page 157


 7994 03e8 00       		.byte	0
 7995 03e9 31       		.uleb128 0x31
 7996 03ea 13       		.uleb128 0x13
 7997 03eb 02       		.uleb128 0x2
 7998 03ec 0A       		.uleb128 0xa
 7999 03ed 00       		.byte	0
 8000 03ee 00       		.byte	0
 8001 03ef 44       		.uleb128 0x44
 8002 03f0 05       		.uleb128 0x5
 8003 03f1 00       		.byte	0
 8004 03f2 31       		.uleb128 0x31
 8005 03f3 13       		.uleb128 0x13
 8006 03f4 02       		.uleb128 0x2
 8007 03f5 06       		.uleb128 0x6
 8008 03f6 B742     		.uleb128 0x2137
 8009 03f8 06       		.uleb128 0x6
 8010 03f9 00       		.byte	0
 8011 03fa 00       		.byte	0
 8012 03fb 45       		.uleb128 0x45
 8013 03fc 1D       		.uleb128 0x1d
 8014 03fd 01       		.byte	0x1
 8015 03fe 31       		.uleb128 0x31
 8016 03ff 13       		.uleb128 0x13
 8017 0400 52       		.uleb128 0x52
 8018 0401 01       		.uleb128 0x1
 8019 0402 B842     		.uleb128 0x2138
 8020 0404 0B       		.uleb128 0xb
 8021 0405 11       		.uleb128 0x11
 8022 0406 01       		.uleb128 0x1
 8023 0407 12       		.uleb128 0x12
 8024 0408 01       		.uleb128 0x1
 8025 0409 58       		.uleb128 0x58
 8026 040a 0B       		.uleb128 0xb
 8027 040b 59       		.uleb128 0x59
 8028 040c 0B       		.uleb128 0xb
 8029 040d 57       		.uleb128 0x57
 8030 040e 0B       		.uleb128 0xb
 8031 040f 01       		.uleb128 0x1
 8032 0410 13       		.uleb128 0x13
 8033 0411 00       		.byte	0
 8034 0412 00       		.byte	0
 8035 0413 46       		.uleb128 0x46
 8036 0414 34       		.uleb128 0x34
 8037 0415 00       		.byte	0
 8038 0416 03       		.uleb128 0x3
 8039 0417 08       		.uleb128 0x8
 8040 0418 3A       		.uleb128 0x3a
 8041 0419 0B       		.uleb128 0xb
 8042 041a 3B       		.uleb128 0x3b
 8043 041b 0B       		.uleb128 0xb
 8044 041c 39       		.uleb128 0x39
 8045 041d 0B       		.uleb128 0xb
 8046 041e 49       		.uleb128 0x49
 8047 041f 13       		.uleb128 0x13
 8048 0420 00       		.byte	0
 8049 0421 00       		.byte	0
 8050 0422 47       		.uleb128 0x47
ARM GAS  /tmp/ccEGVymn.s 			page 158


 8051 0423 1D       		.uleb128 0x1d
 8052 0424 01       		.byte	0x1
 8053 0425 31       		.uleb128 0x31
 8054 0426 13       		.uleb128 0x13
 8055 0427 52       		.uleb128 0x52
 8056 0428 01       		.uleb128 0x1
 8057 0429 B842     		.uleb128 0x2138
 8058 042b 0B       		.uleb128 0xb
 8059 042c 11       		.uleb128 0x11
 8060 042d 01       		.uleb128 0x1
 8061 042e 12       		.uleb128 0x12
 8062 042f 01       		.uleb128 0x1
 8063 0430 58       		.uleb128 0x58
 8064 0431 0B       		.uleb128 0xb
 8065 0432 59       		.uleb128 0x59
 8066 0433 0B       		.uleb128 0xb
 8067 0434 57       		.uleb128 0x57
 8068 0435 0B       		.uleb128 0xb
 8069 0436 00       		.byte	0
 8070 0437 00       		.byte	0
 8071 0438 48       		.uleb128 0x48
 8072 0439 2E       		.uleb128 0x2e
 8073 043a 01       		.byte	0x1
 8074 043b 3F       		.uleb128 0x3f
 8075 043c 0C       		.uleb128 0xc
 8076 043d 03       		.uleb128 0x3
 8077 043e 0E       		.uleb128 0xe
 8078 043f 3A       		.uleb128 0x3a
 8079 0440 0B       		.uleb128 0xb
 8080 0441 3B       		.uleb128 0x3b
 8081 0442 0B       		.uleb128 0xb
 8082 0443 39       		.uleb128 0x39
 8083 0444 0B       		.uleb128 0xb
 8084 0445 27       		.uleb128 0x27
 8085 0446 0C       		.uleb128 0xc
 8086 0447 20       		.uleb128 0x20
 8087 0448 0B       		.uleb128 0xb
 8088 0449 01       		.uleb128 0x1
 8089 044a 13       		.uleb128 0x13
 8090 044b 00       		.byte	0
 8091 044c 00       		.byte	0
 8092 044d 49       		.uleb128 0x49
 8093 044e 05       		.uleb128 0x5
 8094 044f 00       		.byte	0
 8095 0450 03       		.uleb128 0x3
 8096 0451 08       		.uleb128 0x8
 8097 0452 3A       		.uleb128 0x3a
 8098 0453 0B       		.uleb128 0xb
 8099 0454 3B       		.uleb128 0x3b
 8100 0455 0B       		.uleb128 0xb
 8101 0456 39       		.uleb128 0x39
 8102 0457 0B       		.uleb128 0xb
 8103 0458 49       		.uleb128 0x49
 8104 0459 13       		.uleb128 0x13
 8105 045a 00       		.byte	0
 8106 045b 00       		.byte	0
 8107 045c 4A       		.uleb128 0x4a
ARM GAS  /tmp/ccEGVymn.s 			page 159


 8108 045d 05       		.uleb128 0x5
 8109 045e 00       		.byte	0
 8110 045f 03       		.uleb128 0x3
 8111 0460 08       		.uleb128 0x8
 8112 0461 3A       		.uleb128 0x3a
 8113 0462 0B       		.uleb128 0xb
 8114 0463 3B       		.uleb128 0x3b
 8115 0464 0B       		.uleb128 0xb
 8116 0465 39       		.uleb128 0x39
 8117 0466 0B       		.uleb128 0xb
 8118 0467 49       		.uleb128 0x49
 8119 0468 13       		.uleb128 0x13
 8120 0469 02       		.uleb128 0x2
 8121 046a 0A       		.uleb128 0xa
 8122 046b 00       		.byte	0
 8123 046c 00       		.byte	0
 8124 046d 4B       		.uleb128 0x4b
 8125 046e 05       		.uleb128 0x5
 8126 046f 00       		.byte	0
 8127 0470 03       		.uleb128 0x3
 8128 0471 0E       		.uleb128 0xe
 8129 0472 3A       		.uleb128 0x3a
 8130 0473 0B       		.uleb128 0xb
 8131 0474 3B       		.uleb128 0x3b
 8132 0475 0B       		.uleb128 0xb
 8133 0476 39       		.uleb128 0x39
 8134 0477 0B       		.uleb128 0xb
 8135 0478 49       		.uleb128 0x49
 8136 0479 13       		.uleb128 0x13
 8137 047a 00       		.byte	0
 8138 047b 00       		.byte	0
 8139 047c 4C       		.uleb128 0x4c
 8140 047d 2E       		.uleb128 0x2e
 8141 047e 01       		.byte	0x1
 8142 047f 3F       		.uleb128 0x3f
 8143 0480 0C       		.uleb128 0xc
 8144 0481 03       		.uleb128 0x3
 8145 0482 0E       		.uleb128 0xe
 8146 0483 3A       		.uleb128 0x3a
 8147 0484 0B       		.uleb128 0xb
 8148 0485 3B       		.uleb128 0x3b
 8149 0486 0B       		.uleb128 0xb
 8150 0487 39       		.uleb128 0x39
 8151 0488 0B       		.uleb128 0xb
 8152 0489 27       		.uleb128 0x27
 8153 048a 0C       		.uleb128 0xc
 8154 048b 49       		.uleb128 0x49
 8155 048c 13       		.uleb128 0x13
 8156 048d 20       		.uleb128 0x20
 8157 048e 0B       		.uleb128 0xb
 8158 048f 01       		.uleb128 0x1
 8159 0490 13       		.uleb128 0x13
 8160 0491 00       		.byte	0
 8161 0492 00       		.byte	0
 8162 0493 4D       		.uleb128 0x4d
 8163 0494 0B       		.uleb128 0xb
 8164 0495 01       		.byte	0x1
ARM GAS  /tmp/ccEGVymn.s 			page 160


 8165 0496 00       		.byte	0
 8166 0497 00       		.byte	0
 8167 0498 4E       		.uleb128 0x4e
 8168 0499 2E       		.uleb128 0x2e
 8169 049a 01       		.byte	0x1
 8170 049b 31       		.uleb128 0x31
 8171 049c 13       		.uleb128 0x13
 8172 049d 11       		.uleb128 0x11
 8173 049e 01       		.uleb128 0x1
 8174 049f 12       		.uleb128 0x12
 8175 04a0 01       		.uleb128 0x1
 8176 04a1 40       		.uleb128 0x40
 8177 04a2 06       		.uleb128 0x6
 8178 04a3 9742     		.uleb128 0x2117
 8179 04a5 0C       		.uleb128 0xc
 8180 04a6 01       		.uleb128 0x1
 8181 04a7 13       		.uleb128 0x13
 8182 04a8 00       		.byte	0
 8183 04a9 00       		.byte	0
 8184 04aa 4F       		.uleb128 0x4f
 8185 04ab 2E       		.uleb128 0x2e
 8186 04ac 01       		.byte	0x1
 8187 04ad 31       		.uleb128 0x31
 8188 04ae 13       		.uleb128 0x13
 8189 04af 11       		.uleb128 0x11
 8190 04b0 01       		.uleb128 0x1
 8191 04b1 12       		.uleb128 0x12
 8192 04b2 01       		.uleb128 0x1
 8193 04b3 40       		.uleb128 0x40
 8194 04b4 0A       		.uleb128 0xa
 8195 04b5 9742     		.uleb128 0x2117
 8196 04b7 0C       		.uleb128 0xc
 8197 04b8 01       		.uleb128 0x1
 8198 04b9 13       		.uleb128 0x13
 8199 04ba 00       		.byte	0
 8200 04bb 00       		.byte	0
 8201 04bc 50       		.uleb128 0x50
 8202 04bd 2E       		.uleb128 0x2e
 8203 04be 00       		.byte	0
 8204 04bf 3F       		.uleb128 0x3f
 8205 04c0 0C       		.uleb128 0xc
 8206 04c1 3C       		.uleb128 0x3c
 8207 04c2 0C       		.uleb128 0xc
 8208 04c3 8740     		.uleb128 0x2007
 8209 04c5 0E       		.uleb128 0xe
 8210 04c6 03       		.uleb128 0x3
 8211 04c7 0E       		.uleb128 0xe
 8212 04c8 3A       		.uleb128 0x3a
 8213 04c9 0B       		.uleb128 0xb
 8214 04ca 3B       		.uleb128 0x3b
 8215 04cb 0B       		.uleb128 0xb
 8216 04cc 39       		.uleb128 0x39
 8217 04cd 0B       		.uleb128 0xb
 8218 04ce 00       		.byte	0
 8219 04cf 00       		.byte	0
 8220 04d0 51       		.uleb128 0x51
 8221 04d1 2E       		.uleb128 0x2e
ARM GAS  /tmp/ccEGVymn.s 			page 161


 8222 04d2 00       		.byte	0
 8223 04d3 3F       		.uleb128 0x3f
 8224 04d4 0C       		.uleb128 0xc
 8225 04d5 3C       		.uleb128 0x3c
 8226 04d6 0C       		.uleb128 0xc
 8227 04d7 8740     		.uleb128 0x2007
 8228 04d9 08       		.uleb128 0x8
 8229 04da 03       		.uleb128 0x3
 8230 04db 08       		.uleb128 0x8
 8231 04dc 3A       		.uleb128 0x3a
 8232 04dd 0B       		.uleb128 0xb
 8233 04de 3B       		.uleb128 0x3b
 8234 04df 0B       		.uleb128 0xb
 8235 04e0 39       		.uleb128 0x39
 8236 04e1 0B       		.uleb128 0xb
 8237 04e2 00       		.byte	0
 8238 04e3 00       		.byte	0
 8239 04e4 52       		.uleb128 0x52
 8240 04e5 2E       		.uleb128 0x2e
 8241 04e6 00       		.byte	0
 8242 04e7 3F       		.uleb128 0x3f
 8243 04e8 0C       		.uleb128 0xc
 8244 04e9 3C       		.uleb128 0x3c
 8245 04ea 0C       		.uleb128 0xc
 8246 04eb 8740     		.uleb128 0x2007
 8247 04ed 0E       		.uleb128 0xe
 8248 04ee 03       		.uleb128 0x3
 8249 04ef 0E       		.uleb128 0xe
 8250 04f0 3A       		.uleb128 0x3a
 8251 04f1 0B       		.uleb128 0xb
 8252 04f2 3B       		.uleb128 0x3b
 8253 04f3 0B       		.uleb128 0xb
 8254 04f4 00       		.byte	0
 8255 04f5 00       		.byte	0
 8256 04f6 53       		.uleb128 0x53
 8257 04f7 2E       		.uleb128 0x2e
 8258 04f8 00       		.byte	0
 8259 04f9 3F       		.uleb128 0x3f
 8260 04fa 0C       		.uleb128 0xc
 8261 04fb 3C       		.uleb128 0x3c
 8262 04fc 0C       		.uleb128 0xc
 8263 04fd 8740     		.uleb128 0x2007
 8264 04ff 0E       		.uleb128 0xe
 8265 0500 03       		.uleb128 0x3
 8266 0501 0E       		.uleb128 0xe
 8267 0502 3A       		.uleb128 0x3a
 8268 0503 0B       		.uleb128 0xb
 8269 0504 3B       		.uleb128 0x3b
 8270 0505 05       		.uleb128 0x5
 8271 0506 39       		.uleb128 0x39
 8272 0507 0B       		.uleb128 0xb
 8273 0508 00       		.byte	0
 8274 0509 00       		.byte	0
 8275 050a 00       		.byte	0
 8276              		.section	.debug_loc,"",%progbits
 8277              	.Ldebug_loc0:
 8278              	.LVUS70:
ARM GAS  /tmp/ccEGVymn.s 			page 162


 8279 0000 00       		.uleb128 0
 8280 0001 00       		.uleb128 .LVU821
 8281 0002 00       		.uleb128 .LVU821
 8282 0003 00       		.uleb128 0
 8283              	.LLST70:
 8284 0004 00000000 		.4byte	.LVL212
 8285 0008 06000000 		.4byte	.LVL213
 8286 000c 0100     		.2byte	0x1
 8287 000e 50       		.byte	0x50
 8288 000f 06000000 		.4byte	.LVL213
 8289 0013 0C000000 		.4byte	.LFE14
 8290 0017 0400     		.2byte	0x4
 8291 0019 F3       		.byte	0xf3
 8292 001a 01       		.uleb128 0x1
 8293 001b 50       		.byte	0x50
 8294 001c 9F       		.byte	0x9f
 8295 001d 00000000 		.4byte	0
 8296 0021 00000000 		.4byte	0
 8297              	.LLST69:
 8298 0025 00000000 		.4byte	.LFB13
 8299 0029 06000000 		.4byte	.LCFI51
 8300 002d 0200     		.2byte	0x2
 8301 002f 7D       		.byte	0x7d
 8302 0030 00       		.sleb128 0
 8303 0031 06000000 		.4byte	.LCFI51
 8304 0035 14000000 		.4byte	.LCFI52
 8305 0039 0200     		.2byte	0x2
 8306 003b 7D       		.byte	0x7d
 8307 003c 04       		.sleb128 4
 8308 003d 14000000 		.4byte	.LCFI52
 8309 0041 20000000 		.4byte	.LFE13
 8310 0045 0200     		.2byte	0x2
 8311 0047 7D       		.byte	0x7d
 8312 0048 00       		.sleb128 0
 8313 0049 00000000 		.4byte	0
 8314 004d 00000000 		.4byte	0
 8315              	.LLST66:
 8316 0051 00000000 		.4byte	.LFB12
 8317 0055 10000000 		.4byte	.LCFI44
 8318 0059 0200     		.2byte	0x2
 8319 005b 7D       		.byte	0x7d
 8320 005c 00       		.sleb128 0
 8321 005d 10000000 		.4byte	.LCFI44
 8322 0061 12000000 		.4byte	.LCFI45
 8323 0065 0200     		.2byte	0x2
 8324 0067 7D       		.byte	0x7d
 8325 0068 04       		.sleb128 4
 8326 0069 12000000 		.4byte	.LCFI45
 8327 006d 7C000000 		.4byte	.LCFI46
 8328 0071 0200     		.2byte	0x2
 8329 0073 7D       		.byte	0x7d
 8330 0074 10       		.sleb128 16
 8331 0075 7C000000 		.4byte	.LCFI46
 8332 0079 80000000 		.4byte	.LCFI47
 8333 007d 0200     		.2byte	0x2
 8334 007f 7D       		.byte	0x7d
 8335 0080 04       		.sleb128 4
ARM GAS  /tmp/ccEGVymn.s 			page 163


 8336 0081 80000000 		.4byte	.LCFI47
 8337 0085 82000000 		.4byte	.LCFI48
 8338 0089 0200     		.2byte	0x2
 8339 008b 7D       		.byte	0x7d
 8340 008c 00       		.sleb128 0
 8341 008d 82000000 		.4byte	.LCFI48
 8342 0091 8C000000 		.4byte	.LCFI49
 8343 0095 0200     		.2byte	0x2
 8344 0097 7D       		.byte	0x7d
 8345 0098 10       		.sleb128 16
 8346 0099 8C000000 		.4byte	.LCFI49
 8347 009d 90000000 		.4byte	.LCFI50
 8348 00a1 0200     		.2byte	0x2
 8349 00a3 7D       		.byte	0x7d
 8350 00a4 04       		.sleb128 4
 8351 00a5 90000000 		.4byte	.LCFI50
 8352 00a9 9C000000 		.4byte	.LFE12
 8353 00ad 0200     		.2byte	0x2
 8354 00af 7D       		.byte	0x7d
 8355 00b0 00       		.sleb128 0
 8356 00b1 00000000 		.4byte	0
 8357 00b5 00000000 		.4byte	0
 8358              	.LVUS67:
 8359 00b9 00       		.uleb128 0
 8360 00ba 00       		.uleb128 .LVU778
 8361 00bb 00       		.uleb128 .LVU778
 8362 00bc 00       		.uleb128 0
 8363              	.LLST67:
 8364 00bd 00000000 		.4byte	.LVL207
 8365 00c1 3C000000 		.4byte	.LVL208
 8366 00c5 0100     		.2byte	0x1
 8367 00c7 50       		.byte	0x50
 8368 00c8 3C000000 		.4byte	.LVL208
 8369 00cc 9C000000 		.4byte	.LFE12
 8370 00d0 0100     		.2byte	0x1
 8371 00d2 53       		.byte	0x53
 8372 00d3 00000000 		.4byte	0
 8373 00d7 00000000 		.4byte	0
 8374              	.LVUS68:
 8375 00db 00       		.uleb128 0
 8376 00dc 00       		.uleb128 .LVU792
 8377 00dd 00       		.uleb128 .LVU792
 8378 00de 00       		.uleb128 .LVU800
 8379 00df 00       		.uleb128 .LVU800
 8380 00e0 00       		.uleb128 0
 8381              	.LLST68:
 8382 00e1 00000000 		.4byte	.LVL207
 8383 00e5 66000000 		.4byte	.LVL209
 8384 00e9 0200     		.2byte	0x2
 8385 00eb 90       		.byte	0x90
 8386 00ec 42       		.uleb128 0x42
 8387 00ed 66000000 		.4byte	.LVL209
 8388 00f1 82000000 		.4byte	.LVL210
 8389 00f5 0200     		.2byte	0x2
 8390 00f7 73       		.byte	0x73
 8391 00f8 30       		.sleb128 48
 8392 00f9 82000000 		.4byte	.LVL210
ARM GAS  /tmp/ccEGVymn.s 			page 164


 8393 00fd 9C000000 		.4byte	.LFE12
 8394 0101 0200     		.2byte	0x2
 8395 0103 90       		.byte	0x90
 8396 0104 42       		.uleb128 0x42
 8397 0105 00000000 		.4byte	0
 8398 0109 00000000 		.4byte	0
 8399              	.LLST56:
 8400 010d 00000000 		.4byte	.LFB11
 8401 0111 08000000 		.4byte	.LCFI38
 8402 0115 0200     		.2byte	0x2
 8403 0117 7D       		.byte	0x7d
 8404 0118 00       		.sleb128 0
 8405 0119 08000000 		.4byte	.LCFI38
 8406 011d 10000000 		.4byte	.LCFI39
 8407 0121 0200     		.2byte	0x2
 8408 0123 7D       		.byte	0x7d
 8409 0124 1C       		.sleb128 28
 8410 0125 10000000 		.4byte	.LCFI39
 8411 0129 16000000 		.4byte	.LCFI40
 8412 012d 0200     		.2byte	0x2
 8413 012f 7D       		.byte	0x7d
 8414 0130 24       		.sleb128 36
 8415 0131 16000000 		.4byte	.LCFI40
 8416 0135 62010000 		.4byte	.LCFI41
 8417 0139 0300     		.2byte	0x3
 8418 013b 7D       		.byte	0x7d
 8419 013c C800     		.sleb128 72
 8420 013e 62010000 		.4byte	.LCFI41
 8421 0142 66010000 		.4byte	.LCFI42
 8422 0146 0200     		.2byte	0x2
 8423 0148 7D       		.byte	0x7d
 8424 0149 24       		.sleb128 36
 8425 014a 66010000 		.4byte	.LCFI42
 8426 014e 6A010000 		.4byte	.LCFI43
 8427 0152 0200     		.2byte	0x2
 8428 0154 7D       		.byte	0x7d
 8429 0155 1C       		.sleb128 28
 8430 0156 6A010000 		.4byte	.LCFI43
 8431 015a 8C010000 		.4byte	.LFE11
 8432 015e 0300     		.2byte	0x3
 8433 0160 7D       		.byte	0x7d
 8434 0161 C800     		.sleb128 72
 8435 0163 00000000 		.4byte	0
 8436 0167 00000000 		.4byte	0
 8437              	.LVUS57:
 8438 016b 00       		.uleb128 0
 8439 016c 00       		.uleb128 .LVU665
 8440 016d 00       		.uleb128 .LVU665
 8441 016e 00       		.uleb128 .LVU743
 8442 016f 00       		.uleb128 .LVU743
 8443 0170 00       		.uleb128 .LVU744
 8444 0171 00       		.uleb128 .LVU744
 8445 0172 00       		.uleb128 0
 8446              	.LLST57:
 8447 0173 00000000 		.4byte	.LVL175
 8448 0177 27000000 		.4byte	.LVL177-1
 8449 017b 0200     		.2byte	0x2
ARM GAS  /tmp/ccEGVymn.s 			page 165


 8450 017d 90       		.byte	0x90
 8451 017e 40       		.uleb128 0x40
 8452 017f 27000000 		.4byte	.LVL177-1
 8453 0183 66010000 		.4byte	.LVL205
 8454 0187 0200     		.2byte	0x2
 8455 0189 90       		.byte	0x90
 8456 018a 50       		.uleb128 0x50
 8457 018b 66010000 		.4byte	.LVL205
 8458 018f 6A010000 		.4byte	.LVL206
 8459 0193 0600     		.2byte	0x6
 8460 0195 F3       		.byte	0xf3
 8461 0196 03       		.uleb128 0x3
 8462 0197 F5       		.byte	0xf5
 8463 0198 40       		.uleb128 0x40
 8464 0199 29       		.uleb128 0x29
 8465 019a 9F       		.byte	0x9f
 8466 019b 6A010000 		.4byte	.LVL206
 8467 019f 8C010000 		.4byte	.LFE11
 8468 01a3 0200     		.2byte	0x2
 8469 01a5 90       		.byte	0x90
 8470 01a6 40       		.uleb128 0x40
 8471 01a7 00000000 		.4byte	0
 8472 01ab 00000000 		.4byte	0
 8473              	.LVUS58:
 8474 01af 00       		.uleb128 .LVU662
 8475 01b0 00       		.uleb128 .LVU744
 8476              	.LLST58:
 8477 01b1 22000000 		.4byte	.LVL176
 8478 01b5 6A010000 		.4byte	.LVL206
 8479 01b9 0200     		.2byte	0x2
 8480 01bb 90       		.byte	0x90
 8481 01bc 51       		.uleb128 0x51
 8482 01bd 00000000 		.4byte	0
 8483 01c1 00000000 		.4byte	0
 8484              	.LVUS59:
 8485 01c5 02       		.uleb128 .LVU667
 8486 01c6 00       		.uleb128 .LVU671
 8487 01c7 00       		.uleb128 .LVU671
 8488 01c8 00       		.uleb128 .LVU676
 8489 01c9 00       		.uleb128 .LVU676
 8490 01ca 02       		.uleb128 .LVU686
 8491 01cb 02       		.uleb128 .LVU686
 8492 01cc 00       		.uleb128 .LVU688
 8493              	.LLST59:
 8494 01cd 28000000 		.4byte	.LVL177
 8495 01d1 36000000 		.4byte	.LVL178
 8496 01d5 0200     		.2byte	0x2
 8497 01d7 30       		.byte	0x30
 8498 01d8 9F       		.byte	0x9f
 8499 01d9 36000000 		.4byte	.LVL178
 8500 01dd 3C000000 		.4byte	.LVL180
 8501 01e1 0100     		.2byte	0x1
 8502 01e3 55       		.byte	0x55
 8503 01e4 3C000000 		.4byte	.LVL180
 8504 01e8 B6000000 		.4byte	.LVL185
 8505 01ec 0300     		.2byte	0x3
 8506 01ee 75       		.byte	0x75
ARM GAS  /tmp/ccEGVymn.s 			page 166


 8507 01ef 7F       		.sleb128 -1
 8508 01f0 9F       		.byte	0x9f
 8509 01f1 B6000000 		.4byte	.LVL185
 8510 01f5 BC000000 		.4byte	.LVL186
 8511 01f9 0100     		.2byte	0x1
 8512 01fb 55       		.byte	0x55
 8513 01fc 00000000 		.4byte	0
 8514 0200 00000000 		.4byte	0
 8515              	.LVUS60:
 8516 0204 00       		.uleb128 .LVU674
 8517 0205 00       		.uleb128 .LVU688
 8518              	.LLST60:
 8519 0206 3A000000 		.4byte	.LVL179
 8520 020a BC000000 		.4byte	.LVL186
 8521 020e 0100     		.2byte	0x1
 8522 0210 54       		.byte	0x54
 8523 0211 00000000 		.4byte	0
 8524 0215 00000000 		.4byte	0
 8525              	.LVUS61:
 8526 0219 00       		.uleb128 .LVU688
 8527 021a 00       		.uleb128 .LVU693
 8528 021b 00       		.uleb128 .LVU693
 8529 021c 00       		.uleb128 .LVU698
 8530              	.LLST61:
 8531 021d BC000000 		.4byte	.LVL186
 8532 0221 C8000000 		.4byte	.LVL187
 8533 0225 0200     		.2byte	0x2
 8534 0227 30       		.byte	0x30
 8535 0228 9F       		.byte	0x9f
 8536 0229 C8000000 		.4byte	.LVL187
 8537 022d DC000000 		.4byte	.LVL190
 8538 0231 0100     		.2byte	0x1
 8539 0233 54       		.byte	0x54
 8540 0234 00000000 		.4byte	0
 8541 0238 00000000 		.4byte	0
 8542              	.LVUS62:
 8543 023c 00       		.uleb128 .LVU698
 8544 023d 00       		.uleb128 .LVU703
 8545 023e 00       		.uleb128 .LVU703
 8546 023f 00       		.uleb128 .LVU716
 8547              	.LLST62:
 8548 0240 DC000000 		.4byte	.LVL190
 8549 0244 EC000000 		.4byte	.LVL191
 8550 0248 0200     		.2byte	0x2
 8551 024a 30       		.byte	0x30
 8552 024b 9F       		.byte	0x9f
 8553 024c EC000000 		.4byte	.LVL191
 8554 0250 12010000 		.4byte	.LVL197
 8555 0254 0100     		.2byte	0x1
 8556 0256 58       		.byte	0x58
 8557 0257 00000000 		.4byte	0
 8558 025b 00000000 		.4byte	0
 8559              	.LVUS63:
 8560 025f 00       		.uleb128 .LVU703
 8561 0260 00       		.uleb128 .LVU706
 8562 0261 00       		.uleb128 .LVU706
 8563 0262 00       		.uleb128 .LVU708
ARM GAS  /tmp/ccEGVymn.s 			page 167


 8564 0263 00       		.uleb128 .LVU708
 8565 0264 01       		.uleb128 .LVU710
 8566 0265 01       		.uleb128 .LVU710
 8567 0266 00       		.uleb128 .LVU712
 8568              	.LLST63:
 8569 0267 EC000000 		.4byte	.LVL191
 8570 026b F6000000 		.4byte	.LVL192
 8571 026f 0200     		.2byte	0x2
 8572 0271 30       		.byte	0x30
 8573 0272 9F       		.byte	0x9f
 8574 0273 F6000000 		.4byte	.LVL192
 8575 0277 FA000000 		.4byte	.LVL193
 8576 027b 0100     		.2byte	0x1
 8577 027d 54       		.byte	0x54
 8578 027e FA000000 		.4byte	.LVL193
 8579 0282 FE000000 		.4byte	.LVL194
 8580 0286 0300     		.2byte	0x3
 8581 0288 74       		.byte	0x74
 8582 0289 7F       		.sleb128 -1
 8583 028a 9F       		.byte	0x9f
 8584 028b FE000000 		.4byte	.LVL194
 8585 028f 06010000 		.4byte	.LVL195
 8586 0293 0100     		.2byte	0x1
 8587 0295 54       		.byte	0x54
 8588 0296 00000000 		.4byte	0
 8589 029a 00000000 		.4byte	0
 8590              	.LVUS64:
 8591 029e 00       		.uleb128 .LVU716
 8592 029f 00       		.uleb128 .LVU721
 8593 02a0 00       		.uleb128 .LVU721
 8594 02a1 00       		.uleb128 .LVU725
 8595 02a2 00       		.uleb128 .LVU725
 8596 02a3 04       		.uleb128 .LVU739
 8597 02a4 04       		.uleb128 .LVU739
 8598 02a5 00       		.uleb128 .LVU741
 8599              	.LLST64:
 8600 02a6 12010000 		.4byte	.LVL197
 8601 02aa 20010000 		.4byte	.LVL198
 8602 02ae 0200     		.2byte	0x2
 8603 02b0 30       		.byte	0x30
 8604 02b1 9F       		.byte	0x9f
 8605 02b2 20010000 		.4byte	.LVL198
 8606 02b6 2A010000 		.4byte	.LVL200
 8607 02ba 0100     		.2byte	0x1
 8608 02bc 56       		.byte	0x56
 8609 02bd 2A010000 		.4byte	.LVL200
 8610 02c1 5E010000 		.4byte	.LVL203
 8611 02c5 0300     		.2byte	0x3
 8612 02c7 76       		.byte	0x76
 8613 02c8 7F       		.sleb128 -1
 8614 02c9 9F       		.byte	0x9f
 8615 02ca 5E010000 		.4byte	.LVL203
 8616 02ce 60010000 		.4byte	.LVL204
 8617 02d2 0100     		.2byte	0x1
 8618 02d4 56       		.byte	0x56
 8619 02d5 00000000 		.4byte	0
 8620 02d9 00000000 		.4byte	0
ARM GAS  /tmp/ccEGVymn.s 			page 168


 8621              	.LVUS65:
 8622 02dd 00       		.uleb128 .LVU723
 8623 02de 00       		.uleb128 .LVU741
 8624              	.LLST65:
 8625 02df 24010000 		.4byte	.LVL199
 8626 02e3 60010000 		.4byte	.LVL204
 8627 02e7 0100     		.2byte	0x1
 8628 02e9 54       		.byte	0x54
 8629 02ea 00000000 		.4byte	0
 8630 02ee 00000000 		.4byte	0
 8631              	.LLST42:
 8632 02f2 00000000 		.4byte	.LFB10
 8633 02f6 04000000 		.4byte	.LCFI33
 8634 02fa 0200     		.2byte	0x2
 8635 02fc 7D       		.byte	0x7d
 8636 02fd 00       		.sleb128 0
 8637 02fe 04000000 		.4byte	.LCFI33
 8638 0302 0C000000 		.4byte	.LCFI34
 8639 0306 0200     		.2byte	0x2
 8640 0308 7D       		.byte	0x7d
 8641 0309 24       		.sleb128 36
 8642 030a 0C000000 		.4byte	.LCFI34
 8643 030e 10000000 		.4byte	.LCFI35
 8644 0312 0200     		.2byte	0x2
 8645 0314 7D       		.byte	0x7d
 8646 0315 34       		.sleb128 52
 8647 0316 10000000 		.4byte	.LCFI35
 8648 031a 94030000 		.4byte	.LCFI36
 8649 031e 0300     		.2byte	0x3
 8650 0320 7D       		.byte	0x7d
 8651 0321 B801     		.sleb128 184
 8652 0323 94030000 		.4byte	.LCFI36
 8653 0327 98030000 		.4byte	.LCFI37
 8654 032b 0200     		.2byte	0x2
 8655 032d 7D       		.byte	0x7d
 8656 032e 34       		.sleb128 52
 8657 032f 98030000 		.4byte	.LCFI37
 8658 0333 A4030000 		.4byte	.LFE10
 8659 0337 0200     		.2byte	0x2
 8660 0339 7D       		.byte	0x7d
 8661 033a 24       		.sleb128 36
 8662 033b 00000000 		.4byte	0
 8663 033f 00000000 		.4byte	0
 8664              	.LVUS43:
 8665 0343 00       		.uleb128 0
 8666 0344 00       		.uleb128 .LVU517
 8667 0345 00       		.uleb128 .LVU517
 8668 0346 00       		.uleb128 .LVU651
 8669 0347 00       		.uleb128 .LVU651
 8670 0348 00       		.uleb128 0
 8671              	.LLST43:
 8672 0349 00000000 		.4byte	.LVL118
 8673 034d 30000000 		.4byte	.LVL121
 8674 0351 0100     		.2byte	0x1
 8675 0353 50       		.byte	0x50
 8676 0354 30000000 		.4byte	.LVL121
 8677 0358 92030000 		.4byte	.LVL173
ARM GAS  /tmp/ccEGVymn.s 			page 169


 8678 035c 0100     		.2byte	0x1
 8679 035e 58       		.byte	0x58
 8680 035f 92030000 		.4byte	.LVL173
 8681 0363 A4030000 		.4byte	.LFE10
 8682 0367 0400     		.2byte	0x4
 8683 0369 F3       		.byte	0xf3
 8684 036a 01       		.uleb128 0x1
 8685 036b 50       		.byte	0x50
 8686 036c 9F       		.byte	0x9f
 8687 036d 00000000 		.4byte	0
 8688 0371 00000000 		.4byte	0
 8689              	.LVUS44:
 8690 0375 00       		.uleb128 .LVU506
 8691 0376 00       		.uleb128 .LVU653
 8692              	.LLST44:
 8693 0377 08000000 		.4byte	.LVL119
 8694 037b 9C030000 		.4byte	.LVL174
 8695 037f 0100     		.2byte	0x1
 8696 0381 55       		.byte	0x55
 8697 0382 00000000 		.4byte	0
 8698 0386 00000000 		.4byte	0
 8699              	.LVUS45:
 8700 038a 00       		.uleb128 .LVU511
 8701 038b 00       		.uleb128 .LVU653
 8702              	.LLST45:
 8703 038c 14000000 		.4byte	.LVL120
 8704 0390 9C030000 		.4byte	.LVL174
 8705 0394 0100     		.2byte	0x1
 8706 0396 56       		.byte	0x56
 8707 0397 00000000 		.4byte	0
 8708 039b 00000000 		.4byte	0
 8709              	.LVUS46:
 8710 039f 02       		.uleb128 .LVU513
 8711 03a0 00       		.uleb128 .LVU517
 8712 03a1 00       		.uleb128 .LVU517
 8713 03a2 00       		.uleb128 .LVU589
 8714 03a3 00       		.uleb128 .LVU589
 8715 03a4 01       		.uleb128 .LVU615
 8716 03a5 01       		.uleb128 .LVU615
 8717 03a6 00       		.uleb128 .LVU651
 8718              	.LLST46:
 8719 03a7 14000000 		.4byte	.LVL120
 8720 03ab 30000000 		.4byte	.LVL121
 8721 03af 0200     		.2byte	0x2
 8722 03b1 30       		.byte	0x30
 8723 03b2 9F       		.byte	0x9f
 8724 03b3 30000000 		.4byte	.LVL121
 8725 03b7 E4010000 		.4byte	.LVL147
 8726 03bb 0100     		.2byte	0x1
 8727 03bd 57       		.byte	0x57
 8728 03be E4010000 		.4byte	.LVL147
 8729 03c2 84020000 		.4byte	.LVL156
 8730 03c6 0300     		.2byte	0x3
 8731 03c8 77       		.byte	0x77
 8732 03c9 7F       		.sleb128 -1
 8733 03ca 9F       		.byte	0x9f
 8734 03cb 84020000 		.4byte	.LVL156
ARM GAS  /tmp/ccEGVymn.s 			page 170


 8735 03cf 92030000 		.4byte	.LVL173
 8736 03d3 0100     		.2byte	0x1
 8737 03d5 57       		.byte	0x57
 8738 03d6 00000000 		.4byte	0
 8739 03da 00000000 		.4byte	0
 8740              	.LVUS47:
 8741 03de 00       		.uleb128 .LVU517
 8742 03df 00       		.uleb128 .LVU590
 8743 03e0 00       		.uleb128 .LVU590
 8744 03e1 00       		.uleb128 .LVU617
 8745 03e2 01       		.uleb128 .LVU618
 8746 03e3 00       		.uleb128 .LVU651
 8747              	.LLST47:
 8748 03e4 30000000 		.4byte	.LVL121
 8749 03e8 EA010000 		.4byte	.LVL148
 8750 03ec 0100     		.2byte	0x1
 8751 03ee 54       		.byte	0x54
 8752 03ef EA010000 		.4byte	.LVL148
 8753 03f3 88020000 		.4byte	.LVL157
 8754 03f7 0300     		.2byte	0x3
 8755 03f9 74       		.byte	0x74
 8756 03fa 40       		.sleb128 -64
 8757 03fb 9F       		.byte	0x9f
 8758 03fc 88020000 		.4byte	.LVL157
 8759 0400 92030000 		.4byte	.LVL173
 8760 0404 0100     		.2byte	0x1
 8761 0406 54       		.byte	0x54
 8762 0407 00000000 		.4byte	0
 8763 040b 00000000 		.4byte	0
 8764              	.LVUS48:
 8765 040f 00       		.uleb128 .LVU634
 8766 0410 00       		.uleb128 .LVU638
 8767              	.LLST48:
 8768 0411 5C030000 		.4byte	.LVL165
 8769 0415 68030000 		.4byte	.LVL166
 8770 0419 0200     		.2byte	0x2
 8771 041b 90       		.byte	0x90
 8772 041c 40       		.uleb128 0x40
 8773 041d 00000000 		.4byte	0
 8774 0421 00000000 		.4byte	0
 8775              	.LVUS49:
 8776 0425 00       		.uleb128 .LVU517
 8777 0426 00       		.uleb128 .LVU521
 8778 0427 01       		.uleb128 .LVU525
 8779 0428 00       		.uleb128 .LVU577
 8780 0429 00       		.uleb128 .LVU640
 8781 042a 00       		.uleb128 .LVU644
 8782 042b 00       		.uleb128 .LVU645
 8783 042c 00       		.uleb128 .LVU646
 8784 042d 00       		.uleb128 .LVU646
 8785 042e 00       		.uleb128 .LVU651
 8786              	.LLST49:
 8787 042f 30000000 		.4byte	.LVL121
 8788 0433 3C000000 		.4byte	.LVL123
 8789 0437 0200     		.2byte	0x2
 8790 0439 90       		.byte	0x90
 8791 043a 40       		.uleb128 0x40
ARM GAS  /tmp/ccEGVymn.s 			page 171


 8792 043b 48000000 		.4byte	.LVL126
 8793 043f C6010000 		.4byte	.LVL142
 8794 0443 0200     		.2byte	0x2
 8795 0445 90       		.byte	0x90
 8796 0446 50       		.uleb128 0x50
 8797 0447 70030000 		.4byte	.LVL167
 8798 044b 7D030000 		.4byte	.LVL168-1
 8799 044f 0200     		.2byte	0x2
 8800 0451 90       		.byte	0x90
 8801 0452 40       		.uleb128 0x40
 8802 0453 82030000 		.4byte	.LVL169
 8803 0457 84030000 		.4byte	.LVL170
 8804 045b 0200     		.2byte	0x2
 8805 045d 90       		.byte	0x90
 8806 045e 40       		.uleb128 0x40
 8807 045f 84030000 		.4byte	.LVL170
 8808 0463 92030000 		.4byte	.LVL173
 8809 0467 0200     		.2byte	0x2
 8810 0469 90       		.byte	0x90
 8811 046a 50       		.uleb128 0x50
 8812 046b 00000000 		.4byte	0
 8813 046f 00000000 		.4byte	0
 8814              	.LVUS50:
 8815 0473 00       		.uleb128 .LVU567
 8816 0474 00       		.uleb128 .LVU571
 8817              	.LLST50:
 8818 0475 A8010000 		.4byte	.LVL140
 8819 0479 B4010000 		.4byte	.LVL141
 8820 047d 0200     		.2byte	0x2
 8821 047f 90       		.byte	0x90
 8822 0480 40       		.uleb128 0x40
 8823 0481 00000000 		.4byte	0
 8824 0485 00000000 		.4byte	0
 8825              	.LVUS51:
 8826 0489 00       		.uleb128 .LVU571
 8827 048a 00       		.uleb128 .LVU581
 8828 048b 00       		.uleb128 .LVU585
 8829 048c 00       		.uleb128 .LVU591
 8830 048d 00       		.uleb128 .LVU646
 8831 048e 00       		.uleb128 .LVU650
 8832 048f 00       		.uleb128 .LVU650
 8833 0490 00       		.uleb128 .LVU651
 8834              	.LLST51:
 8835 0491 B4010000 		.4byte	.LVL141
 8836 0495 CE010000 		.4byte	.LVL144
 8837 0499 0200     		.2byte	0x2
 8838 049b 90       		.byte	0x90
 8839 049c 40       		.uleb128 0x40
 8840 049d DE010000 		.4byte	.LVL146
 8841 04a1 ED010000 		.4byte	.LVL149-1
 8842 04a5 0200     		.2byte	0x2
 8843 04a7 90       		.byte	0x90
 8844 04a8 40       		.uleb128 0x40
 8845 04a9 84030000 		.4byte	.LVL170
 8846 04ad 8F030000 		.4byte	.LVL172-1
 8847 04b1 0200     		.2byte	0x2
 8848 04b3 90       		.byte	0x90
ARM GAS  /tmp/ccEGVymn.s 			page 172


 8849 04b4 40       		.uleb128 0x40
 8850 04b5 90030000 		.4byte	.LVL172
 8851 04b9 92030000 		.4byte	.LVL173
 8852 04bd 0200     		.2byte	0x2
 8853 04bf 90       		.byte	0x90
 8854 04c0 40       		.uleb128 0x40
 8855 04c1 00000000 		.4byte	0
 8856 04c5 00000000 		.4byte	0
 8857              	.LVUS52:
 8858 04c9 00       		.uleb128 .LVU519
 8859 04ca 00       		.uleb128 .LVU523
 8860              	.LLST52:
 8861 04cb 34000000 		.4byte	.LVL122
 8862 04cf 44000000 		.4byte	.LVL125
 8863 04d3 0200     		.2byte	0x2
 8864 04d5 90       		.byte	0x90
 8865 04d6 50       		.uleb128 0x50
 8866 04d7 00000000 		.4byte	0
 8867 04db 00000000 		.4byte	0
 8868              	.LVUS53:
 8869 04df 00       		.uleb128 .LVU578
 8870 04e0 00       		.uleb128 .LVU582
 8871              	.LLST53:
 8872 04e1 CA010000 		.4byte	.LVL143
 8873 04e5 D5010000 		.4byte	.LVL145-1
 8874 04e9 0200     		.2byte	0x2
 8875 04eb 90       		.byte	0x90
 8876 04ec 42       		.uleb128 0x42
 8877 04ed 00000000 		.4byte	0
 8878 04f1 00000000 		.4byte	0
 8879              	.LVUS54:
 8880 04f5 01       		.uleb128 .LVU579
 8881 04f6 00       		.uleb128 .LVU585
 8882              	.LLST54:
 8883 04f7 CA010000 		.4byte	.LVL143
 8884 04fb DE010000 		.4byte	.LVL146
 8885 04ff 0200     		.2byte	0x2
 8886 0501 90       		.byte	0x90
 8887 0502 50       		.uleb128 0x50
 8888 0503 00000000 		.4byte	0
 8889 0507 00000000 		.4byte	0
 8890              	.LVUS55:
 8891 050b 00       		.uleb128 .LVU648
 8892 050c 00       		.uleb128 .LVU650
 8893              	.LLST55:
 8894 050d 88030000 		.4byte	.LVL171
 8895 0511 8F030000 		.4byte	.LVL172-1
 8896 0515 0200     		.2byte	0x2
 8897 0517 90       		.byte	0x90
 8898 0518 42       		.uleb128 0x42
 8899 0519 00000000 		.4byte	0
 8900 051d 00000000 		.4byte	0
 8901              	.LLST30:
 8902 0521 00000000 		.4byte	.LFB9
 8903 0525 08000000 		.4byte	.LCFI28
 8904 0529 0200     		.2byte	0x2
 8905 052b 7D       		.byte	0x7d
ARM GAS  /tmp/ccEGVymn.s 			page 173


 8906 052c 00       		.sleb128 0
 8907 052d 08000000 		.4byte	.LCFI28
 8908 0531 12000000 		.4byte	.LCFI29
 8909 0535 0200     		.2byte	0x2
 8910 0537 7D       		.byte	0x7d
 8911 0538 18       		.sleb128 24
 8912 0539 12000000 		.4byte	.LCFI29
 8913 053d 18000000 		.4byte	.LCFI30
 8914 0541 0300     		.2byte	0x3
 8915 0543 7D       		.byte	0x7d
 8916 0544 C000     		.sleb128 64
 8917 0546 18000000 		.4byte	.LCFI30
 8918 054a 0A030000 		.4byte	.LCFI31
 8919 054e 0300     		.2byte	0x3
 8920 0550 7D       		.byte	0x7d
 8921 0551 8001     		.sleb128 128
 8922 0553 0A030000 		.4byte	.LCFI31
 8923 0557 0E030000 		.4byte	.LCFI32
 8924 055b 0300     		.2byte	0x3
 8925 055d 7D       		.byte	0x7d
 8926 055e C000     		.sleb128 64
 8927 0560 0E030000 		.4byte	.LCFI32
 8928 0564 28030000 		.4byte	.LFE9
 8929 0568 0200     		.2byte	0x2
 8930 056a 7D       		.byte	0x7d
 8931 056b 18       		.sleb128 24
 8932 056c 00000000 		.4byte	0
 8933 0570 00000000 		.4byte	0
 8934              	.LVUS31:
 8935 0574 00       		.uleb128 0
 8936 0575 00       		.uleb128 .LVU363
 8937 0576 00       		.uleb128 .LVU363
 8938 0577 00       		.uleb128 .LVU500
 8939 0578 00       		.uleb128 .LVU500
 8940 0579 00       		.uleb128 0
 8941              	.LLST31:
 8942 057a 00000000 		.4byte	.LVL68
 8943 057e 3C000000 		.4byte	.LVL71
 8944 0582 0100     		.2byte	0x1
 8945 0584 50       		.byte	0x50
 8946 0585 3C000000 		.4byte	.LVL71
 8947 0589 08030000 		.4byte	.LVL117
 8948 058d 0100     		.2byte	0x1
 8949 058f 55       		.byte	0x55
 8950 0590 08030000 		.4byte	.LVL117
 8951 0594 28030000 		.4byte	.LFE9
 8952 0598 0400     		.2byte	0x4
 8953 059a F3       		.byte	0xf3
 8954 059b 01       		.uleb128 0x1
 8955 059c 50       		.byte	0x50
 8956 059d 9F       		.byte	0x9f
 8957 059e 00000000 		.4byte	0
 8958 05a2 00000000 		.4byte	0
 8959              	.LVUS32:
 8960 05a6 00       		.uleb128 0
 8961 05a7 00       		.uleb128 .LVU363
 8962 05a8 00       		.uleb128 .LVU363
ARM GAS  /tmp/ccEGVymn.s 			page 174


 8963 05a9 00       		.uleb128 0
 8964              	.LLST32:
 8965 05aa 00000000 		.4byte	.LVL68
 8966 05ae 3C000000 		.4byte	.LVL71
 8967 05b2 0200     		.2byte	0x2
 8968 05b4 90       		.byte	0x90
 8969 05b5 40       		.uleb128 0x40
 8970 05b6 3C000000 		.4byte	.LVL71
 8971 05ba 28030000 		.4byte	.LFE9
 8972 05be 0600     		.2byte	0x6
 8973 05c0 F3       		.byte	0xf3
 8974 05c1 03       		.uleb128 0x3
 8975 05c2 F5       		.byte	0xf5
 8976 05c3 40       		.uleb128 0x40
 8977 05c4 29       		.uleb128 0x29
 8978 05c5 9F       		.byte	0x9f
 8979 05c6 00000000 		.4byte	0
 8980 05ca 00000000 		.4byte	0
 8981              	.LVUS33:
 8982 05ce 00       		.uleb128 .LVU355
 8983 05cf 00       		.uleb128 .LVU359
 8984 05d0 00       		.uleb128 .LVU359
 8985 05d1 00       		.uleb128 .LVU363
 8986              	.LLST33:
 8987 05d2 20000000 		.4byte	.LVL69
 8988 05d6 2A000000 		.4byte	.LVL70
 8989 05da 0200     		.2byte	0x2
 8990 05dc 90       		.byte	0x90
 8991 05dd 53       		.uleb128 0x53
 8992 05de 2A000000 		.4byte	.LVL70
 8993 05e2 3C000000 		.4byte	.LVL71
 8994 05e6 1800     		.2byte	0x18
 8995 05e8 F4       		.byte	0xf4
 8996 05e9 29       		.uleb128 0x29
 8997 05ea 04       		.byte	0x4
 8998 05eb CDCC4C3E 		.4byte	0x3e4ccccd
 8999 05ef F5       		.byte	0xf5
 9000 05f0 54       		.uleb128 0x54
 9001 05f1 29       		.uleb128 0x29
 9002 05f2 03       		.byte	0x3
 9003 05f3 00000000 		.4byte	positionCorrection
 9004 05f7 06       		.byte	0x6
 9005 05f8 30       		.byte	0x30
 9006 05f9 2E       		.byte	0x2e
 9007 05fa 28       		.byte	0x28
 9008 05fb 0100     		.2byte	0x1
 9009 05fd 16       		.byte	0x16
 9010 05fe 13       		.byte	0x13
 9011 05ff 9F       		.byte	0x9f
 9012 0600 00000000 		.4byte	0
 9013 0604 00000000 		.4byte	0
 9014              	.LVUS34:
 9015 0608 02       		.uleb128 .LVU357
 9016 0609 00       		.uleb128 .LVU363
 9017 060a 00       		.uleb128 .LVU363
 9018 060b 00       		.uleb128 .LVU467
 9019 060c 00       		.uleb128 .LVU467
ARM GAS  /tmp/ccEGVymn.s 			page 175


 9020 060d 01       		.uleb128 .LVU498
 9021 060e 01       		.uleb128 .LVU498
 9022 060f 00       		.uleb128 .LVU500
 9023              	.LLST34:
 9024 0610 20000000 		.4byte	.LVL69
 9025 0614 3C000000 		.4byte	.LVL71
 9026 0618 0200     		.2byte	0x2
 9027 061a 30       		.byte	0x30
 9028 061b 9F       		.byte	0x9f
 9029 061c 3C000000 		.4byte	.LVL71
 9030 0620 08020000 		.4byte	.LVL104
 9031 0624 0100     		.2byte	0x1
 9032 0626 56       		.byte	0x56
 9033 0627 08020000 		.4byte	.LVL104
 9034 062b FE020000 		.4byte	.LVL116
 9035 062f 0300     		.2byte	0x3
 9036 0631 76       		.byte	0x76
 9037 0632 7F       		.sleb128 -1
 9038 0633 9F       		.byte	0x9f
 9039 0634 FE020000 		.4byte	.LVL116
 9040 0638 08030000 		.4byte	.LVL117
 9041 063c 0100     		.2byte	0x1
 9042 063e 56       		.byte	0x56
 9043 063f 00000000 		.4byte	0
 9044 0643 00000000 		.4byte	0
 9045              	.LVUS35:
 9046 0647 00       		.uleb128 .LVU363
 9047 0648 00       		.uleb128 .LVU367
 9048 0649 00       		.uleb128 .LVU367
 9049 064a 00       		.uleb128 .LVU368
 9050 064b 01       		.uleb128 .LVU369
 9051 064c 00       		.uleb128 .LVU468
 9052 064d 00       		.uleb128 .LVU468
 9053 064e 00       		.uleb128 .LVU500
 9054              	.LLST35:
 9055 064f 3C000000 		.4byte	.LVL71
 9056 0653 44000000 		.4byte	.LVL73
 9057 0657 0100     		.2byte	0x1
 9058 0659 54       		.byte	0x54
 9059 065a 44000000 		.4byte	.LVL73
 9060 065e 4A000000 		.4byte	.LVL74
 9061 0662 0300     		.2byte	0x3
 9062 0664 74       		.byte	0x74
 9063 0665 40       		.sleb128 -64
 9064 0666 9F       		.byte	0x9f
 9065 0667 4A000000 		.4byte	.LVL74
 9066 066b 0E020000 		.4byte	.LVL105
 9067 066f 0100     		.2byte	0x1
 9068 0671 54       		.byte	0x54
 9069 0672 0E020000 		.4byte	.LVL105
 9070 0676 08030000 		.4byte	.LVL117
 9071 067a 0300     		.2byte	0x3
 9072 067c 74       		.byte	0x74
 9073 067d 40       		.sleb128 -64
 9074 067e 9F       		.byte	0x9f
 9075 067f 00000000 		.4byte	0
 9076 0683 00000000 		.4byte	0
ARM GAS  /tmp/ccEGVymn.s 			page 176


 9077              	.LVUS36:
 9078 0687 00       		.uleb128 .LVU388
 9079 0688 00       		.uleb128 .LVU390
 9080 0689 00       		.uleb128 .LVU390
 9081 068a 00       		.uleb128 .LVU407
 9082              	.LLST36:
 9083 068b BE000000 		.4byte	.LVL78
 9084 068f C2000000 		.4byte	.LVL79
 9085 0693 0200     		.2byte	0x2
 9086 0695 90       		.byte	0x90
 9087 0696 40       		.uleb128 0x40
 9088 0697 C2000000 		.4byte	.LVL79
 9089 069b 0A010000 		.4byte	.LVL85
 9090 069f 0200     		.2byte	0x2
 9091 06a1 90       		.byte	0x90
 9092 06a2 51       		.uleb128 0x51
 9093 06a3 00000000 		.4byte	0
 9094 06a7 00000000 		.4byte	0
 9095              	.LVUS37:
 9096 06ab 00       		.uleb128 .LVU393
 9097 06ac 00       		.uleb128 .LVU395
 9098 06ad 00       		.uleb128 .LVU395
 9099 06ae 00       		.uleb128 .LVU432
 9100              	.LLST37:
 9101 06af D2000000 		.4byte	.LVL81
 9102 06b3 D6000000 		.4byte	.LVL82
 9103 06b7 0200     		.2byte	0x2
 9104 06b9 90       		.byte	0x90
 9105 06ba 40       		.uleb128 0x40
 9106 06bb D6000000 		.4byte	.LVL82
 9107 06bf 82010000 		.4byte	.LVL94
 9108 06c3 0200     		.2byte	0x2
 9109 06c5 90       		.byte	0x90
 9110 06c6 56       		.uleb128 0x56
 9111 06c7 00000000 		.4byte	0
 9112 06cb 00000000 		.4byte	0
 9113              	.LVUS38:
 9114 06cf 00       		.uleb128 .LVU400
 9115 06d0 00       		.uleb128 .LVU414
 9116 06d1 00       		.uleb128 .LVU414
 9117 06d2 00       		.uleb128 .LVU416
 9118 06d3 00       		.uleb128 .LVU416
 9119 06d4 00       		.uleb128 .LVU437
 9120              	.LLST38:
 9121 06d5 EE000000 		.4byte	.LVL83
 9122 06d9 32010000 		.4byte	.LVL87
 9123 06dd 0200     		.2byte	0x2
 9124 06df 90       		.byte	0x90
 9125 06e0 50       		.uleb128 0x50
 9126 06e1 32010000 		.4byte	.LVL87
 9127 06e5 36010000 		.4byte	.LVL88
 9128 06e9 0800     		.2byte	0x8
 9129 06eb F5       		.byte	0xf5
 9130 06ec 50       		.uleb128 0x50
 9131 06ed 29       		.uleb128 0x29
 9132 06ee F5       		.byte	0xf5
 9133 06ef 51       		.uleb128 0x51
ARM GAS  /tmp/ccEGVymn.s 			page 177


 9134 06f0 29       		.uleb128 0x29
 9135 06f1 22       		.byte	0x22
 9136 06f2 9F       		.byte	0x9f
 9137 06f3 36010000 		.4byte	.LVL88
 9138 06f7 96010000 		.4byte	.LVL96
 9139 06fb 0200     		.2byte	0x2
 9140 06fd 90       		.byte	0x90
 9141 06fe 50       		.uleb128 0x50
 9142 06ff 00000000 		.4byte	0
 9143 0703 00000000 		.4byte	0
 9144              	.LVUS39:
 9145 0707 00       		.uleb128 .LVU427
 9146 0708 00       		.uleb128 .LVU429
 9147 0709 00       		.uleb128 .LVU429
 9148 070a 00       		.uleb128 .LVU446
 9149              	.LLST39:
 9150 070b 6E010000 		.4byte	.LVL91
 9151 070f 72010000 		.4byte	.LVL92
 9152 0713 0200     		.2byte	0x2
 9153 0715 90       		.byte	0x90
 9154 0716 40       		.uleb128 0x40
 9155 0717 72010000 		.4byte	.LVL92
 9156 071b BA010000 		.4byte	.LVL99
 9157 071f 0200     		.2byte	0x2
 9158 0721 90       		.byte	0x90
 9159 0722 51       		.uleb128 0x51
 9160 0723 00000000 		.4byte	0
 9161 0727 00000000 		.4byte	0
 9162              	.LVUS40:
 9163 072b 00       		.uleb128 .LVU363
 9164 072c 00       		.uleb128 .LVU368
 9165 072d 00       		.uleb128 .LVU432
 9166 072e 00       		.uleb128 .LVU434
 9167 072f 00       		.uleb128 .LVU434
 9168 0730 00       		.uleb128 .LVU500
 9169              	.LLST40:
 9170 0731 3C000000 		.4byte	.LVL71
 9171 0735 4A000000 		.4byte	.LVL74
 9172 0739 0200     		.2byte	0x2
 9173 073b 90       		.byte	0x90
 9174 073c 56       		.uleb128 0x56
 9175 073d 82010000 		.4byte	.LVL94
 9176 0741 86010000 		.4byte	.LVL95
 9177 0745 0200     		.2byte	0x2
 9178 0747 90       		.byte	0x90
 9179 0748 40       		.uleb128 0x40
 9180 0749 86010000 		.4byte	.LVL95
 9181 074d 08030000 		.4byte	.LVL117
 9182 0751 0200     		.2byte	0x2
 9183 0753 90       		.byte	0x90
 9184 0754 56       		.uleb128 0x56
 9185 0755 00000000 		.4byte	0
 9186 0759 00000000 		.4byte	0
 9187              	.LVUS41:
 9188 075d 00       		.uleb128 .LVU363
 9189 075e 00       		.uleb128 .LVU368
 9190 075f 00       		.uleb128 .LVU439
ARM GAS  /tmp/ccEGVymn.s 			page 178


 9191 0760 00       		.uleb128 .LVU453
 9192 0761 00       		.uleb128 .LVU453
 9193 0762 00       		.uleb128 .LVU455
 9194 0763 00       		.uleb128 .LVU455
 9195 0764 00       		.uleb128 .LVU480
 9196              	.LLST41:
 9197 0765 3C000000 		.4byte	.LVL71
 9198 0769 4A000000 		.4byte	.LVL74
 9199 076d 0200     		.2byte	0x2
 9200 076f 90       		.byte	0x90
 9201 0770 50       		.uleb128 0x50
 9202 0771 9E010000 		.4byte	.LVL97
 9203 0775 E2010000 		.4byte	.LVL101
 9204 0779 0200     		.2byte	0x2
 9205 077b 90       		.byte	0x90
 9206 077c 50       		.uleb128 0x50
 9207 077d E2010000 		.4byte	.LVL101
 9208 0781 E6010000 		.4byte	.LVL102
 9209 0785 0800     		.2byte	0x8
 9210 0787 F5       		.byte	0xf5
 9211 0788 50       		.uleb128 0x50
 9212 0789 29       		.uleb128 0x29
 9213 078a F5       		.byte	0xf5
 9214 078b 51       		.uleb128 0x51
 9215 078c 29       		.uleb128 0x29
 9216 078d 22       		.byte	0x22
 9217 078e 9F       		.byte	0x9f
 9218 078f E6010000 		.4byte	.LVL102
 9219 0793 96020000 		.4byte	.LVL111
 9220 0797 0200     		.2byte	0x2
 9221 0799 90       		.byte	0x90
 9222 079a 50       		.uleb128 0x50
 9223 079b 00000000 		.4byte	0
 9224 079f 00000000 		.4byte	0
 9225              	.LLST19:
 9226 07a3 00000000 		.4byte	.LFB8
 9227 07a7 10000000 		.4byte	.LCFI20
 9228 07ab 0200     		.2byte	0x2
 9229 07ad 7D       		.byte	0x7d
 9230 07ae 00       		.sleb128 0
 9231 07af 10000000 		.4byte	.LCFI20
 9232 07b3 14000000 		.4byte	.LCFI21
 9233 07b7 0200     		.2byte	0x2
 9234 07b9 7D       		.byte	0x7d
 9235 07ba 24       		.sleb128 36
 9236 07bb 14000000 		.4byte	.LCFI21
 9237 07bf 16000000 		.4byte	.LCFI22
 9238 07c3 0200     		.2byte	0x2
 9239 07c5 7D       		.byte	0x7d
 9240 07c6 2C       		.sleb128 44
 9241 07c7 16000000 		.4byte	.LCFI22
 9242 07cb 08010000 		.4byte	.LCFI23
 9243 07cf 0300     		.2byte	0x3
 9244 07d1 7D       		.byte	0x7d
 9245 07d2 E802     		.sleb128 360
 9246 07d4 08010000 		.4byte	.LCFI23
 9247 07d8 0C010000 		.4byte	.LCFI24
ARM GAS  /tmp/ccEGVymn.s 			page 179


 9248 07dc 0200     		.2byte	0x2
 9249 07de 7D       		.byte	0x7d
 9250 07df 2C       		.sleb128 44
 9251 07e0 0C010000 		.4byte	.LCFI24
 9252 07e4 10010000 		.4byte	.LCFI25
 9253 07e8 0200     		.2byte	0x2
 9254 07ea 7D       		.byte	0x7d
 9255 07eb 24       		.sleb128 36
 9256 07ec 10010000 		.4byte	.LCFI25
 9257 07f0 72010000 		.4byte	.LCFI26
 9258 07f4 0300     		.2byte	0x3
 9259 07f6 7D       		.byte	0x7d
 9260 07f7 E802     		.sleb128 360
 9261 07f9 72010000 		.4byte	.LCFI26
 9262 07fd 74010000 		.4byte	.LCFI27
 9263 0801 0200     		.2byte	0x2
 9264 0803 7D       		.byte	0x7d
 9265 0804 00       		.sleb128 0
 9266 0805 74010000 		.4byte	.LCFI27
 9267 0809 9C010000 		.4byte	.LFE8
 9268 080d 0300     		.2byte	0x3
 9269 080f 7D       		.byte	0x7d
 9270 0810 E802     		.sleb128 360
 9271 0812 00000000 		.4byte	0
 9272 0816 00000000 		.4byte	0
 9273              	.LVUS20:
 9274 081a 03       		.uleb128 .LVU201
 9275 081b 00       		.uleb128 .LVU208
 9276 081c 00       		.uleb128 .LVU208
 9277 081d 00       		.uleb128 .LVU215
 9278 081e 00       		.uleb128 .LVU215
 9279 081f 00       		.uleb128 .LVU221
 9280 0820 00       		.uleb128 .LVU221
 9281 0821 00       		.uleb128 .LVU303
 9282 0822 00       		.uleb128 .LVU303
 9283 0823 00       		.uleb128 .LVU306
 9284 0824 00       		.uleb128 .LVU308
 9285 0825 00       		.uleb128 .LVU340
 9286 0826 00       		.uleb128 .LVU340
 9287 0827 00       		.uleb128 .LVU341
 9288 0828 00       		.uleb128 .LVU341
 9289 0829 00       		.uleb128 0
 9290              	.LLST20:
 9291 082a 00000000 		.4byte	.LVL33
 9292 082e 24000000 		.4byte	.LVL34
 9293 0832 0200     		.2byte	0x2
 9294 0834 30       		.byte	0x30
 9295 0835 9F       		.byte	0x9f
 9296 0836 24000000 		.4byte	.LVL34
 9297 083a 32000000 		.4byte	.LVL35
 9298 083e 0300     		.2byte	0x3
 9299 0840 91       		.byte	0x91
 9300 0841 A07D     		.sleb128 -352
 9301 0843 32000000 		.4byte	.LVL35
 9302 0847 3A000000 		.4byte	.LVL37
 9303 084b 0300     		.2byte	0x3
 9304 084d 72       		.byte	0x72
ARM GAS  /tmp/ccEGVymn.s 			page 180


 9305 084e 7F       		.sleb128 -1
 9306 084f 9F       		.byte	0x9f
 9307 0850 3A000000 		.4byte	.LVL37
 9308 0854 00010000 		.4byte	.LVL53
 9309 0858 0700     		.2byte	0x7
 9310 085a 91       		.byte	0x91
 9311 085b A07D     		.sleb128 -352
 9312 085d 06       		.byte	0x6
 9313 085e 31       		.byte	0x31
 9314 085f 1C       		.byte	0x1c
 9315 0860 9F       		.byte	0x9f
 9316 0861 00010000 		.4byte	.LVL53
 9317 0865 06010000 		.4byte	.LVL54
 9318 0869 0300     		.2byte	0x3
 9319 086b 91       		.byte	0x91
 9320 086c A07D     		.sleb128 -352
 9321 086e 10010000 		.4byte	.LVL55
 9322 0872 72010000 		.4byte	.LVL65
 9323 0876 0700     		.2byte	0x7
 9324 0878 91       		.byte	0x91
 9325 0879 A07D     		.sleb128 -352
 9326 087b 06       		.byte	0x6
 9327 087c 31       		.byte	0x31
 9328 087d 1C       		.byte	0x1c
 9329 087e 9F       		.byte	0x9f
 9330 087f 72010000 		.4byte	.LVL65
 9331 0883 74010000 		.4byte	.LVL66
 9332 0887 0200     		.2byte	0x2
 9333 0889 30       		.byte	0x30
 9334 088a 9F       		.byte	0x9f
 9335 088b 74010000 		.4byte	.LVL66
 9336 088f 9C010000 		.4byte	.LFE8
 9337 0893 0700     		.2byte	0x7
 9338 0895 91       		.byte	0x91
 9339 0896 A07D     		.sleb128 -352
 9340 0898 06       		.byte	0x6
 9341 0899 31       		.byte	0x31
 9342 089a 1C       		.byte	0x1c
 9343 089b 9F       		.byte	0x9f
 9344 089c 00000000 		.4byte	0
 9345 08a0 00000000 		.4byte	0
 9346              	.LVUS21:
 9347 08a4 00       		.uleb128 .LVU217
 9348 08a5 00       		.uleb128 .LVU340
 9349 08a6 00       		.uleb128 .LVU341
 9350 08a7 00       		.uleb128 0
 9351              	.LLST21:
 9352 08a8 34000000 		.4byte	.LVL36
 9353 08ac 72010000 		.4byte	.LVL65
 9354 08b0 0100     		.2byte	0x1
 9355 08b2 59       		.byte	0x59
 9356 08b3 74010000 		.4byte	.LVL66
 9357 08b7 9C010000 		.4byte	.LFE8
 9358 08bb 0100     		.2byte	0x1
 9359 08bd 59       		.byte	0x59
 9360 08be 00000000 		.4byte	0
 9361 08c2 00000000 		.4byte	0
ARM GAS  /tmp/ccEGVymn.s 			page 181


 9362              	.LVUS22:
 9363 08c6 02       		.uleb128 .LVU219
 9364 08c7 00       		.uleb128 .LVU221
 9365 08c8 00       		.uleb128 .LVU221
 9366 08c9 00       		.uleb128 .LVU306
 9367 08ca 00       		.uleb128 .LVU308
 9368 08cb 00       		.uleb128 .LVU340
 9369 08cc 00       		.uleb128 .LVU341
 9370 08cd 00       		.uleb128 0
 9371              	.LLST22:
 9372 08ce 34000000 		.4byte	.LVL36
 9373 08d2 3A000000 		.4byte	.LVL37
 9374 08d6 0100     		.2byte	0x1
 9375 08d8 52       		.byte	0x52
 9376 08d9 3A000000 		.4byte	.LVL37
 9377 08dd 06010000 		.4byte	.LVL54
 9378 08e1 0100     		.2byte	0x1
 9379 08e3 5A       		.byte	0x5a
 9380 08e4 10010000 		.4byte	.LVL55
 9381 08e8 72010000 		.4byte	.LVL65
 9382 08ec 0100     		.2byte	0x1
 9383 08ee 5A       		.byte	0x5a
 9384 08ef 74010000 		.4byte	.LVL66
 9385 08f3 9C010000 		.4byte	.LFE8
 9386 08f7 0100     		.2byte	0x1
 9387 08f9 5A       		.byte	0x5a
 9388 08fa 00000000 		.4byte	0
 9389 08fe 00000000 		.4byte	0
 9390              	.LVUS23:
 9391 0902 00       		.uleb128 .LVU228
 9392 0903 00       		.uleb128 .LVU239
 9393 0904 00       		.uleb128 .LVU239
 9394 0905 00       		.uleb128 .LVU264
 9395 0906 00       		.uleb128 .LVU308
 9396 0907 00       		.uleb128 .LVU313
 9397              	.LLST23:
 9398 0908 4E000000 		.4byte	.LVL38
 9399 090c 6C000000 		.4byte	.LVL39
 9400 0910 0100     		.2byte	0x1
 9401 0912 55       		.byte	0x55
 9402 0913 6C000000 		.4byte	.LVL39
 9403 0917 91000000 		.4byte	.LVL43-1
 9404 091b 0200     		.2byte	0x2
 9405 091d 73       		.byte	0x73
 9406 091e 7C       		.sleb128 -4
 9407 091f 10010000 		.4byte	.LVL55
 9408 0923 18010000 		.4byte	.LVL57
 9409 0927 0100     		.2byte	0x1
 9410 0929 55       		.byte	0x55
 9411 092a 00000000 		.4byte	0
 9412 092e 00000000 		.4byte	0
 9413              	.LVUS24:
 9414 0932 02       		.uleb128 .LVU242
 9415 0933 03       		.uleb128 .LVU243
 9416 0934 03       		.uleb128 .LVU243
 9417 0935 00       		.uleb128 .LVU292
 9418 0936 00       		.uleb128 .LVU292
ARM GAS  /tmp/ccEGVymn.s 			page 182


 9419 0937 00       		.uleb128 .LVU294
 9420 0938 01       		.uleb128 .LVU311
 9421 0939 02       		.uleb128 .LVU312
 9422 093a 02       		.uleb128 .LVU312
 9423 093b 00       		.uleb128 .LVU313
 9424 093c 00       		.uleb128 .LVU313
 9425 093d 00       		.uleb128 .LVU340
 9426 093e 00       		.uleb128 .LVU341
 9427 093f 00       		.uleb128 0
 9428              	.LLST24:
 9429 0940 70000000 		.4byte	.LVL40
 9430 0944 70000000 		.4byte	.LVL40
 9431 0948 0500     		.2byte	0x5
 9432 094a 55       		.byte	0x55
 9433 094b 93       		.byte	0x93
 9434 094c 04       		.uleb128 0x4
 9435 094d 93       		.byte	0x93
 9436 094e 04       		.uleb128 0x4
 9437 094f 70000000 		.4byte	.LVL40
 9438 0953 E8000000 		.4byte	.LVL50
 9439 0957 0600     		.2byte	0x6
 9440 0959 55       		.byte	0x55
 9441 095a 93       		.byte	0x93
 9442 095b 04       		.uleb128 0x4
 9443 095c 58       		.byte	0x58
 9444 095d 93       		.byte	0x93
 9445 095e 04       		.uleb128 0x4
 9446 095f E8000000 		.4byte	.LVL50
 9447 0963 F4000000 		.4byte	.LVL51
 9448 0967 0500     		.2byte	0x5
 9449 0969 93       		.byte	0x93
 9450 096a 04       		.uleb128 0x4
 9451 096b 58       		.byte	0x58
 9452 096c 93       		.byte	0x93
 9453 096d 04       		.uleb128 0x4
 9454 096e 16010000 		.4byte	.LVL56
 9455 0972 16010000 		.4byte	.LVL56
 9456 0976 0700     		.2byte	0x7
 9457 0978 74       		.byte	0x74
 9458 0979 8401     		.sleb128 132
 9459 097b 93       		.byte	0x93
 9460 097c 04       		.uleb128 0x4
 9461 097d 93       		.byte	0x93
 9462 097e 04       		.uleb128 0x4
 9463 097f 16010000 		.4byte	.LVL56
 9464 0983 18010000 		.4byte	.LVL57
 9465 0987 0800     		.2byte	0x8
 9466 0989 74       		.byte	0x74
 9467 098a 8401     		.sleb128 132
 9468 098c 93       		.byte	0x93
 9469 098d 04       		.uleb128 0x4
 9470 098e 58       		.byte	0x58
 9471 098f 93       		.byte	0x93
 9472 0990 04       		.uleb128 0x4
 9473 0991 18010000 		.4byte	.LVL57
 9474 0995 72010000 		.4byte	.LVL65
 9475 0999 0600     		.2byte	0x6
ARM GAS  /tmp/ccEGVymn.s 			page 183


 9476 099b 55       		.byte	0x55
 9477 099c 93       		.byte	0x93
 9478 099d 04       		.uleb128 0x4
 9479 099e 58       		.byte	0x58
 9480 099f 93       		.byte	0x93
 9481 09a0 04       		.uleb128 0x4
 9482 09a1 74010000 		.4byte	.LVL66
 9483 09a5 9C010000 		.4byte	.LFE8
 9484 09a9 0600     		.2byte	0x6
 9485 09ab 55       		.byte	0x55
 9486 09ac 93       		.byte	0x93
 9487 09ad 04       		.uleb128 0x4
 9488 09ae 58       		.byte	0x58
 9489 09af 93       		.byte	0x93
 9490 09b0 04       		.uleb128 0x4
 9491 09b1 00000000 		.4byte	0
 9492 09b5 00000000 		.4byte	0
 9493              	.LVUS26:
 9494 09b9 01       		.uleb128 .LVU287
 9495 09ba 00       		.uleb128 .LVU291
 9496 09bb 00       		.uleb128 .LVU314
 9497 09bc 00       		.uleb128 .LVU340
 9498              	.LLST26:
 9499 09bd E4000000 		.4byte	.LVL48
 9500 09c1 E6000000 		.4byte	.LVL49
 9501 09c5 0C00     		.2byte	0xc
 9502 09c7 73       		.byte	0x73
 9503 09c8 00       		.sleb128 0
 9504 09c9 08       		.byte	0x8
 9505 09ca 90       		.byte	0x90
 9506 09cb 1E       		.byte	0x1e
 9507 09cc 03       		.byte	0x3
 9508 09cd 00000000 		.4byte	g_arbiters
 9509 09d1 22       		.byte	0x22
 9510 09d2 9F       		.byte	0x9f
 9511 09d3 28010000 		.4byte	.LVL59
 9512 09d7 72010000 		.4byte	.LVL65
 9513 09db 0200     		.2byte	0x2
 9514 09dd 30       		.byte	0x30
 9515 09de 9F       		.byte	0x9f
 9516 09df 00000000 		.4byte	0
 9517 09e3 00000000 		.4byte	0
 9518              	.LVUS27:
 9519 09e7 00       		.uleb128 .LVU273
 9520 09e8 00       		.uleb128 .LVU277
 9521 09e9 00       		.uleb128 .LVU277
 9522 09ea 01       		.uleb128 .LVU287
 9523              	.LLST27:
 9524 09eb BC000000 		.4byte	.LVL44
 9525 09ef CA000000 		.4byte	.LVL45
 9526 09f3 0200     		.2byte	0x2
 9527 09f5 30       		.byte	0x30
 9528 09f6 9F       		.byte	0x9f
 9529 09f7 CA000000 		.4byte	.LVL45
 9530 09fb E4000000 		.4byte	.LVL48
 9531 09ff 0100     		.2byte	0x1
 9532 0a01 53       		.byte	0x53
ARM GAS  /tmp/ccEGVymn.s 			page 184


 9533 0a02 00000000 		.4byte	0
 9534 0a06 00000000 		.4byte	0
 9535              	.LVUS28:
 9536 0a0a 02       		.uleb128 .LVU316
 9537 0a0b 00       		.uleb128 .LVU333
 9538 0a0c 03       		.uleb128 .LVU337
 9539 0a0d 00       		.uleb128 .LVU340
 9540              	.LLST28:
 9541 0a0e 28010000 		.4byte	.LVL59
 9542 0a12 5E010000 		.4byte	.LVL62
 9543 0a16 0600     		.2byte	0x6
 9544 0a18 55       		.byte	0x55
 9545 0a19 93       		.byte	0x93
 9546 0a1a 04       		.uleb128 0x4
 9547 0a1b 58       		.byte	0x58
 9548 0a1c 93       		.byte	0x93
 9549 0a1d 04       		.uleb128 0x4
 9550 0a1e 60010000 		.4byte	.LVL63
 9551 0a22 72010000 		.4byte	.LVL65
 9552 0a26 0600     		.2byte	0x6
 9553 0a28 55       		.byte	0x55
 9554 0a29 93       		.byte	0x93
 9555 0a2a 04       		.uleb128 0x4
 9556 0a2b 58       		.byte	0x58
 9557 0a2c 93       		.byte	0x93
 9558 0a2d 04       		.uleb128 0x4
 9559 0a2e 00000000 		.4byte	0
 9560 0a32 00000000 		.4byte	0
 9561              	.LVUS25:
 9562 0a36 04       		.uleb128 .LVU244
 9563 0a37 00       		.uleb128 .LVU252
 9564              	.LLST25:
 9565 0a38 70000000 		.4byte	.LVL40
 9566 0a3c 82000000 		.4byte	.LVL41
 9567 0a40 0100     		.2byte	0x1
 9568 0a42 54       		.byte	0x54
 9569 0a43 00000000 		.4byte	0
 9570 0a47 00000000 		.4byte	0
 9571              	.LVUS29:
 9572 0a4b 02       		.uleb128 .LVU254
 9573 0a4c 00       		.uleb128 .LVU261
 9574              	.LLST29:
 9575 0a4d 82000000 		.4byte	.LVL41
 9576 0a51 8E000000 		.4byte	.LVL42
 9577 0a55 0400     		.2byte	0x4
 9578 0a57 91       		.byte	0x91
 9579 0a58 F07D     		.sleb128 -272
 9580 0a5a 9F       		.byte	0x9f
 9581 0a5b 00000000 		.4byte	0
 9582 0a5f 00000000 		.4byte	0
 9583              	.LLST6:
 9584 0a63 00000000 		.4byte	.LFB7
 9585 0a67 04000000 		.4byte	.LCFI16
 9586 0a6b 0200     		.2byte	0x2
 9587 0a6d 7D       		.byte	0x7d
 9588 0a6e 00       		.sleb128 0
 9589 0a6f 04000000 		.4byte	.LCFI16
ARM GAS  /tmp/ccEGVymn.s 			page 185


 9590 0a73 08000000 		.4byte	.LCFI17
 9591 0a77 0200     		.2byte	0x2
 9592 0a79 7D       		.byte	0x7d
 9593 0a7a 24       		.sleb128 36
 9594 0a7b 08000000 		.4byte	.LCFI17
 9595 0a7f C0000000 		.4byte	.LCFI18
 9596 0a83 0300     		.2byte	0x3
 9597 0a85 7D       		.byte	0x7d
 9598 0a86 B001     		.sleb128 176
 9599 0a88 C0000000 		.4byte	.LCFI18
 9600 0a8c C4000000 		.4byte	.LCFI19
 9601 0a90 0200     		.2byte	0x2
 9602 0a92 7D       		.byte	0x7d
 9603 0a93 24       		.sleb128 36
 9604 0a94 C4000000 		.4byte	.LCFI19
 9605 0a98 F0000000 		.4byte	.LFE7
 9606 0a9c 0300     		.2byte	0x3
 9607 0a9e 7D       		.byte	0x7d
 9608 0a9f B001     		.sleb128 176
 9609 0aa1 00000000 		.4byte	0
 9610 0aa5 00000000 		.4byte	0
 9611              	.LVUS7:
 9612 0aa9 00       		.uleb128 0
 9613 0aaa 00       		.uleb128 .LVU137
 9614 0aab 00       		.uleb128 .LVU137
 9615 0aac 00       		.uleb128 0
 9616              	.LLST7:
 9617 0aad 00000000 		.4byte	.LVL17
 9618 0ab1 38000000 		.4byte	.LVL21
 9619 0ab5 0100     		.2byte	0x1
 9620 0ab7 50       		.byte	0x50
 9621 0ab8 38000000 		.4byte	.LVL21
 9622 0abc F0000000 		.4byte	.LFE7
 9623 0ac0 0100     		.2byte	0x1
 9624 0ac2 58       		.byte	0x58
 9625 0ac3 00000000 		.4byte	0
 9626 0ac7 00000000 		.4byte	0
 9627              	.LVUS8:
 9628 0acb 00       		.uleb128 0
 9629 0acc 00       		.uleb128 .LVU137
 9630 0acd 00       		.uleb128 .LVU137
 9631 0ace 00       		.uleb128 0
 9632              	.LLST8:
 9633 0acf 00000000 		.4byte	.LVL17
 9634 0ad3 38000000 		.4byte	.LVL21
 9635 0ad7 0100     		.2byte	0x1
 9636 0ad9 51       		.byte	0x51
 9637 0ada 38000000 		.4byte	.LVL21
 9638 0ade F0000000 		.4byte	.LFE7
 9639 0ae2 0400     		.2byte	0x4
 9640 0ae4 F3       		.byte	0xf3
 9641 0ae5 01       		.uleb128 0x1
 9642 0ae6 51       		.byte	0x51
 9643 0ae7 9F       		.byte	0x9f
 9644 0ae8 00000000 		.4byte	0
 9645 0aec 00000000 		.4byte	0
 9646              	.LVUS9:
ARM GAS  /tmp/ccEGVymn.s 			page 186


 9647 0af0 00       		.uleb128 0
 9648 0af1 00       		.uleb128 .LVU137
 9649 0af2 00       		.uleb128 .LVU137
 9650 0af3 00       		.uleb128 0
 9651              	.LLST9:
 9652 0af4 00000000 		.4byte	.LVL17
 9653 0af8 38000000 		.4byte	.LVL21
 9654 0afc 0100     		.2byte	0x1
 9655 0afe 52       		.byte	0x52
 9656 0aff 38000000 		.4byte	.LVL21
 9657 0b03 F0000000 		.4byte	.LFE7
 9658 0b07 0100     		.2byte	0x1
 9659 0b09 59       		.byte	0x59
 9660 0b0a 00000000 		.4byte	0
 9661 0b0e 00000000 		.4byte	0
 9662              	.LVUS11:
 9663 0b12 03       		.uleb128 .LVU133
 9664 0b13 00       		.uleb128 .LVU137
 9665              	.LLST11:
 9666 0b14 1A000000 		.4byte	.LVL20
 9667 0b18 38000000 		.4byte	.LVL21
 9668 0b1c 0200     		.2byte	0x2
 9669 0b1e 30       		.byte	0x30
 9670 0b1f 9F       		.byte	0x9f
 9671 0b20 00000000 		.4byte	0
 9672 0b24 00000000 		.4byte	0
 9673              	.LVUS12:
 9674 0b28 02       		.uleb128 .LVU139
 9675 0b29 00       		.uleb128 .LVU176
 9676 0b2a 00       		.uleb128 .LVU176
 9677 0b2b 00       		.uleb128 .LVU185
 9678 0b2c 00       		.uleb128 .LVU189
 9679 0b2d 00       		.uleb128 0
 9680              	.LLST12:
 9681 0b2e 38000000 		.4byte	.LVL21
 9682 0b32 8C000000 		.4byte	.LVL29
 9683 0b36 0100     		.2byte	0x1
 9684 0b38 5C       		.byte	0x5c
 9685 0b39 8C000000 		.4byte	.LVL29
 9686 0b3d BA000000 		.4byte	.LVL30
 9687 0b41 0300     		.2byte	0x3
 9688 0b43 7C       		.byte	0x7c
 9689 0b44 40       		.sleb128 -64
 9690 0b45 9F       		.byte	0x9f
 9691 0b46 C4000000 		.4byte	.LVL31
 9692 0b4a F0000000 		.4byte	.LFE7
 9693 0b4e 0100     		.2byte	0x1
 9694 0b50 5C       		.byte	0x5c
 9695 0b51 00000000 		.4byte	0
 9696 0b55 00000000 		.4byte	0
 9697              	.LVUS13:
 9698 0b59 03       		.uleb128 .LVU140
 9699 0b5a 00       		.uleb128 .LVU155
 9700 0b5b 00       		.uleb128 .LVU155
 9701 0b5c 00       		.uleb128 .LVU161
 9702 0b5d 00       		.uleb128 .LVU189
 9703 0b5e 00       		.uleb128 .LVU192
ARM GAS  /tmp/ccEGVymn.s 			page 187


 9704              	.LLST13:
 9705 0b5f 38000000 		.4byte	.LVL21
 9706 0b63 56000000 		.4byte	.LVL26
 9707 0b67 0300     		.2byte	0x3
 9708 0b69 09       		.byte	0x9
 9709 0b6a FF       		.byte	0xff
 9710 0b6b 9F       		.byte	0x9f
 9711 0b6c 56000000 		.4byte	.LVL26
 9712 0b70 5C000000 		.4byte	.LVL27
 9713 0b74 0100     		.2byte	0x1
 9714 0b76 53       		.byte	0x53
 9715 0b77 C4000000 		.4byte	.LVL31
 9716 0b7b DE000000 		.4byte	.LVL32
 9717 0b7f 0300     		.2byte	0x3
 9718 0b81 09       		.byte	0x9
 9719 0b82 FF       		.byte	0xff
 9720 0b83 9F       		.byte	0x9f
 9721 0b84 00000000 		.4byte	0
 9722 0b88 00000000 		.4byte	0
 9723              	.LVUS16:
 9724 0b8c 05       		.uleb128 .LVU142
 9725 0b8d 00       		.uleb128 .LVU146
 9726 0b8e 00       		.uleb128 .LVU146
 9727 0b8f 00       		.uleb128 .LVU148
 9728 0b90 03       		.uleb128 .LVU151
 9729 0b91 00       		.uleb128 .LVU153
 9730 0b92 00       		.uleb128 .LVU153
 9731 0b93 00       		.uleb128 .LVU161
 9732              	.LLST16:
 9733 0b94 38000000 		.4byte	.LVL21
 9734 0b98 46000000 		.4byte	.LVL22
 9735 0b9c 0200     		.2byte	0x2
 9736 0b9e 30       		.byte	0x30
 9737 0b9f 9F       		.byte	0x9f
 9738 0ba0 46000000 		.4byte	.LVL22
 9739 0ba4 4E000000 		.4byte	.LVL24
 9740 0ba8 0100     		.2byte	0x1
 9741 0baa 53       		.byte	0x53
 9742 0bab 4E000000 		.4byte	.LVL24
 9743 0baf 52000000 		.4byte	.LVL25
 9744 0bb3 0300     		.2byte	0x3
 9745 0bb5 73       		.byte	0x73
 9746 0bb6 01       		.sleb128 1
 9747 0bb7 9F       		.byte	0x9f
 9748 0bb8 52000000 		.4byte	.LVL25
 9749 0bbc 5C000000 		.4byte	.LVL27
 9750 0bc0 0100     		.2byte	0x1
 9751 0bc2 53       		.byte	0x53
 9752 0bc3 00000000 		.4byte	0
 9753 0bc7 00000000 		.4byte	0
 9754              	.LVUS17:
 9755 0bcb 00       		.uleb128 .LVU146
 9756 0bcc 00       		.uleb128 .LVU147
 9757 0bcd 00       		.uleb128 .LVU147
 9758 0bce 00       		.uleb128 .LVU148
 9759 0bcf 01       		.uleb128 .LVU149
 9760 0bd0 00       		.uleb128 .LVU173
ARM GAS  /tmp/ccEGVymn.s 			page 188


 9761 0bd1 00       		.uleb128 .LVU192
 9762 0bd2 00       		.uleb128 0
 9763              	.LLST17:
 9764 0bd3 46000000 		.4byte	.LVL22
 9765 0bd7 4C000000 		.4byte	.LVL23
 9766 0bdb 0100     		.2byte	0x1
 9767 0bdd 54       		.byte	0x54
 9768 0bde 4C000000 		.4byte	.LVL23
 9769 0be2 4E000000 		.4byte	.LVL24
 9770 0be6 0300     		.2byte	0x3
 9771 0be8 74       		.byte	0x74
 9772 0be9 40       		.sleb128 -64
 9773 0bea 9F       		.byte	0x9f
 9774 0beb 4E000000 		.4byte	.LVL24
 9775 0bef 88000000 		.4byte	.LVL28
 9776 0bf3 0100     		.2byte	0x1
 9777 0bf5 54       		.byte	0x54
 9778 0bf6 DE000000 		.4byte	.LVL32
 9779 0bfa F0000000 		.4byte	.LFE7
 9780 0bfe 0100     		.2byte	0x1
 9781 0c00 54       		.byte	0x54
 9782 0c01 00000000 		.4byte	0
 9783 0c05 00000000 		.4byte	0
 9784              	.LVUS14:
 9785 0c09 03       		.uleb128 .LVU158
 9786 0c0a 00       		.uleb128 .LVU173
 9787 0c0b 00       		.uleb128 .LVU192
 9788 0c0c 00       		.uleb128 0
 9789              	.LLST14:
 9790 0c0d 56000000 		.4byte	.LVL26
 9791 0c11 88000000 		.4byte	.LVL28
 9792 0c15 0D00     		.2byte	0xd
 9793 0c17 91       		.byte	0x91
 9794 0c18 00       		.sleb128 0
 9795 0c19 F3       		.byte	0xf3
 9796 0c1a 01       		.uleb128 0x1
 9797 0c1b 51       		.byte	0x51
 9798 0c1c 1C       		.byte	0x1c
 9799 0c1d 7C       		.byte	0x7c
 9800 0c1e 00       		.sleb128 0
 9801 0c1f 22       		.byte	0x22
 9802 0c20 08       		.byte	0x8
 9803 0c21 A8       		.byte	0xa8
 9804 0c22 1C       		.byte	0x1c
 9805 0c23 9F       		.byte	0x9f
 9806 0c24 DE000000 		.4byte	.LVL32
 9807 0c28 F0000000 		.4byte	.LFE7
 9808 0c2c 0D00     		.2byte	0xd
 9809 0c2e 91       		.byte	0x91
 9810 0c2f 00       		.sleb128 0
 9811 0c30 F3       		.byte	0xf3
 9812 0c31 01       		.uleb128 0x1
 9813 0c32 51       		.byte	0x51
 9814 0c33 1C       		.byte	0x1c
 9815 0c34 7C       		.byte	0x7c
 9816 0c35 00       		.sleb128 0
 9817 0c36 22       		.byte	0x22
ARM GAS  /tmp/ccEGVymn.s 			page 189


 9818 0c37 08       		.byte	0x8
 9819 0c38 A8       		.byte	0xa8
 9820 0c39 1C       		.byte	0x1c
 9821 0c3a 9F       		.byte	0x9f
 9822 0c3b 00000000 		.4byte	0
 9823 0c3f 00000000 		.4byte	0
 9824              	.LVUS15:
 9825 0c43 04       		.uleb128 .LVU159
 9826 0c44 00       		.uleb128 .LVU173
 9827 0c45 00       		.uleb128 .LVU192
 9828 0c46 00       		.uleb128 0
 9829              	.LLST15:
 9830 0c47 56000000 		.4byte	.LVL26
 9831 0c4b 88000000 		.4byte	.LVL28
 9832 0c4f 0100     		.2byte	0x1
 9833 0c51 54       		.byte	0x54
 9834 0c52 DE000000 		.4byte	.LVL32
 9835 0c56 F0000000 		.4byte	.LFE7
 9836 0c5a 0100     		.2byte	0x1
 9837 0c5c 54       		.byte	0x54
 9838 0c5d 00000000 		.4byte	0
 9839 0c61 00000000 		.4byte	0
 9840              	.LVUS10:
 9841 0c65 02       		.uleb128 .LVU114
 9842 0c66 00       		.uleb128 .LVU121
 9843              	.LLST10:
 9844 0c67 0E000000 		.4byte	.LVL18
 9845 0c6b 14000000 		.4byte	.LVL19
 9846 0c6f 0400     		.2byte	0x4
 9847 0c71 91       		.byte	0x91
 9848 0c72 D87E     		.sleb128 -168
 9849 0c74 9F       		.byte	0x9f
 9850 0c75 00000000 		.4byte	0
 9851 0c79 00000000 		.4byte	0
 9852              	.LVUS18:
 9853 0c7d 02       		.uleb128 .LVU123
 9854 0c7e 00       		.uleb128 .LVU130
 9855              	.LLST18:
 9856 0c7f 14000000 		.4byte	.LVL19
 9857 0c83 1A000000 		.4byte	.LVL20
 9858 0c87 0400     		.2byte	0x4
 9859 0c89 91       		.byte	0x91
 9860 0c8a 987F     		.sleb128 -104
 9861 0c8c 9F       		.byte	0x9f
 9862 0c8d 00000000 		.4byte	0
 9863 0c91 00000000 		.4byte	0
 9864              	.LLST3:
 9865 0c95 00000000 		.4byte	.LFB5
 9866 0c99 04000000 		.4byte	.LCFI13
 9867 0c9d 0200     		.2byte	0x2
 9868 0c9f 7D       		.byte	0x7d
 9869 0ca0 00       		.sleb128 0
 9870 0ca1 04000000 		.4byte	.LCFI13
 9871 0ca5 0A000000 		.4byte	.LCFI14
 9872 0ca9 0200     		.2byte	0x2
 9873 0cab 7D       		.byte	0x7d
 9874 0cac 24       		.sleb128 36
ARM GAS  /tmp/ccEGVymn.s 			page 190


 9875 0cad 0A000000 		.4byte	.LCFI14
 9876 0cb1 90000000 		.4byte	.LCFI15
 9877 0cb5 0200     		.2byte	0x2
 9878 0cb7 7D       		.byte	0x7d
 9879 0cb8 38       		.sleb128 56
 9880 0cb9 90000000 		.4byte	.LCFI15
 9881 0cbd A4000000 		.4byte	.LFE5
 9882 0cc1 0200     		.2byte	0x2
 9883 0cc3 7D       		.byte	0x7d
 9884 0cc4 24       		.sleb128 36
 9885 0cc5 00000000 		.4byte	0
 9886 0cc9 00000000 		.4byte	0
 9887              	.LVUS4:
 9888 0ccd 03       		.uleb128 .LVU53
 9889 0cce 00       		.uleb128 .LVU64
 9890 0ccf 00       		.uleb128 .LVU64
 9891 0cd0 00       		.uleb128 .LVU91
 9892 0cd1 00       		.uleb128 .LVU91
 9893 0cd2 01       		.uleb128 .LVU93
 9894 0cd3 01       		.uleb128 .LVU93
 9895 0cd4 00       		.uleb128 .LVU96
 9896              	.LLST4:
 9897 0cd5 00000000 		.4byte	.LVL6
 9898 0cd9 26000000 		.4byte	.LVL7
 9899 0cdd 0200     		.2byte	0x2
 9900 0cdf 30       		.byte	0x30
 9901 0ce0 9F       		.byte	0x9f
 9902 0ce1 26000000 		.4byte	.LVL7
 9903 0ce5 84000000 		.4byte	.LVL13
 9904 0ce9 0100     		.2byte	0x1
 9905 0ceb 54       		.byte	0x54
 9906 0cec 84000000 		.4byte	.LVL13
 9907 0cf0 86000000 		.4byte	.LVL14
 9908 0cf4 0300     		.2byte	0x3
 9909 0cf6 74       		.byte	0x74
 9910 0cf7 7F       		.sleb128 -1
 9911 0cf8 9F       		.byte	0x9f
 9912 0cf9 86000000 		.4byte	.LVL14
 9913 0cfd 8E000000 		.4byte	.LVL15
 9914 0d01 0100     		.2byte	0x1
 9915 0d03 54       		.byte	0x54
 9916 0d04 00000000 		.4byte	0
 9917 0d08 00000000 		.4byte	0
 9918              	.LVUS5:
 9919 0d0c 00       		.uleb128 .LVU74
 9920 0d0d 00       		.uleb128 .LVU79
 9921              	.LLST5:
 9922 0d0e 48000000 		.4byte	.LVL10
 9923 0d12 5E000000 		.4byte	.LVL11
 9924 0d16 0100     		.2byte	0x1
 9925 0d18 54       		.byte	0x54
 9926 0d19 00000000 		.4byte	0
 9927 0d1d 00000000 		.4byte	0
 9928              	.LLST0:
 9929 0d21 00000000 		.4byte	.LFB3
 9930 0d25 04000000 		.4byte	.LCFI0
 9931 0d29 0200     		.2byte	0x2
ARM GAS  /tmp/ccEGVymn.s 			page 191


 9932 0d2b 7D       		.byte	0x7d
 9933 0d2c 00       		.sleb128 0
 9934 0d2d 04000000 		.4byte	.LCFI0
 9935 0d31 08000000 		.4byte	.LCFI1
 9936 0d35 0200     		.2byte	0x2
 9937 0d37 7D       		.byte	0x7d
 9938 0d38 10       		.sleb128 16
 9939 0d39 08000000 		.4byte	.LCFI1
 9940 0d3d 40000000 		.4byte	.LCFI2
 9941 0d41 0200     		.2byte	0x2
 9942 0d43 7D       		.byte	0x7d
 9943 0d44 18       		.sleb128 24
 9944 0d45 40000000 		.4byte	.LCFI2
 9945 0d49 42000000 		.4byte	.LCFI3
 9946 0d4d 0200     		.2byte	0x2
 9947 0d4f 7D       		.byte	0x7d
 9948 0d50 10       		.sleb128 16
 9949 0d51 42000000 		.4byte	.LCFI3
 9950 0d55 44000000 		.4byte	.LCFI4
 9951 0d59 0200     		.2byte	0x2
 9952 0d5b 7D       		.byte	0x7d
 9953 0d5c 00       		.sleb128 0
 9954 0d5d 44000000 		.4byte	.LCFI4
 9955 0d61 48000000 		.4byte	.LCFI5
 9956 0d65 0200     		.2byte	0x2
 9957 0d67 7D       		.byte	0x7d
 9958 0d68 18       		.sleb128 24
 9959 0d69 48000000 		.4byte	.LCFI5
 9960 0d6d 4A000000 		.4byte	.LCFI6
 9961 0d71 0200     		.2byte	0x2
 9962 0d73 7D       		.byte	0x7d
 9963 0d74 10       		.sleb128 16
 9964 0d75 4A000000 		.4byte	.LCFI6
 9965 0d79 58000000 		.4byte	.LFE3
 9966 0d7d 0200     		.2byte	0x2
 9967 0d7f 7D       		.byte	0x7d
 9968 0d80 00       		.sleb128 0
 9969 0d81 00000000 		.4byte	0
 9970 0d85 00000000 		.4byte	0
 9971              	.LVUS1:
 9972 0d89 03       		.uleb128 .LVU3
 9973 0d8a 00       		.uleb128 .LVU15
 9974 0d8b 00       		.uleb128 .LVU15
 9975 0d8c 00       		.uleb128 .LVU26
 9976              	.LLST1:
 9977 0d8d 00000000 		.4byte	.LVL0
 9978 0d91 1E000000 		.4byte	.LVL1
 9979 0d95 0200     		.2byte	0x2
 9980 0d97 30       		.byte	0x30
 9981 0d98 9F       		.byte	0x9f
 9982 0d99 1E000000 		.4byte	.LVL1
 9983 0d9d 38000000 		.4byte	.LVL4
 9984 0da1 0100     		.2byte	0x1
 9985 0da3 53       		.byte	0x53
 9986 0da4 00000000 		.4byte	0
 9987 0da8 00000000 		.4byte	0
 9988              	.LLST2:
ARM GAS  /tmp/ccEGVymn.s 			page 192


 9989 0dac 00000000 		.4byte	.LFB4
 9990 0db0 02000000 		.4byte	.LCFI7
 9991 0db4 0200     		.2byte	0x2
 9992 0db6 7D       		.byte	0x7d
 9993 0db7 00       		.sleb128 0
 9994 0db8 02000000 		.4byte	.LCFI7
 9995 0dbc 04000000 		.4byte	.LCFI8
 9996 0dc0 0200     		.2byte	0x2
 9997 0dc2 7D       		.byte	0x7d
 9998 0dc3 08       		.sleb128 8
 9999 0dc4 04000000 		.4byte	.LCFI8
 10000 0dc8 06000000 		.4byte	.LCFI9
 10001 0dcc 0200     		.2byte	0x2
 10002 0dce 7D       		.byte	0x7d
 10003 0dcf 1C       		.sleb128 28
 10004 0dd0 06000000 		.4byte	.LCFI9
 10005 0dd4 40000000 		.4byte	.LCFI10
 10006 0dd8 0200     		.2byte	0x2
 10007 0dda 7D       		.byte	0x7d
 10008 0ddb 28       		.sleb128 40
 10009 0ddc 40000000 		.4byte	.LCFI10
 10010 0de0 44000000 		.4byte	.LCFI11
 10011 0de4 0200     		.2byte	0x2
 10012 0de6 7D       		.byte	0x7d
 10013 0de7 1C       		.sleb128 28
 10014 0de8 44000000 		.4byte	.LCFI11
 10015 0dec 46000000 		.4byte	.LCFI12
 10016 0df0 0200     		.2byte	0x2
 10017 0df2 7D       		.byte	0x7d
 10018 0df3 08       		.sleb128 8
 10019 0df4 46000000 		.4byte	.LCFI12
 10020 0df8 54000000 		.4byte	.LFE4
 10021 0dfc 0200     		.2byte	0x2
 10022 0dfe 7D       		.byte	0x7d
 10023 0dff 00       		.sleb128 0
 10024 0e00 00000000 		.4byte	0
 10025 0e04 00000000 		.4byte	0
 10026              		.section	.debug_aranges,"",%progbits
 10027 0000 74000000 		.4byte	0x74
 10028 0004 0200     		.2byte	0x2
 10029 0006 00000000 		.4byte	.Ldebug_info0
 10030 000a 04       		.byte	0x4
 10031 000b 00       		.byte	0
 10032 000c 0000     		.2byte	0
 10033 000e 0000     		.2byte	0
 10034 0010 00000000 		.4byte	.LFB3
 10035 0014 58000000 		.4byte	.LFE3-.LFB3
 10036 0018 00000000 		.4byte	.LFB4
 10037 001c 54000000 		.4byte	.LFE4-.LFB4
 10038 0020 00000000 		.4byte	.LFB5
 10039 0024 A4000000 		.4byte	.LFE5-.LFB5
 10040 0028 00000000 		.4byte	.LFB6
 10041 002c 0A000000 		.4byte	.LFE6-.LFB6
 10042 0030 00000000 		.4byte	.LFB7
 10043 0034 F0000000 		.4byte	.LFE7-.LFB7
 10044 0038 00000000 		.4byte	.LFB8
 10045 003c 9C010000 		.4byte	.LFE8-.LFB8
ARM GAS  /tmp/ccEGVymn.s 			page 193


 10046 0040 00000000 		.4byte	.LFB9
 10047 0044 28030000 		.4byte	.LFE9-.LFB9
 10048 0048 00000000 		.4byte	.LFB10
 10049 004c A4030000 		.4byte	.LFE10-.LFB10
 10050 0050 00000000 		.4byte	.LFB11
 10051 0054 8C010000 		.4byte	.LFE11-.LFB11
 10052 0058 00000000 		.4byte	.LFB12
 10053 005c 9C000000 		.4byte	.LFE12-.LFB12
 10054 0060 00000000 		.4byte	.LFB13
 10055 0064 20000000 		.4byte	.LFE13-.LFB13
 10056 0068 00000000 		.4byte	.LFB14
 10057 006c 0C000000 		.4byte	.LFE14-.LFB14
 10058 0070 00000000 		.4byte	0
 10059 0074 00000000 		.4byte	0
 10060              		.section	.debug_ranges,"",%progbits
 10061              	.Ldebug_ranges0:
 10062 0000 00000000 		.4byte	.LBB26
 10063 0004 02000000 		.4byte	.LBE26
 10064 0008 04000000 		.4byte	.LBB27
 10065 000c 06000000 		.4byte	.LBE27
 10066 0010 08000000 		.4byte	.LBB28
 10067 0014 0A000000 		.4byte	.LBE28
 10068 0018 10000000 		.4byte	.LBB29
 10069 001c 3E000000 		.4byte	.LBE29
 10070 0020 00000000 		.4byte	0
 10071 0024 00000000 		.4byte	0
 10072 0028 00000000 		.4byte	.LBB30
 10073 002c 00000000 		.4byte	.LBE30
 10074 0030 04000000 		.4byte	.LBB33
 10075 0034 08000000 		.4byte	.LBE33
 10076 0038 0A000000 		.4byte	.LBB34
 10077 003c 0E000000 		.4byte	.LBE34
 10078 0040 10000000 		.4byte	.LBB35
 10079 0044 12000000 		.4byte	.LBE35
 10080 0048 16000000 		.4byte	.LBB36
 10081 004c 8E000000 		.4byte	.LBE36
 10082 0050 00000000 		.4byte	0
 10083 0054 00000000 		.4byte	0
 10084 0058 48000000 		.4byte	.LBB31
 10085 005c 80000000 		.4byte	.LBE31
 10086 0060 84000000 		.4byte	.LBB32
 10087 0064 86000000 		.4byte	.LBE32
 10088 0068 00000000 		.4byte	0
 10089 006c 00000000 		.4byte	0
 10090 0070 04000000 		.4byte	.LBB37
 10091 0074 06000000 		.4byte	.LBE37
 10092 0078 0E000000 		.4byte	.LBB51
 10093 007c 14000000 		.4byte	.LBE51
 10094 0080 00000000 		.4byte	0
 10095 0084 00000000 		.4byte	0
 10096 0088 08000000 		.4byte	.LBB40
 10097 008c 0C000000 		.4byte	.LBE40
 10098 0090 1A000000 		.4byte	.LBB54
 10099 0094 98000000 		.4byte	.LBE54
 10100 0098 C4000000 		.4byte	.LBB56
 10101 009c F0000000 		.4byte	.LBE56
 10102 00a0 00000000 		.4byte	0
ARM GAS  /tmp/ccEGVymn.s 			page 194


 10103 00a4 00000000 		.4byte	0
 10104 00a8 1C000000 		.4byte	.LBB41
 10105 00ac 88000000 		.4byte	.LBE41
 10106 00b0 C4000000 		.4byte	.LBB50
 10107 00b4 F0000000 		.4byte	.LBE50
 10108 00b8 00000000 		.4byte	0
 10109 00bc 00000000 		.4byte	0
 10110 00c0 1C000000 		.4byte	.LBB42
 10111 00c4 38000000 		.4byte	.LBE42
 10112 00c8 56000000 		.4byte	.LBB48
 10113 00cc 88000000 		.4byte	.LBE48
 10114 00d0 DE000000 		.4byte	.LBB49
 10115 00d4 F0000000 		.4byte	.LBE49
 10116 00d8 00000000 		.4byte	0
 10117 00dc 00000000 		.4byte	0
 10118 00e0 3C000000 		.4byte	.LBB44
 10119 00e4 42000000 		.4byte	.LBE44
 10120 00e8 4E000000 		.4byte	.LBB45
 10121 00ec 4E000000 		.4byte	.LBE45
 10122 00f0 4E000000 		.4byte	.LBB46
 10123 00f4 50000000 		.4byte	.LBE46
 10124 00f8 52000000 		.4byte	.LBB47
 10125 00fc 56000000 		.4byte	.LBE47
 10126 0100 00000000 		.4byte	0
 10127 0104 00000000 		.4byte	0
 10128 0108 00000000 		.4byte	.LBB57
 10129 010c 0C000000 		.4byte	.LBE57
 10130 0110 16000000 		.4byte	.LBB92
 10131 0114 06010000 		.4byte	.LBE92
 10132 0118 10010000 		.4byte	.LBB93
 10133 011c 9C010000 		.4byte	.LBE93
 10134 0120 00000000 		.4byte	0
 10135 0124 00000000 		.4byte	0
 10136 0128 16000000 		.4byte	.LBB58
 10137 012c 20000000 		.4byte	.LBE58
 10138 0130 24000000 		.4byte	.LBB90
 10139 0134 00010000 		.4byte	.LBE90
 10140 0138 10010000 		.4byte	.LBB91
 10141 013c 9C010000 		.4byte	.LBE91
 10142 0140 00000000 		.4byte	0
 10143 0144 00000000 		.4byte	0
 10144 0148 16000000 		.4byte	.LBB59
 10145 014c 20000000 		.4byte	.LBE59
 10146 0150 24000000 		.4byte	.LBB85
 10147 0154 26000000 		.4byte	.LBE85
 10148 0158 28000000 		.4byte	.LBB86
 10149 015c 2A000000 		.4byte	.LBE86
 10150 0160 2E000000 		.4byte	.LBB87
 10151 0164 32000000 		.4byte	.LBE87
 10152 0168 34000000 		.4byte	.LBB88
 10153 016c 00010000 		.4byte	.LBE88
 10154 0170 10010000 		.4byte	.LBB89
 10155 0174 9C010000 		.4byte	.LBE89
 10156 0178 00000000 		.4byte	0
 10157 017c 00000000 		.4byte	0
 10158 0180 16000000 		.4byte	.LBB60
 10159 0184 20000000 		.4byte	.LBE60
ARM GAS  /tmp/ccEGVymn.s 			page 195


 10160 0188 3A000000 		.4byte	.LBB83
 10161 018c F4000000 		.4byte	.LBE83
 10162 0190 10010000 		.4byte	.LBB84
 10163 0194 9C010000 		.4byte	.LBE84
 10164 0198 00000000 		.4byte	0
 10165 019c 00000000 		.4byte	0
 10166 01a0 16000000 		.4byte	.LBB61
 10167 01a4 1A000000 		.4byte	.LBE61
 10168 01a8 70000000 		.4byte	.LBB77
 10169 01ac 70000000 		.4byte	.LBE77
 10170 01b0 76000000 		.4byte	.LBB78
 10171 01b4 82000000 		.4byte	.LBE78
 10172 01b8 00000000 		.4byte	0
 10173 01bc 00000000 		.4byte	0
 10174 01c0 1A000000 		.4byte	.LBB65
 10175 01c4 20000000 		.4byte	.LBE65
 10176 01c8 BC000000 		.4byte	.LBB81
 10177 01cc F4000000 		.4byte	.LBE81
 10178 01d0 28010000 		.4byte	.LBB82
 10179 01d4 74010000 		.4byte	.LBE82
 10180 01d8 00000000 		.4byte	0
 10181 01dc 00000000 		.4byte	0
 10182 01e0 1A000000 		.4byte	.LBB66
 10183 01e4 20000000 		.4byte	.LBE66
 10184 01e8 BC000000 		.4byte	.LBB70
 10185 01ec E4000000 		.4byte	.LBE70
 10186 01f0 E4000000 		.4byte	.LBB71
 10187 01f4 E8000000 		.4byte	.LBE71
 10188 01f8 00000000 		.4byte	0
 10189 01fc 00000000 		.4byte	0
 10190 0200 34010000 		.4byte	.LBB72
 10191 0204 60010000 		.4byte	.LBE72
 10192 0208 70010000 		.4byte	.LBB76
 10193 020c 74010000 		.4byte	.LBE76
 10194 0210 00000000 		.4byte	0
 10195 0214 00000000 		.4byte	0
 10196 0218 0A000000 		.4byte	.LBB94
 10197 021c 0E000000 		.4byte	.LBE94
 10198 0220 20000000 		.4byte	.LBB101
 10199 0224 08030000 		.4byte	.LBE101
 10200 0228 00000000 		.4byte	0
 10201 022c 00000000 		.4byte	0
 10202 0230 2C000000 		.4byte	.LBB95
 10203 0234 32000000 		.4byte	.LBE95
 10204 0238 36000000 		.4byte	.LBB98
 10205 023c 3C000000 		.4byte	.LBE98
 10206 0240 4A000000 		.4byte	.LBB99
 10207 0244 06020000 		.4byte	.LBE99
 10208 0248 08020000 		.4byte	.LBB100
 10209 024c FE020000 		.4byte	.LBE100
 10210 0250 00000000 		.4byte	0
 10211 0254 00000000 		.4byte	0
 10212 0258 02020000 		.4byte	.LBB96
 10213 025c 06020000 		.4byte	.LBE96
 10214 0260 08020000 		.4byte	.LBB97
 10215 0264 FE020000 		.4byte	.LBE97
 10216 0268 00000000 		.4byte	0
ARM GAS  /tmp/ccEGVymn.s 			page 196


 10217 026c 00000000 		.4byte	0
 10218 0270 0C000000 		.4byte	.LBB102
 10219 0274 0E000000 		.4byte	.LBE102
 10220 0278 14000000 		.4byte	.LBB112
 10221 027c 92030000 		.4byte	.LBE112
 10222 0280 00000000 		.4byte	0
 10223 0284 00000000 		.4byte	0
 10224 0288 2A000000 		.4byte	.LBB103
 10225 028c E2010000 		.4byte	.LBE103
 10226 0290 E4010000 		.4byte	.LBB108
 10227 0294 76020000 		.4byte	.LBE108
 10228 0298 7A020000 		.4byte	.LBB109
 10229 029c 7E020000 		.4byte	.LBE109
 10230 02a0 80020000 		.4byte	.LBB110
 10231 02a4 84020000 		.4byte	.LBE110
 10232 02a8 88020000 		.4byte	.LBB111
 10233 02ac 92030000 		.4byte	.LBE111
 10234 02b0 00000000 		.4byte	0
 10235 02b4 00000000 		.4byte	0
 10236 02b8 B4010000 		.4byte	.LBB105
 10237 02bc B8010000 		.4byte	.LBE105
 10238 02c0 BE010000 		.4byte	.LBB106
 10239 02c4 DE010000 		.4byte	.LBE106
 10240 02c8 00000000 		.4byte	0
 10241 02cc 00000000 		.4byte	0
 10242 02d0 22000000 		.4byte	.LBB113
 10243 02d4 24000000 		.4byte	.LBE113
 10244 02d8 28000000 		.4byte	.LBB116
 10245 02dc BC000000 		.4byte	.LBE116
 10246 02e0 00000000 		.4byte	0
 10247 02e4 00000000 		.4byte	0
 10248 02e8 32000000 		.4byte	.LBB114
 10249 02ec 3A000000 		.4byte	.LBE114
 10250 02f0 3C000000 		.4byte	.LBB115
 10251 02f4 B6000000 		.4byte	.LBE115
 10252 02f8 00000000 		.4byte	0
 10253 02fc 00000000 		.4byte	0
 10254 0300 1E010000 		.4byte	.LBB121
 10255 0304 28010000 		.4byte	.LBE121
 10256 0308 2A010000 		.4byte	.LBB122
 10257 030c 4C010000 		.4byte	.LBE122
 10258 0310 4E010000 		.4byte	.LBB123
 10259 0314 54010000 		.4byte	.LBE123
 10260 0318 56010000 		.4byte	.LBB124
 10261 031c 5E010000 		.4byte	.LBE124
 10262 0320 00000000 		.4byte	0
 10263 0324 00000000 		.4byte	0
 10264 0328 00000000 		.4byte	.LFB3
 10265 032c 58000000 		.4byte	.LFE3
 10266 0330 00000000 		.4byte	.LFB4
 10267 0334 54000000 		.4byte	.LFE4
 10268 0338 00000000 		.4byte	.LFB5
 10269 033c A4000000 		.4byte	.LFE5
 10270 0340 00000000 		.4byte	.LFB6
 10271 0344 0A000000 		.4byte	.LFE6
 10272 0348 00000000 		.4byte	.LFB7
 10273 034c F0000000 		.4byte	.LFE7
ARM GAS  /tmp/ccEGVymn.s 			page 197


 10274 0350 00000000 		.4byte	.LFB8
 10275 0354 9C010000 		.4byte	.LFE8
 10276 0358 00000000 		.4byte	.LFB9
 10277 035c 28030000 		.4byte	.LFE9
 10278 0360 00000000 		.4byte	.LFB10
 10279 0364 A4030000 		.4byte	.LFE10
 10280 0368 00000000 		.4byte	.LFB11
 10281 036c 8C010000 		.4byte	.LFE11
 10282 0370 00000000 		.4byte	.LFB12
 10283 0374 9C000000 		.4byte	.LFE12
 10284 0378 00000000 		.4byte	.LFB13
 10285 037c 20000000 		.4byte	.LFE13
 10286 0380 00000000 		.4byte	.LFB14
 10287 0384 0C000000 		.4byte	.LFE14
 10288 0388 00000000 		.4byte	0
 10289 038c 00000000 		.4byte	0
 10290              		.section	.debug_line,"",%progbits
 10291              	.Ldebug_line0:
 10292 0000 1B0E0000 		.section	.debug_str,"MS",%progbits,1
 10292      0300E700 
 10292      00000201 
 10292      FB0E0D00 
 10292      01010101 
 10293              	.LASF172:
 10294 0000 7372632F 		.ascii	"src/b2d_lite.c\000"
 10294      6232645F 
 10294      6C697465 
 10294      2E6300
 10295              	.LASF190:
 10296 000f 65726173 		.ascii	"eraseArbiter\000"
 10296      65417262 
 10296      69746572 
 10296      00
 10297              	.LASF155:
 10298 001c 626F6479 		.ascii	"body2\000"
 10298      3200
 10299              	.LASF161:
 10300 0022 675F6E75 		.ascii	"g_numArbiters\000"
 10300      6D417262 
 10300      69746572 
 10300      7300
 10301              	.LASF37:
 10302 0030 5F6F6E5F 		.ascii	"_on_exit_args\000"
 10302      65786974 
 10302      5F617267 
 10302      7300
 10303              	.LASF105:
 10304 003e 5F776374 		.ascii	"_wctomb_state\000"
 10304      6F6D625F 
 10304      73746174 
 10304      6500
 10305              	.LASF147:
 10306 004c 66726963 		.ascii	"friction\000"
 10306      74696F6E 
 10306      00
 10307              	.LASF149:
 10308 0055 696E764D 		.ascii	"invMass\000"
ARM GAS  /tmp/ccEGVymn.s 			page 198


 10308      61737300 
 10309              	.LASF102:
 10310 005d 5F723438 		.ascii	"_r48\000"
 10310      00
 10311              	.LASF107:
 10312 0062 5F736967 		.ascii	"_signal_buf\000"
 10312      6E616C5F 
 10312      62756600 
 10313              	.LASF9:
 10314 006e 756E7369 		.ascii	"unsigned int\000"
 10314      676E6564 
 10314      20696E74 
 10314      00
 10315              	.LASF167:
 10316 007b 61646442 		.ascii	"addBody\000"
 10316      6F647900 
 10317              	.LASF51:
 10318 0083 5F6C6266 		.ascii	"_lbfsize\000"
 10318      73697A65 
 10318      00
 10319              	.LASF49:
 10320 008c 5F666C61 		.ascii	"_flags\000"
 10320      677300
 10321              	.LASF66:
 10322 0093 5F657272 		.ascii	"_errno\000"
 10322      6E6F00
 10323              	.LASF153:
 10324 009a 6E756D43 		.ascii	"numContacts\000"
 10324      6F6E7461 
 10324      63747300 
 10325              	.LASF194:
 10326 00a6 73756D56 		.ascii	"sumVec2\000"
 10326      65633200 
 10327              	.LASF180:
 10328 00ae 6B5F6269 		.ascii	"k_biasFactor\000"
 10328      61734661 
 10328      63746F72 
 10328      00
 10329              	.LASF165:
 10330 00bb 7761726D 		.ascii	"warmStarting\000"
 10330      53746172 
 10330      74696E67 
 10330      00
 10331              	.LASF20:
 10332 00c8 5F4C4F43 		.ascii	"_LOCK_RECURSIVE_T\000"
 10332      4B5F5245 
 10332      43555253 
 10332      4956455F 
 10332      5400
 10333              	.LASF53:
 10334 00da 5F726561 		.ascii	"_read\000"
 10334      6400
 10335              	.LASF202:
 10336 00e0 436F6C6C 		.ascii	"Collide\000"
 10336      69646500 
 10337              	.LASF109:
 10338 00e8 5F6D6272 		.ascii	"_mbrlen_state\000"
ARM GAS  /tmp/ccEGVymn.s 			page 199


 10338      6C656E5F 
 10338      73746174 
 10338      6500
 10339              	.LASF211:
 10340 00f6 5F5F6275 		.ascii	"__builtin_memcpy\000"
 10340      696C7469 
 10340      6E5F6D65 
 10340      6D637079 
 10340      00
 10341              	.LASF170:
 10342 0107 696E765F 		.ascii	"inv_dt\000"
 10342      647400
 10343              	.LASF68:
 10344 010e 5F737464 		.ascii	"_stdout\000"
 10344      6F757400 
 10345              	.LASF13:
 10346 0116 5F66706F 		.ascii	"_fpos_t\000"
 10346      735F7400 
 10347              	.LASF44:
 10348 011e 5F666E73 		.ascii	"_fns\000"
 10348      00
 10349              	.LASF141:
 10350 0123 726F7461 		.ascii	"rotation\000"
 10350      74696F6E 
 10350      00
 10351              	.LASF52:
 10352 012c 5F636F6F 		.ascii	"_cookie\000"
 10352      6B696500 
 10353              	.LASF26:
 10354 0134 5F426967 		.ascii	"_Bigint\000"
 10354      696E7400 
 10355              	.LASF145:
 10356 013c 746F7271 		.ascii	"torque\000"
 10356      756500
 10357              	.LASF34:
 10358 0143 5F5F746D 		.ascii	"__tm_wday\000"
 10358      5F776461 
 10358      7900
 10359              	.LASF76:
 10360 014d 5F726573 		.ascii	"_result\000"
 10360      756C7400 
 10361              	.LASF126:
 10362 0155 45646765 		.ascii	"Edges\000"
 10362      7300
 10363              	.LASF191:
 10364 015b 696E6974 		.ascii	"initContact\000"
 10364      436F6E74 
 10364      61637400 
 10365              	.LASF30:
 10366 0167 5F5F746D 		.ascii	"__tm_hour\000"
 10366      5F686F75 
 10366      7200
 10367              	.LASF169:
 10368 0171 53746570 		.ascii	"Step\000"
 10368      00
 10369              	.LASF189:
 10370 0176 634F6C64 		.ascii	"cOld\000"
ARM GAS  /tmp/ccEGVymn.s 			page 200


 10370      00
 10371              	.LASF16:
 10372 017b 5F5F636F 		.ascii	"__count\000"
 10372      756E7400 
 10373              	.LASF0:
 10374 0183 666C6F61 		.ascii	"float\000"
 10374      7400
 10375              	.LASF29:
 10376 0189 5F5F746D 		.ascii	"__tm_min\000"
 10376      5F6D696E 
 10376      00
 10377              	.LASF118:
 10378 0192 5F696D70 		.ascii	"_impure_ptr\000"
 10378      7572655F 
 10378      70747200 
 10379              	.LASF201:
 10380 019e 43726F73 		.ascii	"Crossvs\000"
 10380      73767300 
 10381              	.LASF115:
 10382 01a6 5F6E6578 		.ascii	"_nextf\000"
 10382      746600
 10383              	.LASF185:
 10384 01ad 6E657743 		.ascii	"newContacts\000"
 10384      6F6E7461 
 10384      63747300 
 10385              	.LASF138:
 10386 01b9 62696173 		.ascii	"bias\000"
 10386      00
 10387              	.LASF92:
 10388 01be 5F72616E 		.ascii	"_rand48\000"
 10388      64343800 
 10389              	.LASF77:
 10390 01c6 5F726573 		.ascii	"_result_k\000"
 10390      756C745F 
 10390      6B00
 10391              	.LASF8:
 10392 01d0 6C6F6E67 		.ascii	"long long unsigned int\000"
 10392      206C6F6E 
 10392      6720756E 
 10392      7369676E 
 10392      65642069 
 10393              	.LASF98:
 10394 01e7 5F617363 		.ascii	"_asctime_buf\000"
 10394      74696D65 
 10394      5F627566 
 10394      00
 10395              	.LASF48:
 10396 01f4 5F5F7346 		.ascii	"__sFILE\000"
 10396      494C4500 
 10397              	.LASF25:
 10398 01fc 5F776473 		.ascii	"_wds\000"
 10398      00
 10399              	.LASF144:
 10400 0201 666F7263 		.ascii	"force\000"
 10400      6500
 10401              	.LASF88:
 10402 0207 5F5F4649 		.ascii	"__FILE\000"
ARM GAS  /tmp/ccEGVymn.s 			page 201


 10402      4C4500
 10403              	.LASF122:
 10404 020e 5F5F6664 		.ascii	"__fdlibm_posix\000"
 10404      6C69626D 
 10404      5F706F73 
 10404      697800
 10405              	.LASF60:
 10406 021d 5F6F6666 		.ascii	"_offset\000"
 10406      73657400 
 10407              	.LASF181:
 10408 0225 6B4E6F72 		.ascii	"kNormal\000"
 10408      6D616C00 
 10409              	.LASF131:
 10410 022d 76616C75 		.ascii	"value\000"
 10410      6500
 10411              	.LASF71:
 10412 0233 5F656D65 		.ascii	"_emergency\000"
 10412      7267656E 
 10412      637900
 10413              	.LASF206:
 10414 023e 46656174 		.ascii	"FeaturePair\000"
 10414      75726550 
 10414      61697200 
 10415              	.LASF209:
 10416 024a 66696E64 		.ascii	"findArbiter\000"
 10416      41726269 
 10416      74657200 
 10417              	.LASF146:
 10418 0256 77696474 		.ascii	"width\000"
 10418      6800
 10419              	.LASF175:
 10420 025c 74616E67 		.ascii	"tangent\000"
 10420      656E7400 
 10421              	.LASF28:
 10422 0264 5F5F746D 		.ascii	"__tm_sec\000"
 10422      5F736563 
 10422      00
 10423              	.LASF183:
 10424 026d 6E657741 		.ascii	"newArb\000"
 10424      726200
 10425              	.LASF124:
 10426 0274 7375626F 		.ascii	"suboptarg\000"
 10426      70746172 
 10426      6700
 10427              	.LASF35:
 10428 027e 5F5F746D 		.ascii	"__tm_yday\000"
 10428      5F796461 
 10428      7900
 10429              	.LASF70:
 10430 0288 5F696E63 		.ascii	"_inc\000"
 10430      00
 10431              	.LASF43:
 10432 028d 5F696E64 		.ascii	"_ind\000"
 10432      00
 10433              	.LASF182:
 10434 0292 6B54616E 		.ascii	"kTangent\000"
 10434      67656E74 
ARM GAS  /tmp/ccEGVymn.s 			page 202


 10434      00
 10435              	.LASF173:
 10436 029b 2F686F6D 		.ascii	"/home/george/projects/Playdate/Box2D-Lite-C\000"
 10436      652F6765 
 10436      6F726765 
 10436      2F70726F 
 10436      6A656374 
 10437              	.LASF22:
 10438 02c7 5F6E6578 		.ascii	"_next\000"
 10438      7400
 10439              	.LASF111:
 10440 02cd 5F6D6273 		.ascii	"_mbsrtowcs_state\000"
 10440      72746F77 
 10440      63735F73 
 10440      74617465 
 10440      00
 10441              	.LASF188:
 10442 02de 634E6577 		.ascii	"cNew\000"
 10442      00
 10443              	.LASF17:
 10444 02e3 5F5F7661 		.ascii	"__value\000"
 10444      6C756500 
 10445              	.LASF166:
 10446 02eb 706F7369 		.ascii	"positionCorrection\000"
 10446      74696F6E 
 10446      436F7272 
 10446      65637469 
 10446      6F6E00
 10447              	.LASF78:
 10448 02fe 5F703573 		.ascii	"_p5s\000"
 10448      00
 10449              	.LASF152:
 10450 0303 636F6E74 		.ascii	"contacts\000"
 10450      61637473 
 10450      00
 10451              	.LASF186:
 10452 030c 6E756D4E 		.ascii	"numNewContacts\000"
 10452      6577436F 
 10452      6E746163 
 10452      747300
 10453              	.LASF113:
 10454 031b 5F776373 		.ascii	"_wcsrtombs_state\000"
 10454      72746F6D 
 10454      62735F73 
 10454      74617465 
 10454      00
 10455              	.LASF103:
 10456 032c 5F6D626C 		.ascii	"_mblen_state\000"
 10456      656E5F73 
 10456      74617465 
 10456      00
 10457              	.LASF87:
 10458 0339 63686172 		.ascii	"char\000"
 10458      00
 10459              	.LASF31:
 10460 033e 5F5F746D 		.ascii	"__tm_mday\000"
 10460      5F6D6461 
ARM GAS  /tmp/ccEGVymn.s 			page 203


 10460      7900
 10461              	.LASF84:
 10462 0348 5F736967 		.ascii	"_sig_func\000"
 10462      5F66756E 
 10462      6300
 10463              	.LASF110:
 10464 0352 5F6D6272 		.ascii	"_mbrtowc_state\000"
 10464      746F7763 
 10464      5F737461 
 10464      746500
 10465              	.LASF83:
 10466 0361 5F617465 		.ascii	"_atexit0\000"
 10466      78697430 
 10466      00
 10467              	.LASF207:
 10468 036a 67657442 		.ascii	"getBody\000"
 10468      6F647900 
 10469              	.LASF21:
 10470 0372 5F666C6F 		.ascii	"_flock_t\000"
 10470      636B5F74 
 10470      00
 10471              	.LASF128:
 10472 037b 6F757445 		.ascii	"outEdge1\000"
 10472      64676531 
 10472      00
 10473              	.LASF130:
 10474 0384 6F757445 		.ascii	"outEdge2\000"
 10474      64676532 
 10474      00
 10475              	.LASF14:
 10476 038d 5F5F7763 		.ascii	"__wch\000"
 10476      6800
 10477              	.LASF91:
 10478 0393 5F696F62 		.ascii	"_iobs\000"
 10478      7300
 10479              	.LASF159:
 10480 0399 675F6172 		.ascii	"g_arbiters\000"
 10480      62697465 
 10480      727300
 10481              	.LASF135:
 10482 03a4 73657061 		.ascii	"separation\000"
 10482      72617469 
 10482      6F6E00
 10483              	.LASF56:
 10484 03af 5F636C6F 		.ascii	"_close\000"
 10484      736500
 10485              	.LASF74:
 10486 03b6 5F5F7364 		.ascii	"__sdidinit\000"
 10486      6964696E 
 10486      697400
 10487              	.LASF164:
 10488 03c1 61636375 		.ascii	"accumulateImpulses\000"
 10488      6D756C61 
 10488      7465496D 
 10488      70756C73 
 10488      657300
 10489              	.LASF198:
ARM GAS  /tmp/ccEGVymn.s 			page 204


 10490 03d4 43726F73 		.ascii	"Crossvv\000"
 10490      73767600 
 10491              	.LASF154:
 10492 03dc 626F6479 		.ascii	"body1\000"
 10492      3100
 10493              	.LASF67:
 10494 03e2 5F737464 		.ascii	"_stdin\000"
 10494      696E00
 10495              	.LASF100:
 10496 03e9 5F67616D 		.ascii	"_gamma_signgam\000"
 10496      6D615F73 
 10496      69676E67 
 10496      616D00
 10497              	.LASF7:
 10498 03f8 6C6F6E67 		.ascii	"long long int\000"
 10498      206C6F6E 
 10498      6720696E 
 10498      7400
 10499              	.LASF46:
 10500 0406 5F626173 		.ascii	"_base\000"
 10500      6500
 10501              	.LASF79:
 10502 040c 5F667265 		.ascii	"_freelist\000"
 10502      656C6973 
 10502      7400
 10503              	.LASF94:
 10504 0416 5F6D756C 		.ascii	"_mult\000"
 10504      7400
 10505              	.LASF19:
 10506 041c 5F5F554C 		.ascii	"__ULong\000"
 10506      6F6E6700 
 10507              	.LASF178:
 10508 0424 50726553 		.ascii	"PreStep\000"
 10508      74657000 
 10509              	.LASF112:
 10510 042c 5F776372 		.ascii	"_wcrtomb_state\000"
 10510      746F6D62 
 10510      5F737461 
 10510      746500
 10511              	.LASF50:
 10512 043b 5F66696C 		.ascii	"_file\000"
 10512      6500
 10513              	.LASF160:
 10514 0441 675F6172 		.ascii	"g_arbiterKeys\000"
 10514      62697465 
 10514      724B6579 
 10514      7300
 10515              	.LASF75:
 10516 044f 5F5F636C 		.ascii	"__cleanup\000"
 10516      65616E75 
 10516      7000
 10517              	.LASF123:
 10518 0459 5F5F6664 		.ascii	"__fdlib_version\000"
 10518      6C69625F 
 10518      76657273 
 10518      696F6E00 
 10519              	.LASF18:
ARM GAS  /tmp/ccEGVymn.s 			page 205


 10520 0469 5F6D6273 		.ascii	"_mbstate_t\000"
 10520      74617465 
 10520      5F7400
 10521              	.LASF36:
 10522 0474 5F5F746D 		.ascii	"__tm_isdst\000"
 10522      5F697364 
 10522      737400
 10523              	.LASF192:
 10524 047f 696E7365 		.ascii	"insertArbiter\000"
 10524      72744172 
 10524      62697465 
 10524      7200
 10525              	.LASF148:
 10526 048d 6D617373 		.ascii	"mass\000"
 10526      00
 10527              	.LASF114:
 10528 0492 5F685F65 		.ascii	"_h_errno\000"
 10528      72726E6F 
 10528      00
 10529              	.LASF150:
 10530 049b 696E7649 		.ascii	"invI\000"
 10530      00
 10531              	.LASF162:
 10532 04a0 67726176 		.ascii	"gravity\000"
 10532      69747900 
 10533              	.LASF157:
 10534 04a8 675F626F 		.ascii	"g_bodies\000"
 10534      64696573 
 10534      00
 10535              	.LASF139:
 10536 04b1 66656174 		.ascii	"feature\000"
 10536      75726500 
 10537              	.LASF32:
 10538 04b9 5F5F746D 		.ascii	"__tm_mon\000"
 10538      5F6D6F6E 
 10538      00
 10539              	.LASF10:
 10540 04c2 6C6F6E67 		.ascii	"long double\000"
 10540      20646F75 
 10540      626C6500 
 10541              	.LASF193:
 10542 04ce 7363616C 		.ascii	"scaledVec2\000"
 10542      65645665 
 10542      633200
 10543              	.LASF54:
 10544 04d9 5F777269 		.ascii	"_write\000"
 10544      746500
 10545              	.LASF196:
 10546 04e0 436C616D 		.ascii	"Clamp\000"
 10546      7000
 10547              	.LASF187:
 10548 04e6 6D657267 		.ascii	"mergedContacts\000"
 10548      6564436F 
 10548      6E746163 
 10548      747300
 10549              	.LASF42:
 10550 04f5 5F617465 		.ascii	"_atexit\000"
ARM GAS  /tmp/ccEGVymn.s 			page 206


 10550      78697400 
 10551              	.LASF63:
 10552 04fd 5F6D6273 		.ascii	"_mbstate\000"
 10552      74617465 
 10552      00
 10553              	.LASF3:
 10554 0506 73686F72 		.ascii	"short int\000"
 10554      7420696E 
 10554      7400
 10555              	.LASF168:
 10556 0510 696E6974 		.ascii	"initBody\000"
 10556      426F6479 
 10556      00
 10557              	.LASF5:
 10558 0519 6C6F6E67 		.ascii	"long int\000"
 10558      20696E74 
 10558      00
 10559              	.LASF86:
 10560 0522 5F5F7366 		.ascii	"__sf\000"
 10560      00
 10561              	.LASF24:
 10562 0527 5F736967 		.ascii	"_sign\000"
 10562      6E00
 10563              	.LASF195:
 10564 052d 61646474 		.ascii	"addtoVec2\000"
 10564      6F566563 
 10564      3200
 10565              	.LASF132:
 10566 0537 436F6E74 		.ascii	"Contact\000"
 10566      61637400 
 10567              	.LASF61:
 10568 053f 5F646174 		.ascii	"_data\000"
 10568      6100
 10569              	.LASF15:
 10570 0545 5F5F7763 		.ascii	"__wchb\000"
 10570      686200
 10571              	.LASF119:
 10572 054c 5F676C6F 		.ascii	"_global_impure_ptr\000"
 10572      62616C5F 
 10572      696D7075 
 10572      72655F70 
 10572      747200
 10573              	.LASF174:
 10574 055f 4170706C 		.ascii	"ApplyImpulse\000"
 10574      79496D70 
 10574      756C7365 
 10574      00
 10575              	.LASF33:
 10576 056c 5F5F746D 		.ascii	"__tm_year\000"
 10576      5F796561 
 10576      7200
 10577              	.LASF158:
 10578 0576 675F6E75 		.ascii	"g_numBodies\000"
 10578      6D426F64 
 10578      69657300 
 10579              	.LASF179:
 10580 0582 6B5F616C 		.ascii	"k_allowedPenetration\000"
ARM GAS  /tmp/ccEGVymn.s 			page 207


 10580      6C6F7765 
 10580      6450656E 
 10580      65747261 
 10580      74696F6E 
 10581              	.LASF121:
 10582 0597 5F5F6664 		.ascii	"__fdlibm_ieee\000"
 10582      6C69626D 
 10582      5F696565 
 10582      6500
 10583              	.LASF200:
 10584 05a5 64696666 		.ascii	"diffVec2\000"
 10584      56656332 
 10584      00
 10585              	.LASF99:
 10586 05ae 5F6C6F63 		.ascii	"_localtime_buf\000"
 10586      616C7469 
 10586      6D655F62 
 10586      756600
 10587              	.LASF117:
 10588 05bd 5F756E75 		.ascii	"_unused\000"
 10588      73656400 
 10589              	.LASF82:
 10590 05c5 5F6E6577 		.ascii	"_new\000"
 10590      00
 10591              	.LASF80:
 10592 05ca 5F637674 		.ascii	"_cvtlen\000"
 10592      6C656E00 
 10593              	.LASF23:
 10594 05d2 5F6D6178 		.ascii	"_maxwds\000"
 10594      77647300 
 10595              	.LASF106:
 10596 05da 5F6C3634 		.ascii	"_l64a_buf\000"
 10596      615F6275 
 10596      6600
 10597              	.LASF184:
 10598 05e4 55706461 		.ascii	"UpdateArbiter\000"
 10598      74654172 
 10598      62697465 
 10598      7200
 10599              	.LASF59:
 10600 05f2 5F626C6B 		.ascii	"_blksize\000"
 10600      73697A65 
 10600      00
 10601              	.LASF27:
 10602 05fb 5F5F746D 		.ascii	"__tm\000"
 10602      00
 10603              	.LASF142:
 10604 0600 76656C6F 		.ascii	"velocity\000"
 10604      63697479 
 10604      00
 10605              	.LASF62:
 10606 0609 5F6C6F63 		.ascii	"_lock\000"
 10606      6B00
 10607              	.LASF199:
 10608 060f 43726F73 		.ascii	"Crosssv\000"
 10608      73737600 
 10609              	.LASF6:
ARM GAS  /tmp/ccEGVymn.s 			page 208


 10610 0617 6C6F6E67 		.ascii	"long unsigned int\000"
 10610      20756E73 
 10610      69676E65 
 10610      6420696E 
 10610      7400
 10611              	.LASF125:
 10612 0629 56656332 		.ascii	"Vec2\000"
 10612      00
 10613              	.LASF177:
 10614 062e 6F6C6454 		.ascii	"oldTangentImpulse\000"
 10614      616E6765 
 10614      6E74496D 
 10614      70756C73 
 10614      6500
 10615              	.LASF90:
 10616 0640 5F6E696F 		.ascii	"_niobs\000"
 10616      627300
 10617              	.LASF11:
 10618 0647 77696E74 		.ascii	"wint_t\000"
 10618      5F7400
 10619              	.LASF127:
 10620 064e 696E4564 		.ascii	"inEdge1\000"
 10620      67653100 
 10621              	.LASF129:
 10622 0656 696E4564 		.ascii	"inEdge2\000"
 10622      67653200 
 10623              	.LASF39:
 10624 065e 5F64736F 		.ascii	"_dso_handle\000"
 10624      5F68616E 
 10624      646C6500 
 10625              	.LASF134:
 10626 066a 6E6F726D 		.ascii	"normal\000"
 10626      616C00
 10627              	.LASF136:
 10628 0671 6D617373 		.ascii	"massNormal\000"
 10628      4E6F726D 
 10628      616C00
 10629              	.LASF208:
 10630 067c 42726F61 		.ascii	"BroadPhase\000"
 10630      64506861 
 10630      736500
 10631              	.LASF81:
 10632 0687 5F637674 		.ascii	"_cvtbuf\000"
 10632      62756600 
 10633              	.LASF2:
 10634 068f 756E7369 		.ascii	"unsigned char\000"
 10634      676E6564 
 10634      20636861 
 10634      7200
 10635              	.LASF108:
 10636 069d 5F676574 		.ascii	"_getdate_err\000"
 10636      64617465 
 10636      5F657272 
 10636      00
 10637              	.LASF156:
 10638 06aa 41726269 		.ascii	"ArbiterKey\000"
 10638      7465724B 
ARM GAS  /tmp/ccEGVymn.s 			page 209


 10638      657900
 10639              	.LASF95:
 10640 06b5 5F616464 		.ascii	"_add\000"
 10640      00
 10641              	.LASF143:
 10642 06ba 616E6775 		.ascii	"angularVelocity\000"
 10642      6C617256 
 10642      656C6F63 
 10642      69747900 
 10643              	.LASF45:
 10644 06ca 5F5F7362 		.ascii	"__sbuf\000"
 10644      756600
 10645              	.LASF163:
 10646 06d1 69746572 		.ascii	"iterations\000"
 10646      6174696F 
 10646      6E7300
 10647              	.LASF89:
 10648 06dc 5F676C75 		.ascii	"_glue\000"
 10648      6500
 10649              	.LASF205:
 10650 06e2 5F5F6664 		.ascii	"__fdlibm_version\000"
 10650      6C69626D 
 10650      5F766572 
 10650      73696F6E 
 10650      00
 10651              	.LASF176:
 10652 06f3 6D617850 		.ascii	"maxPt\000"
 10652      7400
 10653              	.LASF203:
 10654 06f9 73717274 		.ascii	"sqrtf\000"
 10654      6600
 10655              	.LASF85:
 10656 06ff 5F5F7367 		.ascii	"__sglue\000"
 10656      6C756500 
 10657              	.LASF151:
 10658 0707 41726269 		.ascii	"Arbiter\000"
 10658      74657200 
 10659              	.LASF97:
 10660 070f 5F737472 		.ascii	"_strtok_last\000"
 10660      746F6B5F 
 10660      6C617374 
 10660      00
 10661              	.LASF104:
 10662 071c 5F6D6274 		.ascii	"_mbtowc_state\000"
 10662      6F77635F 
 10662      73746174 
 10662      6500
 10663              	.LASF140:
 10664 072a 426F6479 		.ascii	"Body\000"
 10664      00
 10665              	.LASF197:
 10666 072f 73756266 		.ascii	"subfromVec2\000"
 10666      726F6D56 
 10666      65633200 
 10667              	.LASF73:
 10668 073b 5F6C6F63 		.ascii	"_locale\000"
 10668      616C6500 
ARM GAS  /tmp/ccEGVymn.s 			page 210


 10669              	.LASF38:
 10670 0743 5F666E61 		.ascii	"_fnargs\000"
 10670      72677300 
 10671              	.LASF1:
 10672 074b 7369676E 		.ascii	"signed char\000"
 10672      65642063 
 10672      68617200 
 10673              	.LASF65:
 10674 0757 5F726565 		.ascii	"_reent\000"
 10674      6E7400
 10675              	.LASF171:
 10676 075e 474E5520 		.ascii	"GNU C17 9.2.1 20191025 (release) [ARM/arm-9-branch "
 10676      43313720 
 10676      392E322E 
 10676      31203230 
 10676      31393130 
 10677 0791 72657669 		.ascii	"revision 277599] -mthumb -mcpu=cortex-m7 -mfloat-ab"
 10677      73696F6E 
 10677      20323737 
 10677      3539395D 
 10677      202D6D74 
 10678 07c4 693D6861 		.ascii	"i=hard -mfpu=fpv5-sp-d16 -march=armv7e-m+fpv5 -g -g"
 10678      7264202D 
 10678      6D667075 
 10678      3D667076 
 10678      352D7370 
 10679 07f7 64776172 		.ascii	"dwarf-2 -O2 -falign-functions=16 -fomit-frame-point"
 10679      662D3220 
 10679      2D4F3220 
 10679      2D66616C 
 10679      69676E2D 
 10680 082a 6572202D 		.ascii	"er -ffunction-sections -fdata-sections\000"
 10680      6666756E 
 10680      6374696F 
 10680      6E2D7365 
 10680      6374696F 
 10681              	.LASF4:
 10682 0851 73686F72 		.ascii	"short unsigned int\000"
 10682      7420756E 
 10682      7369676E 
 10682      65642069 
 10682      6E7400
 10683              	.LASF210:
 10684 0864 6D656D63 		.ascii	"memcpy\000"
 10684      707900
 10685              	.LASF40:
 10686 086b 5F666E74 		.ascii	"_fntypes\000"
 10686      79706573 
 10686      00
 10687              	.LASF47:
 10688 0874 5F73697A 		.ascii	"_size\000"
 10688      6500
 10689              	.LASF120:
 10690 087a 646F7562 		.ascii	"double\000"
 10690      6C6500
 10691              	.LASF12:
 10692 0881 5F6F6666 		.ascii	"_off_t\000"
ARM GAS  /tmp/ccEGVymn.s 			page 211


 10692      5F7400
 10693              	.LASF58:
 10694 0888 5F6E6275 		.ascii	"_nbuf\000"
 10694      6600
 10695              	.LASF96:
 10696 088e 5F756E75 		.ascii	"_unused_rand\000"
 10696      7365645F 
 10696      72616E64 
 10696      00
 10697              	.LASF72:
 10698 089b 5F756E73 		.ascii	"_unspecified_locale_info\000"
 10698      70656369 
 10698      66696564 
 10698      5F6C6F63 
 10698      616C655F 
 10699              	.LASF64:
 10700 08b4 5F666C61 		.ascii	"_flags2\000"
 10700      67733200 
 10701              	.LASF41:
 10702 08bc 5F69735F 		.ascii	"_is_cxa\000"
 10702      63786100 
 10703              	.LASF93:
 10704 08c4 5F736565 		.ascii	"_seed\000"
 10704      6400
 10705              	.LASF101:
 10706 08ca 5F72616E 		.ascii	"_rand_next\000"
 10706      645F6E65 
 10706      787400
 10707              	.LASF204:
 10708 08d5 5F5F6C6F 		.ascii	"__locale_t\000"
 10708      63616C65 
 10708      5F7400
 10709              	.LASF55:
 10710 08e0 5F736565 		.ascii	"_seek\000"
 10710      6B00
 10711              	.LASF133:
 10712 08e6 706F7369 		.ascii	"position\000"
 10712      74696F6E 
 10712      00
 10713              	.LASF69:
 10714 08ef 5F737464 		.ascii	"_stderr\000"
 10714      65727200 
 10715              	.LASF116:
 10716 08f7 5F6E6D61 		.ascii	"_nmalloc\000"
 10716      6C6C6F63 
 10716      00
 10717              	.LASF57:
 10718 0900 5F756275 		.ascii	"_ubuf\000"
 10718      6600
 10719              	.LASF137:
 10720 0906 6D617373 		.ascii	"massTangent\000"
 10720      54616E67 
 10720      656E7400 
 10721              		.ident	"GCC: (15:9-2019-q4-0ubuntu1) 9.2.1 20191025 (release) [ARM/arm-9-branch revision 277599]"
ARM GAS  /tmp/ccEGVymn.s 			page 212


DEFINED SYMBOLS
                            *ABS*:0000000000000000 b2d_lite.c
     /tmp/ccEGVymn.s:77     .text.findArbiter:0000000000000000 $t
     /tmp/ccEGVymn.s:86     .text.findArbiter:0000000000000000 findArbiter
     /tmp/ccEGVymn.s:226    .text.findArbiter:000000000000004c $d
                            *COM*:0000000000000004 g_numArbiters
                            *COM*:0000000000000320 g_arbiterKeys
                            *COM*:0000000000003840 g_arbiters
     /tmp/ccEGVymn.s:233    .text.insertArbiter:0000000000000000 $t
     /tmp/ccEGVymn.s:241    .text.insertArbiter:0000000000000000 insertArbiter
     /tmp/ccEGVymn.s:336    .text.insertArbiter:0000000000000048 $d
     /tmp/ccEGVymn.s:343    .text.eraseArbiter:0000000000000000 $t
     /tmp/ccEGVymn.s:351    .text.eraseArbiter:0000000000000000 eraseArbiter
     /tmp/ccEGVymn.s:538    .text.eraseArbiter:0000000000000094 $d
     /tmp/ccEGVymn.s:546    .text.initContact:0000000000000000 $t
     /tmp/ccEGVymn.s:554    .text.initContact:0000000000000000 initContact
     /tmp/ccEGVymn.s:582    .text.UpdateArbiter:0000000000000000 $t
     /tmp/ccEGVymn.s:590    .text.UpdateArbiter:0000000000000000 UpdateArbiter
     /tmp/ccEGVymn.s:901    .text.UpdateArbiter:00000000000000ec $d
     /tmp/ccEGVymn.s:909    .text.BroadPhase:0000000000000000 $t
     /tmp/ccEGVymn.s:917    .text.BroadPhase:0000000000000000 BroadPhase
     /tmp/ccEGVymn.s:1457   .text.BroadPhase:0000000000000180 $d
                            *COM*:0000000000000004 g_numBodies
                            *COM*:0000000000000190 g_bodies
     /tmp/ccEGVymn.s:1472   .text.PreStep:0000000000000000 $t
     /tmp/ccEGVymn.s:1480   .text.PreStep:0000000000000000 PreStep
     /tmp/ccEGVymn.s:2078   .text.PreStep:0000000000000314 $d
     /tmp/ccEGVymn.s:2087   .text.ApplyImpulse:0000000000000000 $t
     /tmp/ccEGVymn.s:2095   .text.ApplyImpulse:0000000000000000 ApplyImpulse
     /tmp/ccEGVymn.s:2709   .text.ApplyImpulse:000000000000039c $d
     /tmp/ccEGVymn.s:2715   .text.Step:0000000000000000 $t
     /tmp/ccEGVymn.s:2723   .text.Step:0000000000000000 Step
     /tmp/ccEGVymn.s:3087   .text.Step:0000000000000170 $d
                            *COM*:0000000000000008 gravity
                            *COM*:0000000000000004 iterations
     /tmp/ccEGVymn.s:3098   .text.initBody:0000000000000000 $t
     /tmp/ccEGVymn.s:3106   .text.initBody:0000000000000000 initBody
     /tmp/ccEGVymn.s:3291   .text.initBody:0000000000000094 $d
     /tmp/ccEGVymn.s:3297   .text.addBody:0000000000000000 $t
     /tmp/ccEGVymn.s:3305   .text.addBody:0000000000000000 addBody
     /tmp/ccEGVymn.s:3347   .text.addBody:0000000000000018 $d
     /tmp/ccEGVymn.s:3353   .text.getBody:0000000000000000 $t
     /tmp/ccEGVymn.s:3361   .text.getBody:0000000000000000 getBody
     /tmp/ccEGVymn.s:3382   .text.getBody:0000000000000008 $d
     /tmp/ccEGVymn.s:3408   .data.positionCorrection:0000000000000000 positionCorrection
     /tmp/ccEGVymn.s:3415   .data.warmStarting:0000000000000000 warmStarting
     /tmp/ccEGVymn.s:3401   .data.accumulateImpulses:0000000000000000 accumulateImpulses
     /tmp/ccEGVymn.s:3397   .data.accumulateImpulses:0000000000000000 $d
     /tmp/ccEGVymn.s:3404   .data.positionCorrection:0000000000000000 $d
     /tmp/ccEGVymn.s:3411   .data.warmStarting:0000000000000000 $d

UNDEFINED SYMBOLS
memcpy
Collide
sqrtf
diffVec2
Dot
ARM GAS  /tmp/ccEGVymn.s 			page 213


Crossvs
Min
scaledVec2
sumVec2
subfromVec2
Crossvv
addtoVec2
Max
Crosssv
Clamp
