ARM GAS  /tmp/ccxSzoZs.s 			page 1


   1              		.cpu cortex-m7
   2              		.eabi_attribute 27, 1	@ Tag_ABI_HardFP_use
   3              		.eabi_attribute 28, 1	@ Tag_ABI_VFP_args
   4              		.eabi_attribute 20, 1	@ Tag_ABI_FP_denormal
   5              		.eabi_attribute 21, 1	@ Tag_ABI_FP_exceptions
   6              		.eabi_attribute 23, 3	@ Tag_ABI_FP_number_model
   7              		.eabi_attribute 24, 1	@ Tag_ABI_align8_needed
   8              		.eabi_attribute 25, 1	@ Tag_ABI_align8_preserved
   9              		.eabi_attribute 26, 1	@ Tag_ABI_enum_size
  10              		.eabi_attribute 30, 2	@ Tag_ABI_optimization_goals
  11              		.eabi_attribute 34, 1	@ Tag_CPU_unaligned_access
  12              		.eabi_attribute 18, 4	@ Tag_ABI_PCS_wchar_t
  13              		.file	"main.c"
  14              	@ GNU C17 (15:9-2019-q4-0ubuntu1) version 9.2.1 20191025 (release) [ARM/arm-9-branch revision 27759
  15              	@	compiled by GNU C version 9.2.1 20200306, GMP version 6.2.0, MPFR version 4.0.2, MPC version 1.1.
  16              	
  17              	@ GGC heuristics: --param ggc-min-expand=100 --param ggc-min-heapsize=131072
  18              	@ options passed:  -I . -I .
  19              	@ -I /home/george/projects/PlaydateSDK-1.11.1//C_API
  20              	@ -imultilib thumb/v7e-m+fp/hard -MD build/src/main.d
  21              	@ -MF build/dep/main.o.d -MP -MQ build/src/main.o -D__USES_INITFINI__
  22              	@ -D __FPU_USED=1 -D TARGET_PLAYDATE=1 -D TARGET_EXTENSION=1 src/main.c
  23              	@ -mthumb -mcpu=cortex-m7 -mfloat-abi=hard -mfpu=fpv5-sp-d16
  24              	@ -march=armv7e-m+fpv5 -auxbase-strip build/src/main.o -g -gdwarf-2 -O2
  25              	@ -Wall -Wno-unused -Wstrict-prototypes -Wno-unknown-pragmas
  26              	@ -Wdouble-promotion -falign-functions=16 -fomit-frame-pointer
  27              	@ -fverbose-asm -ffunction-sections -fdata-sections
  28              	@ options enabled:  -faggressive-loop-optimizations -falign-functions
  29              	@ -falign-jumps -falign-labels -falign-loops -fassume-phsa -fauto-inc-dec
  30              	@ -fbranch-count-reg -fcaller-saves -fcombine-stack-adjustments -fcommon
  31              	@ -fcompare-elim -fcprop-registers -fcrossjumping -fcse-follow-jumps
  32              	@ -fdata-sections -fdefer-pop -fdelete-null-pointer-checks -fdevirtualize
  33              	@ -fdevirtualize-speculatively -fdwarf2-cfi-asm -fearly-inlining
  34              	@ -feliminate-unused-debug-types -fexpensive-optimizations
  35              	@ -fforward-propagate -ffp-int-builtin-inexact -ffunction-cse
  36              	@ -ffunction-sections -fgcse -fgcse-lm -fgnu-runtime -fgnu-unique
  37              	@ -fguess-branch-probability -fhoist-adjacent-loads -fident -fif-conversion
  38              	@ -fif-conversion2 -findirect-inlining -finline -finline-atomics
  39              	@ -finline-functions-called-once -finline-small-functions -fipa-bit-cp
  40              	@ -fipa-cp -fipa-icf -fipa-icf-functions -fipa-icf-variables -fipa-profile
  41              	@ -fipa-pure-const -fipa-ra -fipa-reference -fipa-reference-addressable
  42              	@ -fipa-sra -fipa-stack-alignment -fipa-vrp -fira-hoist-pressure
  43              	@ -fira-share-save-slots -fira-share-spill-slots
  44              	@ -fisolate-erroneous-paths-dereference -fivopts -fkeep-static-consts
  45              	@ -fleading-underscore -flifetime-dse -flra-remat -flto-odr-type-merging
  46              	@ -fmath-errno -fmerge-constants -fmerge-debug-strings
  47              	@ -fmove-loop-invariants -fomit-frame-pointer -foptimize-sibling-calls
  48              	@ -foptimize-strlen -fpartial-inlining -fpeephole -fpeephole2 -fplt
  49              	@ -fprefetch-loop-arrays -freg-struct-return -freorder-blocks
  50              	@ -freorder-functions -frerun-cse-after-loop
  51              	@ -fsched-critical-path-heuristic -fsched-dep-count-heuristic
  52              	@ -fsched-group-heuristic -fsched-interblock -fsched-last-insn-heuristic
  53              	@ -fsched-pressure -fsched-rank-heuristic -fsched-spec
  54              	@ -fsched-spec-insn-heuristic -fsched-stalled-insns-dep -fschedule-insns
  55              	@ -fschedule-insns2 -fsection-anchors -fsemantic-interposition
  56              	@ -fshow-column -fshrink-wrap -fshrink-wrap-separate -fsigned-zeros
  57              	@ -fsplit-ivs-in-unroller -fsplit-wide-types -fssa-backprop -fssa-phiopt
ARM GAS  /tmp/ccxSzoZs.s 			page 2


  58              	@ -fstdarg-opt -fstore-merging -fstrict-aliasing
  59              	@ -fstrict-volatile-bitfields -fsync-libcalls -fthread-jumps
  60              	@ -ftoplevel-reorder -ftrapping-math -ftree-bit-ccp -ftree-builtin-call-dce
  61              	@ -ftree-ccp -ftree-ch -ftree-coalesce-vars -ftree-copy-prop -ftree-cselim
  62              	@ -ftree-dce -ftree-dominator-opts -ftree-dse -ftree-forwprop -ftree-fre
  63              	@ -ftree-loop-if-convert -ftree-loop-im -ftree-loop-ivcanon
  64              	@ -ftree-loop-optimize -ftree-parallelize-loops= -ftree-phiprop -ftree-pre
  65              	@ -ftree-pta -ftree-reassoc -ftree-scev-cprop -ftree-sink -ftree-slsr
  66              	@ -ftree-sra -ftree-switch-conversion -ftree-tail-merge -ftree-ter
  67              	@ -ftree-vrp -funit-at-a-time -fvar-tracking -fvar-tracking-assignments
  68              	@ -fverbose-asm -fzero-initialized-in-bss -masm-syntax-unified -mbe32
  69              	@ -mlittle-endian -mpic-data-is-text-relative -msched-prolog -mthumb
  70              	@ -munaligned-access -mvectorize-with-neon-quad
  71              	
  72              		.text
  73              	.Ltext0:
  74              		.cfi_sections	.debug_frame
  75              		.section	.text.initVec2,"ax",%progbits
  76              		.align	1
  77              		.p2align 4,,15
  78              		.global	initVec2
  79              		.arch armv7e-m
  80              		.syntax unified
  81              		.thumb
  82              		.thumb_func
  83              		.fpu fpv5-sp-d16
  84              		.type	initVec2, %function
  85              	initVec2:
  86              	.LVL0:
  87              	.LFB13:
  88              		.file 1 "src/main.c"
   1:src/main.c    **** //
   2:src/main.c    **** //  main.c
   3:src/main.c    **** //  bach.mid
   4:src/main.c    **** //
   5:src/main.c    **** //  Created by Dave Hayden on 5/10/21.
   6:src/main.c    **** //  Copyright (c) 2021 Panic, Inc. All rights reserved.
   7:src/main.c    **** //
   8:src/main.c    **** 
   9:src/main.c    **** #include <stdio.h>
  10:src/main.c    **** #include <stdlib.h>
  11:src/main.c    **** #include <string.h>
  12:src/main.c    **** #include <math.h>
  13:src/main.c    **** #include <stdarg.h>
  14:src/main.c    **** #include <float.h>
  15:src/main.c    **** 
  16:src/main.c    **** #include "pd_api.h"
  17:src/main.c    **** #include "b2d_lite.h"
  18:src/main.c    **** 
  19:src/main.c    **** PlaydateAPI *pd = NULL;
  20:src/main.c    **** const struct playdate_sound *snd = NULL;
  21:src/main.c    **** const struct playdate_graphics *gfx = NULL;
  22:src/main.c    **** 
  23:src/main.c    **** #define CRATE_COUNT 60
  24:src/main.c    **** int width = 256 * 3;
  25:src/main.c    **** int height = 192 * 3;
  26:src/main.c    **** float zoom = 10.0f;
ARM GAS  /tmp/ccxSzoZs.s 			page 3


  27:src/main.c    **** float pan_y = 8.0f;
  28:src/main.c    **** 
  29:src/main.c    **** struct Body ground, crate, crates[CRATE_COUNT];
  30:src/main.c    **** 
  31:src/main.c    **** struct Vec2 initVec2(float x, float y)
  32:src/main.c    **** {
  89              		.loc 1 32 1 view -0
  90              		.cfi_startproc
  91              		@ args = 0, pretend = 0, frame = 16
  92              		@ frame_needed = 0, uses_anonymous_args = 0
  93              		@ link register save eliminated.
  33:src/main.c    **** 	struct Vec2 res;
  94              		.loc 1 33 2 view .LVU1
  34:src/main.c    **** 	res.x = x;
  95              		.loc 1 34 2 view .LVU2
  35:src/main.c    **** 	res.y = y;
  96              		.loc 1 35 2 view .LVU3
  36:src/main.c    **** 	return res;
  97              		.loc 1 36 2 view .LVU4
  98              	@ src/main.c:32: {
  32:src/main.c    **** 	struct Vec2 res;
  99              		.loc 1 32 1 is_stmt 0 view .LVU5
 100 0000 84B0     		sub	sp, sp, #16	@,,
 101              	.LCFI0:
 102              		.cfi_def_cfa_offset 16
 103              	@ src/main.c:37: }
  37:src/main.c    **** }
 104              		.loc 1 37 1 view .LVU6
 105 0002 04B0     		add	sp, sp, #16	@,,
 106              	.LCFI1:
 107              		.cfi_def_cfa_offset 0
 108              		@ sp needed	@
 109 0004 7047     		bx	lr	@
 110              		.cfi_endproc
 111              	.LFE13:
 112              		.size	initVec2, .-initVec2
 113 0006 00BF     		.section	.text.DrawBody,"ax",%progbits
 114              		.align	1
 115              		.p2align 4,,15
 116              		.global	DrawBody
 117              		.syntax unified
 118              		.thumb
 119              		.thumb_func
 120              		.fpu fpv5-sp-d16
 121              		.type	DrawBody, %function
 122              	DrawBody:
 123              	.LVL1:
 124              	.LFB18:
  38:src/main.c    **** 
  39:src/main.c    **** int update(void *ud);
  40:src/main.c    **** void Init(void);
  41:src/main.c    **** 
  42:src/main.c    **** #ifdef _WINDLL
  43:src/main.c    **** __declspec(dllexport)
  44:src/main.c    **** #endif
  45:src/main.c    **** 	int eventHandler(PlaydateAPI *playdate, PDSystemEvent event, uint32_t arg)
  46:src/main.c    **** {
ARM GAS  /tmp/ccxSzoZs.s 			page 4


  47:src/main.c    **** 	(void)arg;
  48:src/main.c    **** 
  49:src/main.c    **** 	if (event == kEventInit)
  50:src/main.c    **** 	{
  51:src/main.c    **** 		pd = playdate;
  52:src/main.c    **** 		snd = playdate->sound;
  53:src/main.c    **** 		gfx = playdate->graphics;
  54:src/main.c    **** 
  55:src/main.c    **** 		Init();
  56:src/main.c    **** 
  57:src/main.c    **** 		pd->system->setUpdateCallback(update, NULL);
  58:src/main.c    **** 	}
  59:src/main.c    **** 
  60:src/main.c    **** 	return 0;
  61:src/main.c    **** }
  62:src/main.c    **** 
  63:src/main.c    **** static inline int isButtonDown(PDButtons button)
  64:src/main.c    **** {
  65:src/main.c    **** 	PDButtons down;
  66:src/main.c    **** 	pd->system->getButtonState(NULL, &down, NULL);
  67:src/main.c    **** 	return down & button;
  68:src/main.c    **** }
  69:src/main.c    **** 
  70:src/main.c    **** static inline int getRand(int min, int max)
  71:src/main.c    **** {
  72:src/main.c    **** 	return min + (rand() % (max - min));
  73:src/main.c    **** }
  74:src/main.c    **** 
  75:src/main.c    **** static inline void drawLineV(struct Vec2 a, struct Vec2 b, LCDColor color)
  76:src/main.c    **** {
  77:src/main.c    **** 	pd->graphics->drawLine((int)a.x, (int)a.y, (int)b.x, (int)b.y, 1, color);
  78:src/main.c    **** }
  79:src/main.c    **** 
  80:src/main.c    **** void DrawBody(struct Body *body)
  81:src/main.c    **** {
 125              		.loc 1 81 1 is_stmt 1 view -0
 126              		.cfi_startproc
 127              		@ args = 0, pretend = 0, frame = 128
 128              		@ frame_needed = 0, uses_anonymous_args = 0
  82:src/main.c    **** 	struct Mat22 R;
 129              		.loc 1 82 2 view .LVU8
  83:src/main.c    **** 	initMat22(&R, body->rotation);
 130              		.loc 1 83 2 view .LVU9
 131              	@ src/main.c:81: {
  81:src/main.c    **** 	struct Mat22 R;
 132              		.loc 1 81 1 is_stmt 0 view .LVU10
 133 0000 2DE9F04F 		push	{r4, r5, r6, r7, r8, r9, r10, fp, lr}	@
 134              	.LCFI2:
 135              		.cfi_def_cfa_offset 36
 136              		.cfi_offset 4, -36
 137              		.cfi_offset 5, -32
 138              		.cfi_offset 6, -28
 139              		.cfi_offset 7, -24
 140              		.cfi_offset 8, -20
 141              		.cfi_offset 9, -16
 142              		.cfi_offset 10, -12
 143              		.cfi_offset 11, -8
ARM GAS  /tmp/ccxSzoZs.s 			page 5


 144              		.cfi_offset 14, -4
 145 0004 0446     		mov	r4, r0	@ tmp240, body
 146              	.LBB18:
 147              	.LBB19:
 148              	@ src/main.c:77: 	pd->graphics->drawLine((int)a.x, (int)a.y, (int)b.x, (int)b.y, 1, color);
  77:src/main.c    **** }
 149              		.loc 1 77 4 view .LVU11
 150 0006 DFF85C92 		ldr	r9, .L6	@ tmp212,
 151              	@ src/main.c:77: 	pd->graphics->drawLine((int)a.x, (int)a.y, (int)b.x, (int)b.y, 1, color);
  77:src/main.c    **** }
 152              		.loc 1 77 2 view .LVU12
 153 000a 0026     		movs	r6, #0	@ tmp215,
 154 000c 0125     		movs	r5, #1	@ tmp216,
 155              	.LBE19:
 156              	.LBE18:
 157              	@ src/main.c:83: 	initMat22(&R, body->rotation);
 158              		.loc 1 83 2 view .LVU13
 159 000e 94ED020A 		vldr.32	s0, [r4, #8]	@, body_5(D)->rotation
 160              	@ src/main.c:81: {
  81:src/main.c    **** 	struct Mat22 R;
 161              		.loc 1 81 1 view .LVU14
 162 0012 2DED048B 		vpush.64	{d8, d9}	@
 163              	.LCFI3:
 164              		.cfi_def_cfa_offset 52
 165              		.cfi_offset 80, -52
 166              		.cfi_offset 81, -48
 167              		.cfi_offset 82, -44
 168              		.cfi_offset 83, -40
 169 0016 A3B0     		sub	sp, sp, #140	@,,
 170              	.LCFI4:
 171              		.cfi_def_cfa_offset 192
 172              	@ src/main.c:83: 	initMat22(&R, body->rotation);
 173              		.loc 1 83 2 view .LVU15
 174 0018 1EA8     		add	r0, sp, #120	@,,
 175              	.LVL2:
 176              		.loc 1 83 2 view .LVU16
 177 001a FFF7FEFF 		bl	initMat22		@
 178              	.LVL3:
  84:src/main.c    **** 
  85:src/main.c    **** 	struct Vec2 x = body->position;
 179              		.loc 1 85 2 is_stmt 1 view .LVU17
 180              	@ src/main.c:86: 	struct Vec2 h = scaledVec2(0.5f, body->width);
  86:src/main.c    **** 	struct Vec2 h = scaledVec2(0.5f, body->width);
 181              		.loc 1 86 18 is_stmt 0 view .LVU18
 182 001e B6EE000A 		vmov.f32	s0, #5.0e-1	@,
 183              	@ src/main.c:85: 	struct Vec2 x = body->position;
  85:src/main.c    **** 	struct Vec2 h = scaledVec2(0.5f, body->width);
 184              		.loc 1 85 14 view .LVU19
 185 0022 02AB     		add	r3, sp, #8	@ tmp146,,
 186              	@ src/main.c:86: 	struct Vec2 h = scaledVec2(0.5f, body->width);
 187              		.loc 1 86 18 view .LVU20
 188 0024 D4ED090A 		vldr.32	s1, [r4, #36]	@, body_5(D)->width
 189 0028 94ED0A1A 		vldr.32	s2, [r4, #40]	@, body_5(D)->width
 190              	@ src/main.c:85: 	struct Vec2 x = body->position;
  85:src/main.c    **** 	struct Vec2 h = scaledVec2(0.5f, body->width);
 191              		.loc 1 85 14 view .LVU21
 192 002c 94E80300 		ldm	r4, {r0, r1}	@ body,,
ARM GAS  /tmp/ccxSzoZs.s 			page 6


 193 0030 83E80300 		stm	r3, {r0, r1}	@ tmp146,,
 194              		.loc 1 86 2 is_stmt 1 view .LVU22
 195              	@ src/main.c:86: 	struct Vec2 h = scaledVec2(0.5f, body->width);
 196              		.loc 1 86 18 is_stmt 0 view .LVU23
 197 0034 FFF7FEFF 		bl	scaledVec2		@
 198              	.LVL4:
 199 0038 B0EE608A 		vmov.f32	s16, s1	@ tmp242,
 200 003c F0EE408A 		vmov.f32	s17, s0	@ tmp150, tmp241
 201              	@ src/main.c:88: 	struct Vec2 v1 = sumVec2(x, matmul(R, initVec2(-h.x, -h.y)));
  87:src/main.c    **** 
  88:src/main.c    **** 	struct Vec2 v1 = sumVec2(x, matmul(R, initVec2(-h.x, -h.y)));
 202              		.loc 1 88 19 view .LVU24
 203 0040 DDED1F0A 		vldr.32	s1, [sp, #124]	@, R
 204 0044 9DED1E0A 		vldr.32	s0, [sp, #120]	@, R
 205 0048 F1EE489A 		vneg.f32	s19, s16	@ _3, tmp151
 206 004c 9DED201A 		vldr.32	s2, [sp, #128]	@, R
 207 0050 B1EE689A 		vneg.f32	s18, s17	@ _2, tmp150
 208 0054 DDED211A 		vldr.32	s3, [sp, #132]	@, R
 209              	@ src/main.c:86: 	struct Vec2 h = scaledVec2(0.5f, body->width);
  86:src/main.c    **** 
 210              		.loc 1 86 18 view .LVU25
 211 0058 8DED058A 		vstr.32	s16, [sp, #20]	@ tmp151, h
 212              	.LVL5:
 213              		.loc 1 88 2 is_stmt 1 view .LVU26
  33:src/main.c    **** 	res.x = x;
 214              		.loc 1 33 2 view .LVU27
  34:src/main.c    **** 	res.y = y;
 215              		.loc 1 34 2 view .LVU28
  35:src/main.c    **** 	return res;
 216              		.loc 1 35 2 view .LVU29
  36:src/main.c    **** }
 217              		.loc 1 36 2 view .LVU30
 218              	@ src/main.c:88: 	struct Vec2 v1 = sumVec2(x, matmul(R, initVec2(-h.x, -h.y)));
 219              		.loc 1 88 19 is_stmt 0 view .LVU31
 220 005c F0EE692A 		vmov.f32	s5, s19	@, _3
 221              	@ src/main.c:86: 	struct Vec2 h = scaledVec2(0.5f, body->width);
  86:src/main.c    **** 
 222              		.loc 1 86 18 view .LVU32
 223 0060 CDED048A 		vstr.32	s17, [sp, #16]	@ tmp150, h
 224              	@ src/main.c:88: 	struct Vec2 v1 = sumVec2(x, matmul(R, initVec2(-h.x, -h.y)));
 225              		.loc 1 88 19 view .LVU33
 226 0064 B0EE492A 		vmov.f32	s4, s18	@, _2
 227 0068 8DED0E9A 		vstr.32	s18, [sp, #56]	@ _2, MEM[(struct Vec2 *)&D.9849]
 228 006c CDED0F9A 		vstr.32	s19, [sp, #60]	@ _3, MEM[(struct Vec2 *)&D.9849 + 4B]
 229              	.LVL6:
 230              		.loc 1 88 19 view .LVU34
 231 0070 FFF7FEFF 		bl	matmul		@
 232              	.LVL7:
 233 0074 B0EE401A 		vmov.f32	s2, s0	@ tmp243,
 234 0078 9DED020A 		vldr.32	s0, [sp, #8]	@, x
 235 007c F0EE601A 		vmov.f32	s3, s1	@ tmp244,
 236 0080 DDED030A 		vldr.32	s1, [sp, #12]	@, x
 237 0084 8DED101A 		vstr.32	s2, [sp, #64]	@ tmp158, D.9850
 238 0088 CDED111A 		vstr.32	s3, [sp, #68]	@ tmp159, D.9850
 239 008c FFF7FEFF 		bl	sumVec2		@
 240              	.LVL8:
 241 0090 B0EE407A 		vmov.f32	s14, s0	@ tmp245,
ARM GAS  /tmp/ccxSzoZs.s 			page 7


 242              	@ src/main.c:89: 	struct Vec2 v2 = sumVec2(x, matmul(R, initVec2(h.x, -h.y)));
  89:src/main.c    **** 	struct Vec2 v2 = sumVec2(x, matmul(R, initVec2(h.x, -h.y)));
 243              		.loc 1 89 19 view .LVU35
 244 0094 9DED1E0A 		vldr.32	s0, [sp, #120]	@, R
 245              	@ src/main.c:88: 	struct Vec2 v1 = sumVec2(x, matmul(R, initVec2(-h.x, -h.y)));
  88:src/main.c    **** 	struct Vec2 v2 = sumVec2(x, matmul(R, initVec2(h.x, -h.y)));
 246              		.loc 1 88 19 view .LVU36
 247 0098 F0EE607A 		vmov.f32	s15, s1	@ tmp246,
 248              	@ src/main.c:89: 	struct Vec2 v2 = sumVec2(x, matmul(R, initVec2(h.x, -h.y)));
 249              		.loc 1 89 19 view .LVU37
 250 009c DDED1F0A 		vldr.32	s1, [sp, #124]	@, R
 251 00a0 F0EE692A 		vmov.f32	s5, s19	@, _3
 252 00a4 9DED201A 		vldr.32	s2, [sp, #128]	@, R
 253 00a8 B0EE682A 		vmov.f32	s4, s17	@, tmp150
 254 00ac DDED211A 		vldr.32	s3, [sp, #132]	@, R
 255              	@ src/main.c:88: 	struct Vec2 v1 = sumVec2(x, matmul(R, initVec2(-h.x, -h.y)));
  88:src/main.c    **** 	struct Vec2 v2 = sumVec2(x, matmul(R, initVec2(h.x, -h.y)));
 256              		.loc 1 88 19 view .LVU38
 257 00b0 8DED067A 		vstr.32	s14, [sp, #24]	@ tmp245, v1
 258 00b4 CDED077A 		vstr.32	s15, [sp, #28]	@ tmp246, v1
 259              		.loc 1 89 2 is_stmt 1 view .LVU39
 260              	.LVL9:
  33:src/main.c    **** 	res.x = x;
 261              		.loc 1 33 2 view .LVU40
  34:src/main.c    **** 	res.y = y;
 262              		.loc 1 34 2 view .LVU41
  35:src/main.c    **** 	return res;
 263              		.loc 1 35 2 view .LVU42
  36:src/main.c    **** }
 264              		.loc 1 36 2 view .LVU43
  36:src/main.c    **** }
 265              		.loc 1 36 2 is_stmt 0 view .LVU44
 266 00b8 CDED139A 		vstr.32	s19, [sp, #76]	@ _3, MEM[(struct Vec2 *)&D.9851 + 4B]
 267 00bc CDED128A 		vstr.32	s17, [sp, #72]	@ tmp150, MEM[(struct Vec2 *)&D.9851]
 268              	@ src/main.c:89: 	struct Vec2 v2 = sumVec2(x, matmul(R, initVec2(h.x, -h.y)));
 269              		.loc 1 89 19 view .LVU45
 270 00c0 FFF7FEFF 		bl	matmul		@
 271              	.LVL10:
 272 00c4 B0EE401A 		vmov.f32	s2, s0	@ tmp247,
 273 00c8 9DED020A 		vldr.32	s0, [sp, #8]	@, x
 274 00cc F0EE601A 		vmov.f32	s3, s1	@ tmp248,
 275 00d0 DDED030A 		vldr.32	s1, [sp, #12]	@, x
 276 00d4 8DED141A 		vstr.32	s2, [sp, #80]	@ tmp172, D.9852
 277 00d8 CDED151A 		vstr.32	s3, [sp, #84]	@ tmp173, D.9852
 278 00dc FFF7FEFF 		bl	sumVec2		@
 279              	.LVL11:
 280 00e0 B0EE407A 		vmov.f32	s14, s0	@ tmp249,
 281              	@ src/main.c:90: 	struct Vec2 v3 = sumVec2(x, matmul(R, initVec2(h.x, h.y)));
  90:src/main.c    **** 	struct Vec2 v3 = sumVec2(x, matmul(R, initVec2(h.x, h.y)));
 282              		.loc 1 90 19 view .LVU46
 283 00e4 9DED1E0A 		vldr.32	s0, [sp, #120]	@, R
 284              	@ src/main.c:89: 	struct Vec2 v2 = sumVec2(x, matmul(R, initVec2(h.x, -h.y)));
  89:src/main.c    **** 	struct Vec2 v3 = sumVec2(x, matmul(R, initVec2(h.x, h.y)));
 285              		.loc 1 89 19 view .LVU47
 286 00e8 F0EE607A 		vmov.f32	s15, s1	@ tmp250,
 287              	@ src/main.c:90: 	struct Vec2 v3 = sumVec2(x, matmul(R, initVec2(h.x, h.y)));
 288              		.loc 1 90 19 view .LVU48
ARM GAS  /tmp/ccxSzoZs.s 			page 8


 289 00ec DDED1F0A 		vldr.32	s1, [sp, #124]	@, R
 290 00f0 B0EE682A 		vmov.f32	s4, s17	@, tmp150
 291 00f4 9DED201A 		vldr.32	s2, [sp, #128]	@, R
 292 00f8 F0EE482A 		vmov.f32	s5, s16	@, tmp151
 293 00fc DDED211A 		vldr.32	s3, [sp, #132]	@, R
 294              	@ src/main.c:89: 	struct Vec2 v2 = sumVec2(x, matmul(R, initVec2(h.x, -h.y)));
  89:src/main.c    **** 	struct Vec2 v3 = sumVec2(x, matmul(R, initVec2(h.x, h.y)));
 295              		.loc 1 89 19 view .LVU49
 296 0100 8DED087A 		vstr.32	s14, [sp, #32]	@ tmp249, v2
 297 0104 CDED097A 		vstr.32	s15, [sp, #36]	@ tmp250, v2
 298 0108 8DED178A 		vstr.32	s16, [sp, #92]	@ tmp151, MEM[(struct Vec2 *)&D.9853 + 4B]
 299              		.loc 1 90 2 is_stmt 1 view .LVU50
 300              	.LVL12:
  33:src/main.c    **** 	res.x = x;
 301              		.loc 1 33 2 view .LVU51
  34:src/main.c    **** 	res.y = y;
 302              		.loc 1 34 2 view .LVU52
  35:src/main.c    **** 	return res;
 303              		.loc 1 35 2 view .LVU53
  36:src/main.c    **** }
 304              		.loc 1 36 2 view .LVU54
  36:src/main.c    **** }
 305              		.loc 1 36 2 is_stmt 0 view .LVU55
 306 010c CDED168A 		vstr.32	s17, [sp, #88]	@ tmp150, MEM[(struct Vec2 *)&D.9853]
 307              	@ src/main.c:90: 	struct Vec2 v3 = sumVec2(x, matmul(R, initVec2(h.x, h.y)));
 308              		.loc 1 90 19 view .LVU56
 309 0110 FFF7FEFF 		bl	matmul		@
 310              	.LVL13:
 311 0114 B0EE401A 		vmov.f32	s2, s0	@ tmp251,
 312 0118 9DED020A 		vldr.32	s0, [sp, #8]	@, x
 313 011c F0EE601A 		vmov.f32	s3, s1	@ tmp252,
 314 0120 DDED030A 		vldr.32	s1, [sp, #12]	@, x
 315 0124 8DED181A 		vstr.32	s2, [sp, #96]	@ tmp186, D.9854
 316 0128 CDED191A 		vstr.32	s3, [sp, #100]	@ tmp187, D.9854
 317 012c FFF7FEFF 		bl	sumVec2		@
 318              	.LVL14:
 319 0130 B0EE407A 		vmov.f32	s14, s0	@ tmp253,
 320              	@ src/main.c:91: 	struct Vec2 v4 = sumVec2(x, matmul(R, initVec2(-h.x, h.y)));
  91:src/main.c    **** 	struct Vec2 v4 = sumVec2(x, matmul(R, initVec2(-h.x, h.y)));
 321              		.loc 1 91 19 view .LVU57
 322 0134 9DED1E0A 		vldr.32	s0, [sp, #120]	@, R
 323              	@ src/main.c:90: 	struct Vec2 v3 = sumVec2(x, matmul(R, initVec2(h.x, h.y)));
  90:src/main.c    **** 	struct Vec2 v4 = sumVec2(x, matmul(R, initVec2(-h.x, h.y)));
 324              		.loc 1 90 19 view .LVU58
 325 0138 F0EE607A 		vmov.f32	s15, s1	@ tmp254,
 326              	@ src/main.c:91: 	struct Vec2 v4 = sumVec2(x, matmul(R, initVec2(-h.x, h.y)));
 327              		.loc 1 91 19 view .LVU59
 328 013c DDED1F0A 		vldr.32	s1, [sp, #124]	@, R
 329 0140 F0EE482A 		vmov.f32	s5, s16	@, tmp151
 330 0144 9DED201A 		vldr.32	s2, [sp, #128]	@, R
 331 0148 B0EE492A 		vmov.f32	s4, s18	@, _2
 332 014c DDED211A 		vldr.32	s3, [sp, #132]	@, R
 333              	@ src/main.c:90: 	struct Vec2 v3 = sumVec2(x, matmul(R, initVec2(h.x, h.y)));
  90:src/main.c    **** 	struct Vec2 v4 = sumVec2(x, matmul(R, initVec2(-h.x, h.y)));
 334              		.loc 1 90 19 view .LVU60
 335 0150 8DED0A7A 		vstr.32	s14, [sp, #40]	@ tmp253, v3
 336 0154 CDED0B7A 		vstr.32	s15, [sp, #44]	@ tmp254, v3
ARM GAS  /tmp/ccxSzoZs.s 			page 9


 337 0158 8DED1B8A 		vstr.32	s16, [sp, #108]	@ tmp151, MEM[(struct Vec2 *)&D.9855 + 4B]
 338              		.loc 1 91 2 is_stmt 1 view .LVU61
 339              	.LVL15:
  33:src/main.c    **** 	res.x = x;
 340              		.loc 1 33 2 view .LVU62
  34:src/main.c    **** 	res.y = y;
 341              		.loc 1 34 2 view .LVU63
  35:src/main.c    **** 	return res;
 342              		.loc 1 35 2 view .LVU64
  36:src/main.c    **** }
 343              		.loc 1 36 2 view .LVU65
  36:src/main.c    **** }
 344              		.loc 1 36 2 is_stmt 0 view .LVU66
 345 015c 8DED1A9A 		vstr.32	s18, [sp, #104]	@ _2, MEM[(struct Vec2 *)&D.9855]
 346              	@ src/main.c:91: 	struct Vec2 v4 = sumVec2(x, matmul(R, initVec2(-h.x, h.y)));
 347              		.loc 1 91 19 view .LVU67
 348 0160 FFF7FEFF 		bl	matmul		@
 349              	.LVL16:
 350 0164 B0EE401A 		vmov.f32	s2, s0	@ tmp255,
 351 0168 9DED020A 		vldr.32	s0, [sp, #8]	@, x
 352 016c F0EE601A 		vmov.f32	s3, s1	@ tmp256,
 353 0170 DDED030A 		vldr.32	s1, [sp, #12]	@, x
 354 0174 8DED1C1A 		vstr.32	s2, [sp, #112]	@ tmp200, D.9856
 355 0178 CDED1D1A 		vstr.32	s3, [sp, #116]	@ tmp201, D.9856
 356 017c FFF7FEFF 		bl	sumVec2		@
 357              	.LVL17:
 358              	.LBB23:
 359              	.LBB20:
 360              	@ src/main.c:77: 	pd->graphics->drawLine((int)a.x, (int)a.y, (int)b.x, (int)b.y, 1, color);
  77:src/main.c    **** }
 361              		.loc 1 77 2 view .LVU68
 362 0180 DDED067A 		vldr.32	s15, [sp, #24]	@ MEM[(struct Vec2 *)&v1], MEM[(struct Vec2 *)&v1]
 363 0184 DDED076A 		vldr.32	s13, [sp, #28]	@ MEM[(struct Vec2 *)&v1 + 4B], MEM[(struct Vec2 *)&v1 + 4B]
 364 0188 FDEEE77A 		vcvt.s32.f32	s15, s15	@ _43, MEM[(struct Vec2 *)&v1]
 365 018c 9DED087A 		vldr.32	s14, [sp, #32]	@ MEM[(struct Vec2 *)&v2], MEM[(struct Vec2 *)&v2]
 366              	@ src/main.c:77: 	pd->graphics->drawLine((int)a.x, (int)a.y, (int)b.x, (int)b.y, 1, color);
  77:src/main.c    **** }
 367              		.loc 1 77 4 view .LVU69
 368 0190 D9F80030 		ldr	r3, [r9]	@ pd, pd
 369              	@ src/main.c:77: 	pd->graphics->drawLine((int)a.x, (int)a.y, (int)b.x, (int)b.y, 1, color);
  77:src/main.c    **** }
 370              		.loc 1 77 2 view .LVU70
 371 0194 FDEEE66A 		vcvt.s32.f32	s13, s13	@ _44, MEM[(struct Vec2 *)&v1 + 4B]
 372 0198 BDEEC77A 		vcvt.s32.f32	s14, s14	@ _45, MEM[(struct Vec2 *)&v2]
 373              	.LBE20:
 374              	.LBE23:
 375              	@ src/main.c:91: 	struct Vec2 v4 = sumVec2(x, matmul(R, initVec2(-h.x, h.y)));
 376              		.loc 1 91 19 view .LVU71
 377 019c 8DED0C0A 		vstr.32	s0, [sp, #48]	@ tmp257, v4
 378              	.LBB24:
 379              	.LBB21:
 380              	@ src/main.c:77: 	pd->graphics->drawLine((int)a.x, (int)a.y, (int)b.x, (int)b.y, 1, color);
  77:src/main.c    **** }
 381              		.loc 1 77 2 view .LVU72
 382 01a0 17EE908A 		vmov	r8, s15	@ int	@ _43, _43
 383 01a4 DDED097A 		vldr.32	s15, [sp, #36]	@ MEM[(struct Vec2 *)&v2 + 4B], MEM[(struct Vec2 *)&v2 + 4B]
 384              	@ src/main.c:77: 	pd->graphics->drawLine((int)a.x, (int)a.y, (int)b.x, (int)b.y, 1, color);
ARM GAS  /tmp/ccxSzoZs.s 			page 10


  77:src/main.c    **** }
 385              		.loc 1 77 14 view .LVU73
 386 01a8 D3F808C0 		ldr	ip, [r3, #8]	@ pd.1_40->graphics, pd.1_40->graphics
 387              	@ src/main.c:77: 	pd->graphics->drawLine((int)a.x, (int)a.y, (int)b.x, (int)b.y, 1, color);
  77:src/main.c    **** }
 388              		.loc 1 77 2 view .LVU74
 389 01ac 16EE901A 		vmov	r1, s13	@ int	@, _44
 390 01b0 FDEEE77A 		vcvt.s32.f32	s15, s15	@ _46, MEM[(struct Vec2 *)&v2 + 4B]
 391 01b4 4046     		mov	r0, r8	@, _43
 392 01b6 17EE102A 		vmov	r2, s14	@ int	@, _45
 393 01ba 0196     		str	r6, [sp, #4]	@ tmp215,
 394 01bc 0095     		str	r5, [sp]	@ tmp216,
 395 01be 16EE90AA 		vmov	r10, s13	@ int	@ _44, _44
 396 01c2 DCF83CB0 		ldr	fp, [ip, #60]	@ _41->drawLine, _41->drawLine
 397 01c6 17EE903A 		vmov	r3, s15	@ int	@, _46
 398              	.LBE21:
 399              	.LBE24:
 400              	@ src/main.c:91: 	struct Vec2 v4 = sumVec2(x, matmul(R, initVec2(-h.x, h.y)));
 401              		.loc 1 91 19 view .LVU75
 402 01ca CDED0D0A 		vstr.32	s1, [sp, #52]	@ tmp258, v4
  92:src/main.c    **** 
  93:src/main.c    **** 	drawLineV(v1, v2, kColorBlack);
 403              		.loc 1 93 2 is_stmt 1 view .LVU76
 404              	.LVL18:
 405              	.LBB25:
 406              	.LBI18:
  75:src/main.c    **** {
 407              		.loc 1 75 20 view .LVU77
 408              	.LBB22:
  77:src/main.c    **** }
 409              		.loc 1 77 2 view .LVU78
 410 01ce 17EE104A 		vmov	r4, s14	@ int	@ _45, _45
 411              	.LVL19:
  77:src/main.c    **** }
 412              		.loc 1 77 2 is_stmt 0 view .LVU79
 413 01d2 17EE907A 		vmov	r7, s15	@ int	@ _46, _46
 414 01d6 D847     		blx	fp		@ _41->drawLine
 415              	.LVL20:
  77:src/main.c    **** }
 416              		.loc 1 77 2 view .LVU80
 417              	.LBE22:
 418              	.LBE25:
  94:src/main.c    **** 	drawLineV(v2, v3, kColorBlack);
 419              		.loc 1 94 2 is_stmt 1 view .LVU81
 420              	.LBB26:
 421              	.LBI26:
  75:src/main.c    **** {
 422              		.loc 1 75 20 view .LVU82
 423              	.LBB27:
  77:src/main.c    **** }
 424              		.loc 1 77 2 view .LVU83
 425 01d8 9DED0A7A 		vldr.32	s14, [sp, #40]	@ MEM[(struct Vec2 *)&v3], MEM[(struct Vec2 *)&v3]
 426 01dc 2046     		mov	r0, r4	@, _45
 427 01de DDED0B7A 		vldr.32	s15, [sp, #44]	@ MEM[(struct Vec2 *)&v3 + 4B], MEM[(struct Vec2 *)&v3 + 4B]
 428 01e2 3946     		mov	r1, r7	@, _46
 429              	@ src/main.c:77: 	pd->graphics->drawLine((int)a.x, (int)a.y, (int)b.x, (int)b.y, 1, color);
  77:src/main.c    **** }
ARM GAS  /tmp/ccxSzoZs.s 			page 11


 430              		.loc 1 77 4 is_stmt 0 view .LVU84
 431 01e4 D9F80020 		ldr	r2, [r9]	@ pd, pd
 432              	@ src/main.c:77: 	pd->graphics->drawLine((int)a.x, (int)a.y, (int)b.x, (int)b.y, 1, color);
  77:src/main.c    **** }
 433              		.loc 1 77 2 view .LVU85
 434 01e8 BDEEC77A 		vcvt.s32.f32	s14, s14	@ _38, MEM[(struct Vec2 *)&v3]
 435 01ec FDEEE77A 		vcvt.s32.f32	s15, s15	@ _39, MEM[(struct Vec2 *)&v3 + 4B]
 436              	@ src/main.c:77: 	pd->graphics->drawLine((int)a.x, (int)a.y, (int)b.x, (int)b.y, 1, color);
  77:src/main.c    **** }
 437              		.loc 1 77 14 view .LVU86
 438 01f0 9768     		ldr	r7, [r2, #8]	@ pd.1_35->graphics, pd.1_35->graphics
 439              	@ src/main.c:77: 	pd->graphics->drawLine((int)a.x, (int)a.y, (int)b.x, (int)b.y, 1, color);
  77:src/main.c    **** }
 440              		.loc 1 77 2 view .LVU87
 441 01f2 17EE102A 		vmov	r2, s14	@ int	@, _38
 442 01f6 17EE10BA 		vmov	fp, s14	@ int	@ _38, _38
 443 01fa 17EE903A 		vmov	r3, s15	@ int	@, _39
 444 01fe 17EE904A 		vmov	r4, s15	@ int	@ _39, _39
 445 0202 CDE90056 		strd	r5, r6, [sp]	@ tmp216, tmp215,
 446 0206 FF6B     		ldr	r7, [r7, #60]	@ _36->drawLine, _36->drawLine
 447 0208 B847     		blx	r7		@ _36->drawLine
 448              	.LVL21:
  77:src/main.c    **** }
 449              		.loc 1 77 2 view .LVU88
 450              	.LBE27:
 451              	.LBE26:
  95:src/main.c    **** 	drawLineV(v3, v4, kColorBlack);
 452              		.loc 1 95 2 is_stmt 1 view .LVU89
 453              	.LBB28:
 454              	.LBI28:
  75:src/main.c    **** {
 455              		.loc 1 75 20 view .LVU90
 456              	.LBB29:
  77:src/main.c    **** }
 457              		.loc 1 77 2 view .LVU91
 458 020a 9DED0C7A 		vldr.32	s14, [sp, #48]	@ MEM[(struct Vec2 *)&v4], MEM[(struct Vec2 *)&v4]
 459 020e DDED0D7A 		vldr.32	s15, [sp, #52]	@ MEM[(struct Vec2 *)&v4 + 4B], MEM[(struct Vec2 *)&v4 + 4B]
 460 0212 2146     		mov	r1, r4	@, _39
 461              	@ src/main.c:77: 	pd->graphics->drawLine((int)a.x, (int)a.y, (int)b.x, (int)b.y, 1, color);
  77:src/main.c    **** }
 462              		.loc 1 77 4 is_stmt 0 view .LVU92
 463 0214 D9F80030 		ldr	r3, [r9]	@ pd, pd
 464              	@ src/main.c:77: 	pd->graphics->drawLine((int)a.x, (int)a.y, (int)b.x, (int)b.y, 1, color);
  77:src/main.c    **** }
 465              		.loc 1 77 2 view .LVU93
 466 0218 BDEEC77A 		vcvt.s32.f32	s14, s14	@ _33, MEM[(struct Vec2 *)&v4]
 467 021c FDEEE77A 		vcvt.s32.f32	s15, s15	@ _34, MEM[(struct Vec2 *)&v4 + 4B]
 468 0220 5846     		mov	r0, fp	@, _38
 469              	@ src/main.c:77: 	pd->graphics->drawLine((int)a.x, (int)a.y, (int)b.x, (int)b.y, 1, color);
  77:src/main.c    **** }
 470              		.loc 1 77 14 view .LVU94
 471 0222 D3F808C0 		ldr	ip, [r3, #8]	@ pd.1_30->graphics, pd.1_30->graphics
 472              	@ src/main.c:77: 	pd->graphics->drawLine((int)a.x, (int)a.y, (int)b.x, (int)b.y, 1, color);
  77:src/main.c    **** }
 473              		.loc 1 77 2 view .LVU95
 474 0226 17EE102A 		vmov	r2, s14	@ int	@, _33
 475 022a 17EE104A 		vmov	r4, s14	@ int	@ _33, _33
ARM GAS  /tmp/ccxSzoZs.s 			page 12


 476 022e 17EE903A 		vmov	r3, s15	@ int	@, _34
 477 0232 17EE907A 		vmov	r7, s15	@ int	@ _34, _34
 478 0236 CDE90056 		strd	r5, r6, [sp]	@ tmp216, tmp215,
 479 023a DCF83CB0 		ldr	fp, [ip, #60]	@ _31->drawLine, _31->drawLine
 480 023e D847     		blx	fp		@ _31->drawLine
 481              	.LVL22:
  77:src/main.c    **** }
 482              		.loc 1 77 2 view .LVU96
 483              	.LBE29:
 484              	.LBE28:
  96:src/main.c    **** 	drawLineV(v4, v1, kColorBlack);
 485              		.loc 1 96 2 is_stmt 1 view .LVU97
 486              	.LBB30:
 487              	.LBI30:
  75:src/main.c    **** {
 488              		.loc 1 75 20 view .LVU98
 489              	.LBB31:
  77:src/main.c    **** }
 490              		.loc 1 77 2 view .LVU99
 491              	@ src/main.c:77: 	pd->graphics->drawLine((int)a.x, (int)a.y, (int)b.x, (int)b.y, 1, color);
  77:src/main.c    **** }
 492              		.loc 1 77 4 is_stmt 0 view .LVU100
 493 0240 D9F80010 		ldr	r1, [r9]	@ pd, pd
 494              	@ src/main.c:77: 	pd->graphics->drawLine((int)a.x, (int)a.y, (int)b.x, (int)b.y, 1, color);
  77:src/main.c    **** }
 495              		.loc 1 77 2 view .LVU101
 496 0244 2046     		mov	r0, r4	@, _33
 497 0246 5346     		mov	r3, r10	@, _44
 498              	@ src/main.c:77: 	pd->graphics->drawLine((int)a.x, (int)a.y, (int)b.x, (int)b.y, 1, color);
  77:src/main.c    **** }
 499              		.loc 1 77 14 view .LVU102
 500 0248 D1F808C0 		ldr	ip, [r1, #8]	@ pd.1_27->graphics, pd.1_27->graphics
 501              	@ src/main.c:77: 	pd->graphics->drawLine((int)a.x, (int)a.y, (int)b.x, (int)b.y, 1, color);
  77:src/main.c    **** }
 502              		.loc 1 77 2 view .LVU103
 503 024c 4246     		mov	r2, r8	@, _43
 504 024e 3946     		mov	r1, r7	@, _34
 505 0250 CDE90056 		strd	r5, r6, [sp]	@ tmp216, tmp215,
 506 0254 DCF83C40 		ldr	r4, [ip, #60]	@ _28->drawLine, _28->drawLine
 507 0258 A047     		blx	r4		@ _28->drawLine
 508              	.LVL23:
  77:src/main.c    **** }
 509              		.loc 1 77 2 view .LVU104
 510              	.LBE31:
 511              	.LBE30:
 512              	@ src/main.c:97: }
  97:src/main.c    **** }
 513              		.loc 1 97 1 view .LVU105
 514 025a 23B0     		add	sp, sp, #140	@,,
 515              	.LCFI5:
 516              		.cfi_def_cfa_offset 52
 517              		@ sp needed	@
 518 025c BDEC048B 		vldm	sp!, {d8-d9}	@,
 519              	.LCFI6:
 520              		.cfi_restore 82
 521              		.cfi_restore 83
 522              		.cfi_restore 80
ARM GAS  /tmp/ccxSzoZs.s 			page 13


 523              		.cfi_restore 81
 524              		.cfi_def_cfa_offset 36
 525 0260 BDE8F08F 		pop	{r4, r5, r6, r7, r8, r9, r10, fp, pc}	@
 526              	.L7:
 527              		.align	2
 528              	.L6:
 529 0264 00000000 		.word	.LANCHOR0
 530              		.cfi_endproc
 531              	.LFE18:
 532              		.size	DrawBody, .-DrawBody
 533              		.section	.text.update,"ax",%progbits
 534              		.align	1
 535              		.p2align 4,,15
 536              		.global	update
 537              		.syntax unified
 538              		.thumb
 539              		.thumb_func
 540              		.fpu fpv5-sp-d16
 541              		.type	update, %function
 542              	update:
 543              	.LVL24:
 544              	.LFB20:
  98:src/main.c    **** 
  99:src/main.c    **** void Init(void)
 100:src/main.c    **** {
 101:src/main.c    **** 	iterations = 20;
 102:src/main.c    **** 	gravity.x = 0.0f;
 103:src/main.c    **** 	gravity.y = 50.0f;
 104:src/main.c    **** 
 105:src/main.c    **** 	struct Vec2 size;
 106:src/main.c    **** 	size.x = 300.f;
 107:src/main.c    **** 	size.y = 40.0f;
 108:src/main.c    **** 
 109:src/main.c    **** 	struct Vec2 pos;
 110:src/main.c    **** 	pos.x = 200;
 111:src/main.c    **** 	pos.y = 240 + -0.5f * size.y;
 112:src/main.c    **** 
 113:src/main.c    **** 	initBody(&ground, size, FLT_MAX);
 114:src/main.c    **** 	ground.position = pos;
 115:src/main.c    **** 
 116:src/main.c    **** 	addBody(&ground);
 117:src/main.c    **** 
 118:src/main.c    **** 	size.x = 20.0f;
 119:src/main.c    **** 	size.y = 20.0f;
 120:src/main.c    **** 
 121:src/main.c    **** 	for (int i = 0; i < CRATE_COUNT; ++i)
 122:src/main.c    **** 	{
 123:src/main.c    **** 		initBody(&crates[i], size, 1.0f);
 124:src/main.c    **** 		crates[i].friction = 0.2f;
 125:src/main.c    **** 
 126:src/main.c    **** 		float x = RandomRange(-100.0f, 100.0f);
 127:src/main.c    **** 		pos.x = 200.0f + x;
 128:src/main.c    **** 		pos.y = 100.0f - 20.05f * i;
 129:src/main.c    **** 		crates[i].position = pos;
 130:src/main.c    **** 
 131:src/main.c    **** 		addBody(&crates[i]);
 132:src/main.c    **** 	}
ARM GAS  /tmp/ccxSzoZs.s 			page 14


 133:src/main.c    **** 
 134:src/main.c    **** 	return;
 135:src/main.c    **** }
 136:src/main.c    **** 
 137:src/main.c    **** int update(void *ud)
 138:src/main.c    **** {
 545              		.loc 1 138 1 is_stmt 1 view -0
 546              		.cfi_startproc
 547              		@ args = 0, pretend = 0, frame = 0
 548              		@ frame_needed = 0, uses_anonymous_args = 0
 139:src/main.c    **** 	(void)ud; // unused
 549              		.loc 1 139 2 view .LVU107
 140:src/main.c    **** 
 141:src/main.c    **** 	// Update
 142:src/main.c    **** 	//----------------------------------------------------------------------------------
 143:src/main.c    **** 	// Physics body creation inputs
 144:src/main.c    **** 	// if (isButtonDown(kButtonA))
 145:src/main.c    **** 	// 	CreatePhysicsBodyPolygon((Vector2){getRand(180, 220), 20}, getRand(10, 40), getRand(3, 8), 1);
 146:src/main.c    **** 	// else if (isButtonDown(kButtonB))
 147:src/main.c    **** 	// 	CreatePhysicsBodyCircle((Vector2){getRand(180, 220), 20}, getRand(5, 25), 1);
 148:src/main.c    **** 
 149:src/main.c    **** 	// Destroy falling physics bodies
 150:src/main.c    **** 
 151:src/main.c    **** 	pd->graphics->clear(kColorWhite);
 550              		.loc 1 151 2 view .LVU108
 551              	@ src/main.c:138: {
 138:src/main.c    **** 	(void)ud; // unused
 552              		.loc 1 138 1 is_stmt 0 view .LVU109
 553 0000 70B5     		push	{r4, r5, r6, lr}	@
 554              	.LCFI7:
 555              		.cfi_def_cfa_offset 16
 556              		.cfi_offset 4, -16
 557              		.cfi_offset 5, -12
 558              		.cfi_offset 6, -8
 559              		.cfi_offset 14, -4
 560              	@ src/main.c:151: 	pd->graphics->clear(kColorWhite);
 561              		.loc 1 151 4 view .LVU110
 562 0002 0F4E     		ldr	r6, .L12	@ tmp132,
 563              	@ src/main.c:151: 	pd->graphics->clear(kColorWhite);
 564              		.loc 1 151 2 view .LVU111
 565 0004 0120     		movs	r0, #1	@,
 566              	.LVL25:
 567              		.loc 1 151 2 view .LVU112
 568 0006 0F4C     		ldr	r4, .L12+4	@ ivtmp.52,
 569              	@ src/main.c:151: 	pd->graphics->clear(kColorWhite);
 570              		.loc 1 151 4 view .LVU113
 571 0008 3368     		ldr	r3, [r6]	@ pd, pd
 572 000a 04F57065 		add	r5, r4, #3840	@ _25, ivtmp.52,
 573              	@ src/main.c:151: 	pd->graphics->clear(kColorWhite);
 574              		.loc 1 151 14 view .LVU114
 575 000e 9B68     		ldr	r3, [r3, #8]	@ pd.2_1->graphics, pd.2_1->graphics
 576              	@ src/main.c:151: 	pd->graphics->clear(kColorWhite);
 577              		.loc 1 151 2 view .LVU115
 578 0010 5B68     		ldr	r3, [r3, #4]	@ _2->clear, _2->clear
 579 0012 9847     		blx	r3		@ _2->clear
 580              	.LVL26:
 152:src/main.c    **** 
ARM GAS  /tmp/ccxSzoZs.s 			page 15


 153:src/main.c    **** 	// Draw created physics bodies
 154:src/main.c    **** 	float dt = 1.0f/30.f;
 581              		.loc 1 154 2 is_stmt 1 view .LVU116
 155:src/main.c    **** 	Step(dt);
 582              		.loc 1 155 2 view .LVU117
 583 0014 9FED0C0A 		vldr.32	s0, .L12+8	@,
 584 0018 FFF7FEFF 		bl	Step		@
 585              	.LVL27:
 156:src/main.c    **** 	
 157:src/main.c    **** 	DrawBody(&ground);        
 586              		.loc 1 157 2 view .LVU118
 587 001c 0B48     		ldr	r0, .L12+12	@,
 588 001e FFF7FEFF 		bl	DrawBody		@
 589              	.LVL28:
 158:src/main.c    **** 	
 159:src/main.c    **** 	for (int i=0;i<CRATE_COUNT;i++)
 590              		.loc 1 159 2 view .LVU119
 591              	.LBB32:
 592              		.loc 1 159 7 view .LVU120
 593              		.loc 1 159 15 view .LVU121
 594              	.L9:
 160:src/main.c    **** 		DrawBody(&crates[i]);
 595              		.loc 1 160 3 discriminator 3 view .LVU122
 596 0022 2046     		mov	r0, r4	@, ivtmp.52
 597 0024 4034     		adds	r4, r4, #64	@ ivtmp.52, ivtmp.52,
 598 0026 FFF7FEFF 		bl	DrawBody		@
 599              	.LVL29:
 159:src/main.c    **** 		DrawBody(&crates[i]);
 600              		.loc 1 159 29 discriminator 3 view .LVU123
 159:src/main.c    **** 		DrawBody(&crates[i]);
 601              		.loc 1 159 15 discriminator 3 view .LVU124
 602              	@ src/main.c:159: 	for (int i=0;i<CRATE_COUNT;i++)
 159:src/main.c    **** 		DrawBody(&crates[i]);
 603              		.loc 1 159 2 is_stmt 0 discriminator 3 view .LVU125
 604 002a AC42     		cmp	r4, r5	@ ivtmp.52, _25
 605 002c F9D1     		bne	.L9		@,
 606              	.LBE32:
 161:src/main.c    **** 
 162:src/main.c    **** 	pd->system->drawFPS(0, 0);
 607              		.loc 1 162 2 is_stmt 1 view .LVU126
 608              	@ src/main.c:162: 	pd->system->drawFPS(0, 0);
 609              		.loc 1 162 4 is_stmt 0 view .LVU127
 610 002e 3368     		ldr	r3, [r6]	@ pd, pd
 611              	@ src/main.c:162: 	pd->system->drawFPS(0, 0);
 612              		.loc 1 162 2 view .LVU128
 613 0030 0021     		movs	r1, #0	@,
 614              	@ src/main.c:162: 	pd->system->drawFPS(0, 0);
 615              		.loc 1 162 12 view .LVU129
 616 0032 1B68     		ldr	r3, [r3]	@ pd.3_5->system, pd.3_5->system
 617              	@ src/main.c:162: 	pd->system->drawFPS(0, 0);
 618              		.loc 1 162 2 view .LVU130
 619 0034 0846     		mov	r0, r1	@,
 620 0036 DB69     		ldr	r3, [r3, #28]	@ _6->drawFPS, _6->drawFPS
 621 0038 9847     		blx	r3		@ _6->drawFPS
 622              	.LVL30:
 163:src/main.c    **** 	return 1;
 623              		.loc 1 163 2 is_stmt 1 view .LVU131
ARM GAS  /tmp/ccxSzoZs.s 			page 16


 624              	@ src/main.c:164: }
 164:src/main.c    **** }
 625              		.loc 1 164 1 is_stmt 0 view .LVU132
 626 003a 0120     		movs	r0, #1	@,
 627 003c 70BD     		pop	{r4, r5, r6, pc}	@
 628              	.L13:
 629 003e 00BF     		.align	2
 630              	.L12:
 631 0040 00000000 		.word	.LANCHOR0
 632 0044 00000000 		.word	crates
 633 0048 8988083D 		.word	1023969417
 634 004c 00000000 		.word	ground
 635              		.cfi_endproc
 636              	.LFE20:
 637              		.size	update, .-update
 638              		.section	.text.Init,"ax",%progbits
 639              		.align	1
 640              		.p2align 4,,15
 641              		.global	Init
 642              		.syntax unified
 643              		.thumb
 644              		.thumb_func
 645              		.fpu fpv5-sp-d16
 646              		.type	Init, %function
 647              	Init:
 648              	.LFB19:
 100:src/main.c    **** 	iterations = 20;
 649              		.loc 1 100 1 is_stmt 1 view -0
 650              		.cfi_startproc
 651              		@ args = 0, pretend = 0, frame = 8
 652              		@ frame_needed = 0, uses_anonymous_args = 0
 101:src/main.c    **** 	gravity.x = 0.0f;
 653              		.loc 1 101 2 view .LVU134
 654              	@ src/main.c:101: 	iterations = 20;
 101:src/main.c    **** 	gravity.x = 0.0f;
 655              		.loc 1 101 13 is_stmt 0 view .LVU135
 656 0000 1421     		movs	r1, #20	@ tmp119,
 657 0002 294A     		ldr	r2, .L18	@ tmp118,
 658              	@ src/main.c:102: 	gravity.x = 0.0f;
 102:src/main.c    **** 	gravity.y = 50.0f;
 659              		.loc 1 102 12 view .LVU136
 660 0004 294B     		ldr	r3, .L18+4	@ tmp120,
 661              	@ src/main.c:113: 	initBody(&ground, size, FLT_MAX);
 113:src/main.c    **** 	ground.position = pos;
 662              		.loc 1 113 2 view .LVU137
 663 0006 9FED2A1A 		vldr.32	s2, .L18+8	@,
 664 000a 9FED2A0A 		vldr.32	s0, .L18+12	@,
 665 000e DFED2A0A 		vldr.32	s1, .L18+16	@,
 666              	@ src/main.c:100: {
 100:src/main.c    **** 	iterations = 20;
 667              		.loc 1 100 1 view .LVU138
 668 0012 70B5     		push	{r4, r5, r6, lr}	@
 669              	.LCFI8:
 670              		.cfi_def_cfa_offset 16
 671              		.cfi_offset 4, -16
 672              		.cfi_offset 5, -12
 673              		.cfi_offset 6, -8
ARM GAS  /tmp/ccxSzoZs.s 			page 17


 674              		.cfi_offset 14, -4
 675              	@ src/main.c:113: 	initBody(&ground, size, FLT_MAX);
 113:src/main.c    **** 	ground.position = pos;
 676              		.loc 1 113 2 view .LVU139
 677 0014 294C     		ldr	r4, .L18+20	@ tmp129,
 678              	.LBB33:
 679              	@ src/main.c:121: 	for (int i = 0; i < CRATE_COUNT; ++i)
 121:src/main.c    **** 	{
 680              		.loc 1 121 11 view .LVU140
 681 0016 0025     		movs	r5, #0	@ i,
 682              	.LBB34:
 683              	@ src/main.c:124: 		crates[i].friction = 0.2f;
 124:src/main.c    **** 
 684              		.loc 1 124 22 view .LVU141
 685 0018 294E     		ldr	r6, .L18+24	@ tmp139,
 686              	.LBE34:
 687              	.LBE33:
 688              	@ src/main.c:113: 	initBody(&ground, size, FLT_MAX);
 113:src/main.c    **** 	ground.position = pos;
 689              		.loc 1 113 2 view .LVU142
 690 001a 2046     		mov	r0, r4	@, tmp129
 691              	@ src/main.c:100: {
 100:src/main.c    **** 	iterations = 20;
 692              		.loc 1 100 1 view .LVU143
 693 001c 2DED048B 		vpush.64	{d8, d9}	@
 694              	.LCFI9:
 695              		.cfi_def_cfa_offset 32
 696              		.cfi_offset 80, -32
 697              		.cfi_offset 81, -28
 698              		.cfi_offset 82, -24
 699              		.cfi_offset 83, -20
 700              	@ src/main.c:101: 	iterations = 20;
 101:src/main.c    **** 	gravity.x = 0.0f;
 701              		.loc 1 101 13 view .LVU144
 702 0020 1160     		str	r1, [r2]	@ tmp119, iterations
 102:src/main.c    **** 	gravity.y = 50.0f;
 703              		.loc 1 102 2 is_stmt 1 view .LVU145
 704              	@ src/main.c:102: 	gravity.x = 0.0f;
 102:src/main.c    **** 	gravity.y = 50.0f;
 705              		.loc 1 102 12 is_stmt 0 view .LVU146
 706 0022 0021     		movs	r1, #0	@ tmp121,
 707              	@ src/main.c:103: 	gravity.y = 50.0f;
 103:src/main.c    **** 
 708              		.loc 1 103 12 view .LVU147
 709 0024 274A     		ldr	r2, .L18+28	@ tmp123,
 710              	@ src/main.c:100: {
 100:src/main.c    **** 	iterations = 20;
 711              		.loc 1 100 1 view .LVU148
 712 0026 82B0     		sub	sp, sp, #8	@,,
 713              	.LCFI10:
 714              		.cfi_def_cfa_offset 40
 715              	@ src/main.c:102: 	gravity.x = 0.0f;
 102:src/main.c    **** 	gravity.y = 50.0f;
 716              		.loc 1 102 12 view .LVU149
 717 0028 1960     		str	r1, [r3]	@ float	@ tmp121, gravity.x
 103:src/main.c    **** 
 718              		.loc 1 103 2 is_stmt 1 view .LVU150
ARM GAS  /tmp/ccxSzoZs.s 			page 18


 719              	@ src/main.c:103: 	gravity.y = 50.0f;
 103:src/main.c    **** 
 720              		.loc 1 103 12 is_stmt 0 view .LVU151
 721 002a 5A60     		str	r2, [r3, #4]	@ float	@ tmp123, gravity.y
 105:src/main.c    **** 	size.x = 300.f;
 722              		.loc 1 105 2 is_stmt 1 view .LVU152
 106:src/main.c    **** 	size.y = 40.0f;
 723              		.loc 1 106 2 view .LVU153
 107:src/main.c    **** 
 724              		.loc 1 107 2 view .LVU154
 725              	.LVL31:
 109:src/main.c    **** 	pos.x = 200;
 726              		.loc 1 109 2 view .LVU155
 110:src/main.c    **** 	pos.y = 240 + -0.5f * size.y;
 727              		.loc 1 110 2 view .LVU156
 111:src/main.c    **** 
 728              		.loc 1 111 2 view .LVU157
 113:src/main.c    **** 	ground.position = pos;
 729              		.loc 1 113 2 view .LVU158
 730 002c FFF7FEFF 		bl	initBody		@
 731              	.LVL32:
 114:src/main.c    **** 
 732              		.loc 1 114 2 view .LVU159
 733              	@ src/main.c:114: 	ground.position = pos;
 114:src/main.c    **** 
 734              		.loc 1 114 18 is_stmt 0 view .LVU160
 735 0030 9FED258A 		vldr.32	s16, .L18+32	@ tmp131,
 736              	@ src/main.c:116: 	addBody(&ground);
 116:src/main.c    **** 
 737              		.loc 1 116 2 view .LVU161
 738 0034 2046     		mov	r0, r4	@, tmp129
 739              	@ src/main.c:114: 	ground.position = pos;
 114:src/main.c    **** 
 740              		.loc 1 114 18 view .LVU162
 741 0036 254B     		ldr	r3, .L18+36	@ tmp133,
 742 0038 84ED008A 		vstr.32	s16, [r4]	@ tmp131, MEM[(struct Vec2 *)&ground]
 743 003c 6360     		str	r3, [r4, #4]	@ float	@ tmp133, MEM[(struct Vec2 *)&ground + 4B]
 116:src/main.c    **** 
 744              		.loc 1 116 2 is_stmt 1 view .LVU163
 745 003e FFF7FEFF 		bl	addBody		@
 746              	.LVL33:
 118:src/main.c    **** 	size.y = 20.0f;
 747              		.loc 1 118 2 view .LVU164
 748 0042 234C     		ldr	r4, .L18+40	@ ivtmp.61,
 749              	@ src/main.c:118: 	size.x = 20.0f;
 118:src/main.c    **** 	size.y = 20.0f;
 750              		.loc 1 118 9 is_stmt 0 view .LVU165
 751 0044 234B     		ldr	r3, .L18+44	@ tmp135,
 752              	.LBB38:
 753              	.LBB35:
 754              	@ src/main.c:126: 		float x = RandomRange(-100.0f, 100.0f);
 126:src/main.c    **** 		pos.x = 200.0f + x;
 755              		.loc 1 126 13 view .LVU166
 756 0046 DFED249A 		vldr.32	s19, .L18+48	@ tmp140,
 757 004a 9FED249A 		vldr.32	s18, .L18+52	@ tmp148,
 758              	@ src/main.c:128: 		pos.y = 100.0f - 20.05f * i;
 128:src/main.c    **** 		crates[i].position = pos;
ARM GAS  /tmp/ccxSzoZs.s 			page 19


 759              		.loc 1 128 18 view .LVU167
 760 004e DFED248A 		vldr.32	s17, .L18+56	@ tmp144,
 761              	.LBE35:
 762              	.LBE38:
 763              	@ src/main.c:118: 	size.x = 20.0f;
 118:src/main.c    **** 	size.y = 20.0f;
 764              		.loc 1 118 9 view .LVU168
 765 0052 0093     		str	r3, [sp]	@ float	@ tmp135, size.x
 119:src/main.c    **** 
 766              		.loc 1 119 2 is_stmt 1 view .LVU169
 767              	.LVL34:
 121:src/main.c    **** 	{
 768              		.loc 1 121 2 view .LVU170
 769              	.LBB39:
 121:src/main.c    **** 	{
 770              		.loc 1 121 7 view .LVU171
 121:src/main.c    **** 	{
 771              		.loc 1 121 18 view .LVU172
 772              	.L15:
 773              	.LBB36:
 123:src/main.c    **** 		crates[i].friction = 0.2f;
 774              		.loc 1 123 3 discriminator 3 view .LVU173
 775 0054 2046     		mov	r0, r4	@, ivtmp.61
 776 0056 B7EE001A 		vmov.f32	s2, #1.0e+0	@,
 777 005a F3EE040A 		vmov.f32	s1, #2.0e+1	@,
 778 005e 9DED000A 		vldr.32	s0, [sp]	@, size
 779 0062 FFF7FEFF 		bl	initBody		@
 780              	.LVL35:
 124:src/main.c    **** 
 781              		.loc 1 124 3 discriminator 3 view .LVU174
 782              	@ src/main.c:126: 		float x = RandomRange(-100.0f, 100.0f);
 126:src/main.c    **** 		pos.x = 200.0f + x;
 783              		.loc 1 126 13 is_stmt 0 discriminator 3 view .LVU175
 784 0066 DFED1C0A 		vldr.32	s1, .L18+48	@,
 785              	@ src/main.c:124: 		crates[i].friction = 0.2f;
 124:src/main.c    **** 
 786              		.loc 1 124 22 discriminator 3 view .LVU176
 787 006a E662     		str	r6, [r4, #44]	@ float	@ tmp139, MEM[base: _1, offset: 44B]
 126:src/main.c    **** 		pos.x = 200.0f + x;
 788              		.loc 1 126 3 is_stmt 1 discriminator 3 view .LVU177
 789              	@ src/main.c:126: 		float x = RandomRange(-100.0f, 100.0f);
 126:src/main.c    **** 		pos.x = 200.0f + x;
 790              		.loc 1 126 13 is_stmt 0 discriminator 3 view .LVU178
 791 006c B0EE490A 		vmov.f32	s0, s18	@, tmp148
 792 0070 FFF7FEFF 		bl	RandomRange		@
 793              	.LVL36:
 127:src/main.c    **** 		pos.y = 100.0f - 20.05f * i;
 794              		.loc 1 127 3 is_stmt 1 discriminator 3 view .LVU179
 128:src/main.c    **** 		crates[i].position = pos;
 795              		.loc 1 128 3 discriminator 3 view .LVU180
 796              	@ src/main.c:128: 		pos.y = 100.0f - 20.05f * i;
 128:src/main.c    **** 		crates[i].position = pos;
 797              		.loc 1 128 27 is_stmt 0 discriminator 3 view .LVU181
 798 0074 07EE905A 		vmov	s15, r5	@ int	@ i, i
 799              	@ src/main.c:128: 		pos.y = 100.0f - 20.05f * i;
 128:src/main.c    **** 		crates[i].position = pos;
 800              		.loc 1 128 18 discriminator 3 view .LVU182
ARM GAS  /tmp/ccxSzoZs.s 			page 20


 801 0078 B0EE697A 		vmov.f32	s14, s19	@ _5, tmp140
 802              	.LBE36:
 803              	@ src/main.c:121: 	for (int i = 0; i < CRATE_COUNT; ++i)
 121:src/main.c    **** 	{
 804              		.loc 1 121 35 discriminator 3 view .LVU183
 805 007c 0135     		adds	r5, r5, #1	@ i, i,
 806              	.LVL37:
 807              	.LBB37:
 808              	@ src/main.c:128: 		pos.y = 100.0f - 20.05f * i;
 128:src/main.c    **** 		crates[i].position = pos;
 809              		.loc 1 128 27 discriminator 3 view .LVU184
 810 007e F8EEE77A 		vcvt.f32.s32	s15, s15	@ tmp142, i
 811              	.LVL38:
 812              	@ src/main.c:131: 		addBody(&crates[i]);
 131:src/main.c    **** 	}
 813              		.loc 1 131 3 discriminator 3 view .LVU185
 814 0082 2046     		mov	r0, r4	@, ivtmp.61
 815              	@ src/main.c:127: 		pos.x = 200.0f + x;
 127:src/main.c    **** 		pos.y = 100.0f - 20.05f * i;
 816              		.loc 1 127 18 discriminator 3 view .LVU186
 817 0084 30EE080A 		vadd.f32	s0, s0, s16	@ tmp146, tmp149, tmp147
 818              	.LVL39:
 127:src/main.c    **** 		pos.y = 100.0f - 20.05f * i;
 819              		.loc 1 127 18 discriminator 3 view .LVU187
 820 0088 4034     		adds	r4, r4, #64	@ ivtmp.61, ivtmp.61,
 821              	@ src/main.c:128: 		pos.y = 100.0f - 20.05f * i;
 128:src/main.c    **** 		crates[i].position = pos;
 822              		.loc 1 128 18 discriminator 3 view .LVU188
 823 008a A7EEE87A 		vfms.f32	s14, s15, s17	@ _5, tmp142, tmp144
 824              	.LVL40:
 129:src/main.c    **** 
 825              		.loc 1 129 3 is_stmt 1 discriminator 3 view .LVU189
 826              	@ src/main.c:129: 		crates[i].position = pos;
 129:src/main.c    **** 
 827              		.loc 1 129 22 is_stmt 0 discriminator 3 view .LVU190
 828 008e 04ED100A 		vstr.32	s0, [r4, #-64]	@ tmp146, MEM[base: _1, offset: 0B]
 829 0092 04ED0F7A 		vstr.32	s14, [r4, #-60]	@ _5, MEM[base: _1, offset: 4B]
 131:src/main.c    **** 	}
 830              		.loc 1 131 3 is_stmt 1 discriminator 3 view .LVU191
 831 0096 FFF7FEFF 		bl	addBody		@
 832              	.LVL41:
 131:src/main.c    **** 	}
 833              		.loc 1 131 3 is_stmt 0 discriminator 3 view .LVU192
 834              	.LBE37:
 121:src/main.c    **** 	{
 835              		.loc 1 121 35 is_stmt 1 discriminator 3 view .LVU193
 121:src/main.c    **** 	{
 836              		.loc 1 121 18 discriminator 3 view .LVU194
 837              	@ src/main.c:121: 	for (int i = 0; i < CRATE_COUNT; ++i)
 121:src/main.c    **** 	{
 838              		.loc 1 121 2 is_stmt 0 discriminator 3 view .LVU195
 839 009a 3C2D     		cmp	r5, #60	@ i,
 840 009c DAD1     		bne	.L15		@,
 841              	.LBE39:
 842              	@ src/main.c:135: }
 135:src/main.c    **** 
 843              		.loc 1 135 1 view .LVU196
ARM GAS  /tmp/ccxSzoZs.s 			page 21


 844 009e 02B0     		add	sp, sp, #8	@,,
 845              	.LCFI11:
 846              		.cfi_def_cfa_offset 32
 847              		@ sp needed	@
 848 00a0 BDEC048B 		vldm	sp!, {d8-d9}	@,
 849              	.LCFI12:
 850              		.cfi_restore 82
 851              		.cfi_restore 83
 852              		.cfi_restore 80
 853              		.cfi_restore 81
 854              		.cfi_def_cfa_offset 16
 855 00a4 70BD     		pop	{r4, r5, r6, pc}	@
 856              	.LVL42:
 857              	.L19:
 135:src/main.c    **** 
 858              		.loc 1 135 1 view .LVU197
 859 00a6 00BF     		.align	2
 860              	.L18:
 861 00a8 00000000 		.word	iterations
 862 00ac 00000000 		.word	gravity
 863 00b0 FFFF7F7F 		.word	2139095039
 864 00b4 00009643 		.word	1133903872
 865 00b8 00002042 		.word	1109393408
 866 00bc 00000000 		.word	ground
 867 00c0 CDCC4C3E 		.word	1045220557
 868 00c4 00004842 		.word	1112014848
 869 00c8 00004843 		.word	1128792064
 870 00cc 00005C43 		.word	1130102784
 871 00d0 00000000 		.word	crates
 872 00d4 0000A041 		.word	1101004800
 873 00d8 0000C842 		.word	1120403456
 874 00dc 0000C8C2 		.word	3267887104
 875 00e0 6666A041 		.word	1101031014
 876              		.cfi_endproc
 877              	.LFE19:
 878              		.size	Init, .-Init
 879              		.section	.text.eventHandler,"ax",%progbits
 880              		.align	1
 881              		.p2align 4,,15
 882              		.global	eventHandler
 883              		.syntax unified
 884              		.thumb
 885              		.thumb_func
 886              		.fpu fpv5-sp-d16
 887              		.type	eventHandler, %function
 888              	eventHandler:
 889              	.LVL43:
 890              	.LFB14:
  46:src/main.c    **** 	(void)arg;
 891              		.loc 1 46 1 is_stmt 1 view -0
 892              		.cfi_startproc
 893              		@ args = 0, pretend = 0, frame = 0
 894              		@ frame_needed = 0, uses_anonymous_args = 0
  47:src/main.c    **** 
 895              		.loc 1 47 2 view .LVU199
  49:src/main.c    **** 	{
 896              		.loc 1 49 2 view .LVU200
ARM GAS  /tmp/ccxSzoZs.s 			page 22


 897              	@ src/main.c:49: 	if (event == kEventInit)
  49:src/main.c    **** 	{
 898              		.loc 1 49 5 is_stmt 0 view .LVU201
 899 0000 09B1     		cbz	r1, .L26	@ event,
  60:src/main.c    **** }
 900              		.loc 1 60 2 is_stmt 1 view .LVU202
 901              	@ src/main.c:61: }
  61:src/main.c    **** 
 902              		.loc 1 61 1 is_stmt 0 view .LVU203
 903 0002 0020     		movs	r0, #0	@,
 904              	.LVL44:
  61:src/main.c    **** 
 905              		.loc 1 61 1 view .LVU204
 906 0004 7047     		bx	lr	@
 907              	.LVL45:
 908              	.L26:
 909              	@ src/main.c:46: {
  46:src/main.c    **** 	(void)arg;
 910              		.loc 1 46 1 view .LVU205
 911 0006 70B5     		push	{r4, r5, r6, lr}	@
 912              	.LCFI13:
 913              		.cfi_def_cfa_offset 16
 914              		.cfi_offset 4, -16
 915              		.cfi_offset 5, -12
 916              		.cfi_offset 6, -8
 917              		.cfi_offset 14, -4
 918              	@ src/main.c:53: 		gfx = playdate->graphics;
  53:src/main.c    **** 
 919              		.loc 1 53 7 view .LVU206
 920 0008 8268     		ldr	r2, [r0, #8]	@ playdate_9(D)->graphics, playdate_9(D)->graphics
 921              	.LVL46:
  53:src/main.c    **** 
 922              		.loc 1 53 7 view .LVU207
 923 000a 0C46     		mov	r4, r1	@ event, tmp131
  51:src/main.c    **** 		snd = playdate->sound;
 924              		.loc 1 51 3 is_stmt 1 view .LVU208
 925              	@ src/main.c:52: 		snd = playdate->sound;
  52:src/main.c    **** 		gfx = playdate->graphics;
 926              		.loc 1 52 7 is_stmt 0 view .LVU209
 927 000c 4669     		ldr	r6, [r0, #20]	@ playdate_9(D)->sound, playdate_9(D)->sound
 928              	@ src/main.c:51: 		pd = playdate;
  51:src/main.c    **** 		snd = playdate->sound;
 929              		.loc 1 51 6 view .LVU210
 930 000e 084D     		ldr	r5, .L27	@ tmp119,
 931              	@ src/main.c:52: 		snd = playdate->sound;
  52:src/main.c    **** 		gfx = playdate->graphics;
 932              		.loc 1 52 7 view .LVU211
 933 0010 0849     		ldr	r1, .L27+4	@ tmp120,
 934              	.LVL47:
 935              	@ src/main.c:53: 		gfx = playdate->graphics;
  53:src/main.c    **** 
 936              		.loc 1 53 7 view .LVU212
 937 0012 094B     		ldr	r3, .L27+8	@ tmp122,
 938              	@ src/main.c:51: 		pd = playdate;
  51:src/main.c    **** 		snd = playdate->sound;
 939              		.loc 1 51 6 view .LVU213
 940 0014 2860     		str	r0, [r5]	@ playdate, pd
ARM GAS  /tmp/ccxSzoZs.s 			page 23


  52:src/main.c    **** 		gfx = playdate->graphics;
 941              		.loc 1 52 3 is_stmt 1 view .LVU214
 942              	@ src/main.c:53: 		gfx = playdate->graphics;
  53:src/main.c    **** 
 943              		.loc 1 53 7 is_stmt 0 view .LVU215
 944 0016 1A60     		str	r2, [r3]	@ playdate_9(D)->graphics, gfx
 945              	@ src/main.c:52: 		snd = playdate->sound;
  52:src/main.c    **** 		gfx = playdate->graphics;
 946              		.loc 1 52 7 view .LVU216
 947 0018 0E60     		str	r6, [r1]	@ playdate_9(D)->sound, snd
  53:src/main.c    **** 
 948              		.loc 1 53 3 is_stmt 1 view .LVU217
  55:src/main.c    **** 
 949              		.loc 1 55 3 view .LVU218
 950 001a FFF7FEFF 		bl	Init		@
 951              	.LVL48:
  57:src/main.c    **** 	}
 952              		.loc 1 57 3 view .LVU219
 953              	@ src/main.c:57: 		pd->system->setUpdateCallback(update, NULL);
  57:src/main.c    **** 	}
 954              		.loc 1 57 5 is_stmt 0 view .LVU220
 955 001e 2B68     		ldr	r3, [r5]	@ pd, pd
 956              	@ src/main.c:57: 		pd->system->setUpdateCallback(update, NULL);
  57:src/main.c    **** 	}
 957              		.loc 1 57 3 view .LVU221
 958 0020 2146     		mov	r1, r4	@, event
 959 0022 0648     		ldr	r0, .L27+12	@,
 960              	@ src/main.c:57: 		pd->system->setUpdateCallback(update, NULL);
  57:src/main.c    **** 	}
 961              		.loc 1 57 13 view .LVU222
 962 0024 1B68     		ldr	r3, [r3]	@ pd.0_3->system, pd.0_3->system
 963              	@ src/main.c:57: 		pd->system->setUpdateCallback(update, NULL);
  57:src/main.c    **** 	}
 964              		.loc 1 57 3 view .LVU223
 965 0026 1B6A     		ldr	r3, [r3, #32]	@ _4->setUpdateCallback, _4->setUpdateCallback
 966 0028 9847     		blx	r3		@ _4->setUpdateCallback
 967              	.LVL49:
  60:src/main.c    **** }
 968              		.loc 1 60 2 is_stmt 1 view .LVU224
 969              	@ src/main.c:61: }
  61:src/main.c    **** 
 970              		.loc 1 61 1 is_stmt 0 view .LVU225
 971 002a 0020     		movs	r0, #0	@,
 972 002c 70BD     		pop	{r4, r5, r6, pc}	@
 973              	.L28:
 974 002e 00BF     		.align	2
 975              	.L27:
 976 0030 00000000 		.word	.LANCHOR0
 977 0034 00000000 		.word	.LANCHOR1
 978 0038 00000000 		.word	.LANCHOR2
 979 003c 00000000 		.word	update
 980              		.cfi_endproc
 981              	.LFE14:
 982              		.size	eventHandler, .-eventHandler
 983              		.comm	crates,3840,4
 984              		.comm	crate,64,4
 985              		.comm	ground,64,4
ARM GAS  /tmp/ccxSzoZs.s 			page 24


 986              		.global	pan_y
 987              		.global	zoom
 988              		.global	height
 989              		.global	width
 990              		.global	gfx
 991              		.global	snd
 992              		.global	pd
 993              		.section	.bss.gfx,"aw",%nobits
 994              		.align	2
 995              		.set	.LANCHOR2,. + 0
 996              		.type	gfx, %object
 997              		.size	gfx, 4
 998              	gfx:
 999 0000 00000000 		.space	4
 1000              		.section	.bss.pd,"aw",%nobits
 1001              		.align	2
 1002              		.set	.LANCHOR0,. + 0
 1003              		.type	pd, %object
 1004              		.size	pd, 4
 1005              	pd:
 1006 0000 00000000 		.space	4
 1007              		.section	.bss.snd,"aw",%nobits
 1008              		.align	2
 1009              		.set	.LANCHOR1,. + 0
 1010              		.type	snd, %object
 1011              		.size	snd, 4
 1012              	snd:
 1013 0000 00000000 		.space	4
 1014              		.section	.data.height,"aw"
 1015              		.align	2
 1016              		.type	height, %object
 1017              		.size	height, 4
 1018              	height:
 1019 0000 40020000 		.word	576
 1020              		.section	.data.pan_y,"aw"
 1021              		.align	2
 1022              		.type	pan_y, %object
 1023              		.size	pan_y, 4
 1024              	pan_y:
 1025 0000 00000041 		.word	1090519040
 1026              		.section	.data.width,"aw"
 1027              		.align	2
 1028              		.type	width, %object
 1029              		.size	width, 4
 1030              	width:
 1031 0000 00030000 		.word	768
 1032              		.section	.data.zoom,"aw"
 1033              		.align	2
 1034              		.type	zoom, %object
 1035              		.size	zoom, 4
 1036              	zoom:
 1037 0000 00002041 		.word	1092616192
 1038              		.text
 1039              	.Letext0:
 1040              		.file 2 "/usr/include/newlib/machine/_default_types.h"
 1041              		.file 3 "/usr/lib/gcc/arm-none-eabi/9.2.1/include/stddef.h"
 1042              		.file 4 "/usr/include/newlib/sys/_types.h"
ARM GAS  /tmp/ccxSzoZs.s 			page 25


 1043              		.file 5 "/usr/include/newlib/sys/reent.h"
 1044              		.file 6 "/usr/include/newlib/sys/lock.h"
 1045              		.file 7 "/usr/include/newlib/sys/_stdint.h"
 1046              		.file 8 "/usr/include/newlib/stdlib.h"
 1047              		.file 9 "/usr/include/newlib/math.h"
 1048              		.file 10 "/home/george/projects/PlaydateSDK-1.11.1//C_API/pd_api/pd_api_gfx.h"
 1049              		.file 11 "/home/george/projects/PlaydateSDK-1.11.1//C_API/pd_api/pd_api_sys.h"
 1050              		.file 12 "/home/george/projects/PlaydateSDK-1.11.1//C_API/pd_api/pd_api_lua.h"
 1051              		.file 13 "/home/george/projects/PlaydateSDK-1.11.1//C_API/pd_api/pd_api_json.h"
 1052              		.file 14 "/home/george/projects/PlaydateSDK-1.11.1//C_API/pd_api/pd_api_file.h"
 1053              		.file 15 "/home/george/projects/PlaydateSDK-1.11.1//C_API/pd_api/pd_api_sprite.h"
 1054              		.file 16 "/home/george/projects/PlaydateSDK-1.11.1//C_API/pd_api/pd_api_sound.h"
 1055              		.file 17 "/home/george/projects/PlaydateSDK-1.11.1//C_API/pd_api/pd_api_display.h"
 1056              		.file 18 "/home/george/projects/PlaydateSDK-1.11.1//C_API/pd_api/pd_api_scoreboards.h"
 1057              		.file 19 "/home/george/projects/PlaydateSDK-1.11.1//C_API/pd_api.h"
 1058              		.file 20 "src/mathutils.h"
 1059              		.file 21 "src/collide.h"
 1060              		.file 22 "src/b2d_lite.h"