ARM GAS  /tmp/ccJV8Deg.s 			page 1


   1              		.cpu cortex-m7
   2              		.eabi_attribute 27, 1	@ Tag_ABI_HardFP_use
   3              		.eabi_attribute 28, 1	@ Tag_ABI_VFP_args
   4              		.eabi_attribute 20, 1	@ Tag_ABI_FP_denormal
   5              		.eabi_attribute 21, 1	@ Tag_ABI_FP_exceptions
   6              		.eabi_attribute 23, 3	@ Tag_ABI_FP_number_model
   7              		.eabi_attribute 24, 1	@ Tag_ABI_align8_needed
   8              		.eabi_attribute 25, 1	@ Tag_ABI_align8_preserved
   9              		.eabi_attribute 26, 1	@ Tag_ABI_enum_size
  10              		.eabi_attribute 30, 2	@ Tag_ABI_optimization_goals
  11              		.eabi_attribute 34, 1	@ Tag_CPU_unaligned_access
  12              		.eabi_attribute 18, 4	@ Tag_ABI_PCS_wchar_t
  13              		.file	"mathutils.c"
  14              	@ GNU C17 (15:9-2019-q4-0ubuntu1) version 9.2.1 20191025 (release) [ARM/arm-9-branch revision 27759
  15              	@	compiled by GNU C version 9.2.1 20200306, GMP version 6.2.0, MPFR version 4.0.2, MPC version 1.1.
  16              	
  17              	@ GGC heuristics: --param ggc-min-expand=100 --param ggc-min-heapsize=131072
  18              	@ options passed:  -I . -I .
  19              	@ -I /home/george/projects/PlaydateSDK-1.11.1//C_API
  20              	@ -imultilib thumb/v7e-m+fp/hard -MD build/src/mathutils.d
  21              	@ -MF build/dep/mathutils.o.d -MP -MQ build/src/mathutils.o
  22              	@ -D__USES_INITFINI__ -D __FPU_USED=1 -D TARGET_PLAYDATE=1
  23              	@ -D TARGET_EXTENSION=1 src/mathutils.c -mthumb -mcpu=cortex-m7
  24              	@ -mfloat-abi=hard -mfpu=fpv5-sp-d16 -march=armv7e-m+fpv5
  25              	@ -auxbase-strip build/src/mathutils.o -g -gdwarf-2 -O2 -Wall -Wno-unused
  26              	@ -Wstrict-prototypes -Wno-unknown-pragmas -Wdouble-promotion
  27              	@ -falign-functions=16 -fomit-frame-pointer -fverbose-asm
  28              	@ -ffunction-sections -fdata-sections
  29              	@ options enabled:  -faggressive-loop-optimizations -falign-functions
  30              	@ -falign-jumps -falign-labels -falign-loops -fassume-phsa -fauto-inc-dec
  31              	@ -fbranch-count-reg -fcaller-saves -fcombine-stack-adjustments -fcommon
  32              	@ -fcompare-elim -fcprop-registers -fcrossjumping -fcse-follow-jumps
  33              	@ -fdata-sections -fdefer-pop -fdelete-null-pointer-checks -fdevirtualize
  34              	@ -fdevirtualize-speculatively -fdwarf2-cfi-asm -fearly-inlining
  35              	@ -feliminate-unused-debug-types -fexpensive-optimizations
  36              	@ -fforward-propagate -ffp-int-builtin-inexact -ffunction-cse
  37              	@ -ffunction-sections -fgcse -fgcse-lm -fgnu-runtime -fgnu-unique
  38              	@ -fguess-branch-probability -fhoist-adjacent-loads -fident -fif-conversion
  39              	@ -fif-conversion2 -findirect-inlining -finline -finline-atomics
  40              	@ -finline-functions-called-once -finline-small-functions -fipa-bit-cp
  41              	@ -fipa-cp -fipa-icf -fipa-icf-functions -fipa-icf-variables -fipa-profile
  42              	@ -fipa-pure-const -fipa-ra -fipa-reference -fipa-reference-addressable
  43              	@ -fipa-sra -fipa-stack-alignment -fipa-vrp -fira-hoist-pressure
  44              	@ -fira-share-save-slots -fira-share-spill-slots
  45              	@ -fisolate-erroneous-paths-dereference -fivopts -fkeep-static-consts
  46              	@ -fleading-underscore -flifetime-dse -flra-remat -flto-odr-type-merging
  47              	@ -fmath-errno -fmerge-constants -fmerge-debug-strings
  48              	@ -fmove-loop-invariants -fomit-frame-pointer -foptimize-sibling-calls
  49              	@ -foptimize-strlen -fpartial-inlining -fpeephole -fpeephole2 -fplt
  50              	@ -fprefetch-loop-arrays -freg-struct-return -freorder-blocks
  51              	@ -freorder-functions -frerun-cse-after-loop
  52              	@ -fsched-critical-path-heuristic -fsched-dep-count-heuristic
  53              	@ -fsched-group-heuristic -fsched-interblock -fsched-last-insn-heuristic
  54              	@ -fsched-pressure -fsched-rank-heuristic -fsched-spec
  55              	@ -fsched-spec-insn-heuristic -fsched-stalled-insns-dep -fschedule-insns
  56              	@ -fschedule-insns2 -fsection-anchors -fsemantic-interposition
  57              	@ -fshow-column -fshrink-wrap -fshrink-wrap-separate -fsigned-zeros
ARM GAS  /tmp/ccJV8Deg.s 			page 2


  58              	@ -fsplit-ivs-in-unroller -fsplit-wide-types -fssa-backprop -fssa-phiopt
  59              	@ -fstdarg-opt -fstore-merging -fstrict-aliasing
  60              	@ -fstrict-volatile-bitfields -fsync-libcalls -fthread-jumps
  61              	@ -ftoplevel-reorder -ftrapping-math -ftree-bit-ccp -ftree-builtin-call-dce
  62              	@ -ftree-ccp -ftree-ch -ftree-coalesce-vars -ftree-copy-prop -ftree-cselim
  63              	@ -ftree-dce -ftree-dominator-opts -ftree-dse -ftree-forwprop -ftree-fre
  64              	@ -ftree-loop-if-convert -ftree-loop-im -ftree-loop-ivcanon
  65              	@ -ftree-loop-optimize -ftree-parallelize-loops= -ftree-phiprop -ftree-pre
  66              	@ -ftree-pta -ftree-reassoc -ftree-scev-cprop -ftree-sink -ftree-slsr
  67              	@ -ftree-sra -ftree-switch-conversion -ftree-tail-merge -ftree-ter
  68              	@ -ftree-vrp -funit-at-a-time -fvar-tracking -fvar-tracking-assignments
  69              	@ -fverbose-asm -fzero-initialized-in-bss -masm-syntax-unified -mbe32
  70              	@ -mlittle-endian -mpic-data-is-text-relative -msched-prolog -mthumb
  71              	@ -munaligned-access -mvectorize-with-neon-quad
  72              	
  73              		.text
  74              	.Ltext0:
  75              		.cfi_sections	.debug_frame
  76              		.section	.text.Transpose,"ax",%progbits
  77              		.align	1
  78              		.p2align 4,,15
  79              		.global	Transpose
  80              		.arch armv7e-m
  81              		.syntax unified
  82              		.thumb
  83              		.thumb_func
  84              		.fpu fpv5-sp-d16
  85              		.type	Transpose, %function
  86              	Transpose:
  87              	.LFB0:
  88              		.file 1 "src/mathutils.c"
   1:src/mathutils.c **** /*
   2:src/mathutils.c **** * Copyright (c) 2006-2007 Erin Catto http://www.gphysics.com
   3:src/mathutils.c **** *
   4:src/mathutils.c **** * Permission to use, copy, modify, distribute and sell this software
   5:src/mathutils.c **** * and its documentation for any purpose is hereby granted without fee,
   6:src/mathutils.c **** * provided that the above copyright notice appear in all copies.
   7:src/mathutils.c **** * Erin Catto makes no representations about the suitability 
   8:src/mathutils.c **** * of this software for any purpose.  
   9:src/mathutils.c **** * It is provided "as is" without express or implied warranty.
  10:src/mathutils.c **** */
  11:src/mathutils.c **** 
  12:src/mathutils.c **** #include <math.h>
  13:src/mathutils.c **** #include <float.h>
  14:src/mathutils.c **** #include <assert.h>
  15:src/mathutils.c **** #include <stdlib.h>
  16:src/mathutils.c **** 
  17:src/mathutils.c **** #include "mathutils.h"
  18:src/mathutils.c **** 
  19:src/mathutils.c **** struct Mat22 Transpose(struct Mat22 mat)
  20:src/mathutils.c **** {
  89              		.loc 1 20 1 view -0
  90              		.cfi_startproc
  91              		@ args = 0, pretend = 0, frame = 48
  92              		@ frame_needed = 0, uses_anonymous_args = 0
  93              		@ link register save eliminated.
  21:src/mathutils.c ****     struct Vec2 v1;
ARM GAS  /tmp/ccJV8Deg.s 			page 3


  94              		.loc 1 21 5 view .LVU1
  22:src/mathutils.c ****     v1.x=mat.col1.x;
  95              		.loc 1 22 5 view .LVU2
  96              	@ src/mathutils.c:20: {
  20:src/mathutils.c ****     struct Vec2 v1;
  97              		.loc 1 20 1 is_stmt 0 view .LVU3
  98 0000 F0EE417A 		vmov.f32	s15, s2	@ tmp128, mat
  99 0004 8CB0     		sub	sp, sp, #48	@,,
 100              	.LCFI0:
 101              		.cfi_def_cfa_offset 48
 102              	.LVL0:
  23:src/mathutils.c ****     v1.y=mat.col2.x;
 103              		.loc 1 23 5 is_stmt 1 view .LVU4
  24:src/mathutils.c **** 
  25:src/mathutils.c ****     struct Vec2 v2;
 104              		.loc 1 25 5 view .LVU5
  26:src/mathutils.c ****     v2.x=mat.col1.y;
 105              		.loc 1 26 5 view .LVU6
  27:src/mathutils.c ****     v2.y=mat.col2.y;
 106              		.loc 1 27 5 view .LVU7
  28:src/mathutils.c ****     
  29:src/mathutils.c ****     struct Mat22 res;
 107              		.loc 1 29 5 view .LVU8
  30:src/mathutils.c ****     res.col1=v1;
 108              		.loc 1 30 5 view .LVU9
  31:src/mathutils.c ****     res.col2=v2;
 109              		.loc 1 31 5 view .LVU10
  32:src/mathutils.c ****     
  33:src/mathutils.c ****     return res;
 110              		.loc 1 33 5 view .LVU11
 111              	@ src/mathutils.c:36: }
  34:src/mathutils.c ****     
  35:src/mathutils.c **** //    return Mat22(Vec2(col1.x, col2.x), Vec2(col1.y, col2.y));
  36:src/mathutils.c **** }
 112              		.loc 1 36 1 is_stmt 0 view .LVU12
 113 0006 B0EE601A 		vmov.f32	s2, s1	@, tmp127
 114 000a F0EE670A 		vmov.f32	s1, s15	@, tmp128
 115 000e 0CB0     		add	sp, sp, #48	@,,
 116              	.LCFI1:
 117              		.cfi_def_cfa_offset 0
 118              		@ sp needed	@
 119 0010 7047     		bx	lr	@
 120              		.cfi_endproc
 121              	.LFE0:
 122              		.size	Transpose, .-Transpose
 123 0012 00BF     		.section	.text.initMat22,"ax",%progbits
 124              		.align	1
 125              		.p2align 4,,15
 126              		.global	initMat22
 127              		.syntax unified
 128              		.thumb
 129              		.thumb_func
 130              		.fpu fpv5-sp-d16
 131              		.type	initMat22, %function
 132              	initMat22:
 133              	.LVL1:
 134              	.LFB1:
ARM GAS  /tmp/ccJV8Deg.s 			page 4


  37:src/mathutils.c **** 
  38:src/mathutils.c **** void initMat22(struct Mat22 *mat, float angle)
  39:src/mathutils.c **** {
 135              		.loc 1 39 1 is_stmt 1 view -0
 136              		.cfi_startproc
 137              		@ args = 0, pretend = 0, frame = 0
 138              		@ frame_needed = 0, uses_anonymous_args = 0
  40:src/mathutils.c ****     
  41:src/mathutils.c ****     float c = cosf(angle), s = sinf(angle);
 139              		.loc 1 41 5 view .LVU14
 140              	@ src/mathutils.c:39: {
  39:src/mathutils.c ****     
 141              		.loc 1 39 1 is_stmt 0 view .LVU15
 142 0000 10B5     		push	{r4, lr}	@
 143              	.LCFI2:
 144              		.cfi_def_cfa_offset 8
 145              		.cfi_offset 4, -8
 146              		.cfi_offset 14, -4
 147 0002 2DED028B 		vpush.64	{d8}	@
 148              	.LCFI3:
 149              		.cfi_def_cfa_offset 16
 150              		.cfi_offset 80, -16
 151              		.cfi_offset 81, -12
 152              	@ src/mathutils.c:39: {
  39:src/mathutils.c ****     
 153              		.loc 1 39 1 view .LVU16
 154 0006 F0EE408A 		vmov.f32	s17, s0	@ angle, tmp117
 155 000a 0446     		mov	r4, r0	@ mat, tmp116
 156              	@ src/mathutils.c:41:     float c = cosf(angle), s = sinf(angle);
 157              		.loc 1 41 15 view .LVU17
 158 000c FFF7FEFF 		bl	cosf		@
 159              	.LVL2:
 160              		.loc 1 41 15 view .LVU18
 161 0010 B0EE408A 		vmov.f32	s16, s0	@ tmp118,
 162              	@ src/mathutils.c:41:     float c = cosf(angle), s = sinf(angle);
 163              		.loc 1 41 32 view .LVU19
 164 0014 B0EE680A 		vmov.f32	s0, s17	@, angle
 165              	.LVL3:
 166              		.loc 1 41 32 view .LVU20
 167 0018 FFF7FEFF 		bl	sinf		@
 168              	.LVL4:
 169              	@ src/mathutils.c:42:     mat->col1.x = c; mat->col2.x = -s;
  42:src/mathutils.c ****     mat->col1.x = c; mat->col2.x = -s;
 170              		.loc 1 42 36 view .LVU21
 171 001c F1EE407A 		vneg.f32	s15, s0	@ tmp115, s
 172              	@ src/mathutils.c:42:     mat->col1.x = c; mat->col2.x = -s;
 173              		.loc 1 42 17 view .LVU22
 174 0020 84ED008A 		vstr.32	s16, [r4]	@ c, mat_6(D)->col1.x
 175              	.LVL5:
 176              		.loc 1 42 5 is_stmt 1 view .LVU23
 177              		.loc 1 42 22 view .LVU24
 178              	@ src/mathutils.c:43:     mat->col1.y = s; mat->col2.y = c;
  43:src/mathutils.c ****     mat->col1.y = s; mat->col2.y = c;
 179              		.loc 1 43 34 is_stmt 0 view .LVU25
 180 0024 84ED038A 		vstr.32	s16, [r4, #12]	@ c, mat_6(D)->col2.y
 181              	@ src/mathutils.c:43:     mat->col1.y = s; mat->col2.y = c;
 182              		.loc 1 43 17 view .LVU26
ARM GAS  /tmp/ccJV8Deg.s 			page 5


 183 0028 84ED010A 		vstr.32	s0, [r4, #4]	@ s, mat_6(D)->col1.y
 184              	@ src/mathutils.c:42:     mat->col1.x = c; mat->col2.x = -s;
  42:src/mathutils.c ****     mat->col1.x = c; mat->col2.x = -s;
 185              		.loc 1 42 34 view .LVU27
 186 002c C4ED027A 		vstr.32	s15, [r4, #8]	@ tmp115, mat_6(D)->col2.x
 187              		.loc 1 43 5 is_stmt 1 view .LVU28
 188              		.loc 1 43 22 view .LVU29
 189              	@ src/mathutils.c:44: }
  44:src/mathutils.c **** }
 190              		.loc 1 44 1 is_stmt 0 view .LVU30
 191 0030 BDEC028B 		vldm	sp!, {d8}	@
 192              	.LCFI4:
 193              		.cfi_restore 80
 194              		.cfi_restore 81
 195              		.cfi_def_cfa_offset 8
 196              	.LVL6:
 197              		.loc 1 44 1 view .LVU31
 198 0034 10BD     		pop	{r4, pc}	@
 199              		.loc 1 44 1 view .LVU32
 200              		.cfi_endproc
 201              	.LFE1:
 202              		.size	initMat22, .-initMat22
 203 0036 00BF     		.section	.text.matmul,"ax",%progbits
 204              		.align	1
 205              		.p2align 4,,15
 206              		.global	matmul
 207              		.syntax unified
 208              		.thumb
 209              		.thumb_func
 210              		.fpu fpv5-sp-d16
 211              		.type	matmul, %function
 212              	matmul:
 213              	.LFB2:
  45:src/mathutils.c **** 
  46:src/mathutils.c **** struct Vec2 matmul(struct Mat22 A, struct Vec2 v)
  47:src/mathutils.c **** {
 214              		.loc 1 47 1 is_stmt 1 view -0
 215              		.cfi_startproc
 216              		@ args = 0, pretend = 0, frame = 40
 217              		@ frame_needed = 0, uses_anonymous_args = 0
 218              		@ link register save eliminated.
 219              	.LVL7:
  48:src/mathutils.c **** 	struct Vec2 res;
 220              		.loc 1 48 2 view .LVU34
  49:src/mathutils.c ****     res.x = A.col1.x * v.x + A.col2.x * v.y;
 221              		.loc 1 49 5 view .LVU35
 222              	@ src/mathutils.c:49:     res.x = A.col1.x * v.x + A.col2.x * v.y;
 223              		.loc 1 49 39 is_stmt 0 view .LVU36
 224 0000 22EE811A 		vmul.f32	s2, s5, s2	@ tmp128, v, tmp138
 225              	.LVL8:
  50:src/mathutils.c ****     res.y = A.col1.y * v.x + A.col2.y * v.y;
 226              		.loc 1 50 5 is_stmt 1 view .LVU37
 227              	@ src/mathutils.c:47: {
  47:src/mathutils.c **** 	struct Vec2 res;
 228              		.loc 1 47 1 is_stmt 0 view .LVU38
 229 0004 8AB0     		sub	sp, sp, #40	@,,
 230              	.LCFI5:
ARM GAS  /tmp/ccJV8Deg.s 			page 6


 231              		.cfi_def_cfa_offset 40
 232              	@ src/mathutils.c:50:     res.y = A.col1.y * v.x + A.col2.y * v.y;
 233              		.loc 1 50 39 view .LVU39
 234 0006 62EEA11A 		vmul.f32	s3, s5, s3	@ tmp131, v, tmp139
 235              	.LVL9:
  51:src/mathutils.c ****     
  52:src/mathutils.c ****     return res;
 236              		.loc 1 52 5 is_stmt 1 view .LVU40
 237              	@ src/mathutils.c:53: }
  53:src/mathutils.c **** }
 238              		.loc 1 53 1 is_stmt 0 view .LVU41
 239 000a A0EE021A 		vfma.f32	s2, s0, s4	@ tmp128, tmp136, v
 240 000e E0EE821A 		vfma.f32	s3, s1, s4	@ tmp131, tmp137, v
 241 0012 B0EE410A 		vmov.f32	s0, s2	@, tmp128
 242 0016 F0EE610A 		vmov.f32	s1, s3	@, tmp131
 243 001a 0AB0     		add	sp, sp, #40	@,,
 244              	.LCFI6:
 245              		.cfi_def_cfa_offset 0
 246              		@ sp needed	@
 247 001c 7047     		bx	lr	@
 248              		.cfi_endproc
 249              	.LFE2:
 250              		.size	matmul, .-matmul
 251 001e 00BF     		.section	.text.matmulMM,"ax",%progbits
 252              		.align	1
 253              		.p2align 4,,15
 254              		.global	matmulMM
 255              		.syntax unified
 256              		.thumb
 257              		.thumb_func
 258              		.fpu fpv5-sp-d16
 259              		.type	matmulMM, %function
 260              	matmulMM:
 261              	.LFB3:
  54:src/mathutils.c **** 
  55:src/mathutils.c **** struct Mat22 matmulMM(struct Mat22 A, struct Mat22 B)
  56:src/mathutils.c **** {
 262              		.loc 1 56 1 is_stmt 1 view -0
 263              		.cfi_startproc
 264              		@ args = 0, pretend = 0, frame = 64
 265              		@ frame_needed = 0, uses_anonymous_args = 0
 266              		@ link register save eliminated.
  57:src/mathutils.c ****     struct Mat22 res;
 267              		.loc 1 57 5 view .LVU43
  58:src/mathutils.c ****     res.col1 = matmul(A, B.col1);
 268              		.loc 1 58 5 view .LVU44
 269              	.LBB14:
 270              	.LBB15:
 271              	@ src/mathutils.c:49:     res.x = A.col1.x * v.x + A.col2.x * v.y;
  49:src/mathutils.c ****     res.y = A.col1.y * v.x + A.col2.y * v.y;
 272              		.loc 1 49 39 is_stmt 0 view .LVU45
 273 0000 61EE226A 		vmul.f32	s13, s2, s5	@ tmp138, A, B
 274              	.LBE15:
 275              	.LBE14:
 276              	@ src/mathutils.c:56: {
  56:src/mathutils.c ****     struct Mat22 res;
 277              		.loc 1 56 1 view .LVU46
ARM GAS  /tmp/ccJV8Deg.s 			page 7


 278 0004 90B0     		sub	sp, sp, #64	@,,
 279              	.LCFI7:
 280              		.cfi_def_cfa_offset 64
 281              	.LBB18:
 282              	.LBB16:
 283              	@ src/mathutils.c:50:     res.y = A.col1.y * v.x + A.col2.y * v.y;
  50:src/mathutils.c ****     
 284              		.loc 1 50 39 view .LVU47
 285 0006 61EEA22A 		vmul.f32	s5, s3, s5	@ tmp139, A, B
 286              	.LBE16:
 287              	.LBE18:
 288              	@ src/mathutils.c:56: {
  56:src/mathutils.c ****     struct Mat22 res;
 289              		.loc 1 56 1 view .LVU48
 290 000a B0EE407A 		vmov.f32	s14, s0	@ A, tmp146
 291              	.LVL10:
  56:src/mathutils.c ****     struct Mat22 res;
 292              		.loc 1 56 1 view .LVU49
 293 000e F0EE607A 		vmov.f32	s15, s1	@ A, tmp147
 294              	.LVL11:
 295              	.LBB19:
 296              	.LBI14:
  46:src/mathutils.c **** {
 297              		.loc 1 46 13 is_stmt 1 view .LVU50
 298              	.LBB17:
  48:src/mathutils.c ****     res.x = A.col1.x * v.x + A.col2.x * v.y;
 299              		.loc 1 48 2 view .LVU51
  49:src/mathutils.c ****     res.y = A.col1.y * v.x + A.col2.y * v.y;
 300              		.loc 1 49 5 view .LVU52
  50:src/mathutils.c ****     
 301              		.loc 1 50 5 view .LVU53
  52:src/mathutils.c **** }
 302              		.loc 1 52 5 view .LVU54
  52:src/mathutils.c **** }
 303              		.loc 1 52 5 is_stmt 0 view .LVU55
 304              	.LBE17:
 305              	.LBE19:
  59:src/mathutils.c ****     res.col2 = matmul(A, B.col2);
 306              		.loc 1 59 5 is_stmt 1 view .LVU56
 307              	@ src/mathutils.c:62: }
  60:src/mathutils.c ****     
  61:src/mathutils.c **** 	return res;
  62:src/mathutils.c **** }
 308              		.loc 1 62 1 is_stmt 0 view .LVU57
 309 0012 E0EE026A 		vfma.f32	s13, s0, s4	@ tmp138, A, B
 310              	.LVL12:
 311              		.loc 1 62 1 view .LVU58
 312 0016 E0EE822A 		vfma.f32	s5, s1, s4	@ tmp139, A, B
 313              	.LVL13:
 314              	.LBB20:
 315              	.LBB21:
 316              	@ src/mathutils.c:49:     res.x = A.col1.x * v.x + A.col2.x * v.y;
  49:src/mathutils.c ****     res.y = A.col1.y * v.x + A.col2.y * v.y;
 317              		.loc 1 49 39 view .LVU59
 318 001a 21EE231A 		vmul.f32	s2, s2, s7	@ tmp140, A, B
 319              	.LVL14:
 320              	@ src/mathutils.c:50:     res.y = A.col1.y * v.x + A.col2.y * v.y;
ARM GAS  /tmp/ccJV8Deg.s 			page 8


  50:src/mathutils.c ****     
 321              		.loc 1 50 39 view .LVU60
 322 001e 61EEA31A 		vmul.f32	s3, s3, s7	@ tmp141, A, B
 323              	.LVL15:
  50:src/mathutils.c ****     
 324              		.loc 1 50 39 view .LVU61
 325              	.LBE21:
 326              	.LBI20:
  46:src/mathutils.c **** {
 327              		.loc 1 46 13 is_stmt 1 view .LVU62
 328              	.LBB22:
  48:src/mathutils.c ****     res.x = A.col1.x * v.x + A.col2.x * v.y;
 329              		.loc 1 48 2 view .LVU63
  49:src/mathutils.c ****     res.y = A.col1.y * v.x + A.col2.y * v.y;
 330              		.loc 1 49 5 view .LVU64
  50:src/mathutils.c ****     
 331              		.loc 1 50 5 view .LVU65
  52:src/mathutils.c **** }
 332              		.loc 1 52 5 view .LVU66
  52:src/mathutils.c **** }
 333              		.loc 1 52 5 is_stmt 0 view .LVU67
 334              	.LBE22:
 335              	.LBE20:
  61:src/mathutils.c **** }
 336              		.loc 1 61 2 is_stmt 1 view .LVU68
 337              	@ src/mathutils.c:62: }
 338              		.loc 1 62 1 is_stmt 0 view .LVU69
 339 0022 A7EE031A 		vfma.f32	s2, s14, s6	@, A, B
 340 0026 E7EE831A 		vfma.f32	s3, s15, s6	@, A, B
 341 002a B0EE660A 		vmov.f32	s0, s13	@, tmp138
 342 002e F0EE620A 		vmov.f32	s1, s5	@, tmp139
 343 0032 10B0     		add	sp, sp, #64	@,,
 344              	.LCFI8:
 345              		.cfi_def_cfa_offset 0
 346              		@ sp needed	@
 347 0034 7047     		bx	lr	@
 348              		.cfi_endproc
 349              	.LFE3:
 350              		.size	matmulMM, .-matmulMM
 351 0036 00BF     		.section	.text.addtoVec2,"ax",%progbits
 352              		.align	1
 353              		.p2align 4,,15
 354              		.global	addtoVec2
 355              		.syntax unified
 356              		.thumb
 357              		.thumb_func
 358              		.fpu fpv5-sp-d16
 359              		.type	addtoVec2, %function
 360              	addtoVec2:
 361              	.LVL16:
 362              	.LFB4:
  63:src/mathutils.c **** 
  64:src/mathutils.c **** void addtoVec2(struct Vec2 *vec, struct Vec2 other)
  65:src/mathutils.c **** {
 363              		.loc 1 65 1 is_stmt 1 view -0
 364              		.cfi_startproc
 365              		@ args = 0, pretend = 0, frame = 8
ARM GAS  /tmp/ccJV8Deg.s 			page 9


 366              		@ frame_needed = 0, uses_anonymous_args = 0
 367              		@ link register save eliminated.
  66:src/mathutils.c ****     vec->x += other.x;
 368              		.loc 1 66 5 view .LVU71
 369              	@ src/mathutils.c:66:     vec->x += other.x;
 370              		.loc 1 66 12 is_stmt 0 view .LVU72
 371 0000 90ED007A 		vldr.32	s14, [r0]	@ vec_8(D)->x, vec_8(D)->x
 372              	@ src/mathutils.c:65: {
  65:src/mathutils.c ****     vec->x += other.x;
 373              		.loc 1 65 1 view .LVU73
 374 0004 82B0     		sub	sp, sp, #8	@,,
 375              	.LCFI9:
 376              		.cfi_def_cfa_offset 8
 377              	@ src/mathutils.c:67:     vec->y += other.y;        
  67:src/mathutils.c ****     vec->y += other.y;        
 378              		.loc 1 67 12 view .LVU74
 379 0006 D0ED017A 		vldr.32	s15, [r0, #4]	@ vec_8(D)->y, vec_8(D)->y
 380              	@ src/mathutils.c:66:     vec->x += other.x;
  66:src/mathutils.c ****     vec->x += other.x;
 381              		.loc 1 66 12 view .LVU75
 382 000a 37EE000A 		vadd.f32	s0, s14, s0	@ tmp119, vec_8(D)->x, tmp126
 383              	@ src/mathutils.c:67:     vec->y += other.y;        
 384              		.loc 1 67 12 view .LVU76
 385 000e 77EEA00A 		vadd.f32	s1, s15, s1	@ tmp122, vec_8(D)->y, tmp127
 386              	@ src/mathutils.c:66:     vec->x += other.x;
  66:src/mathutils.c ****     vec->x += other.x;
 387              		.loc 1 66 12 view .LVU77
 388 0012 80ED000A 		vstr.32	s0, [r0]	@ tmp119, vec_8(D)->x
 389              		.loc 1 67 5 is_stmt 1 view .LVU78
 390              	@ src/mathutils.c:67:     vec->y += other.y;        
 391              		.loc 1 67 12 is_stmt 0 view .LVU79
 392 0016 C0ED010A 		vstr.32	s1, [r0, #4]	@ tmp122, vec_8(D)->y
 393              	@ src/mathutils.c:68: }
  68:src/mathutils.c **** }
 394              		.loc 1 68 1 view .LVU80
 395 001a 02B0     		add	sp, sp, #8	@,,
 396              	.LCFI10:
 397              		.cfi_def_cfa_offset 0
 398              		@ sp needed	@
 399 001c 7047     		bx	lr	@
 400              		.cfi_endproc
 401              	.LFE4:
 402              		.size	addtoVec2, .-addtoVec2
 403 001e 00BF     		.section	.text.subfromVec2,"ax",%progbits
 404              		.align	1
 405              		.p2align 4,,15
 406              		.global	subfromVec2
 407              		.syntax unified
 408              		.thumb
 409              		.thumb_func
 410              		.fpu fpv5-sp-d16
 411              		.type	subfromVec2, %function
 412              	subfromVec2:
 413              	.LVL17:
 414              	.LFB5:
  69:src/mathutils.c **** 
  70:src/mathutils.c **** void subfromVec2(struct Vec2 *vec, struct Vec2 other)
ARM GAS  /tmp/ccJV8Deg.s 			page 10


  71:src/mathutils.c **** {
 415              		.loc 1 71 1 is_stmt 1 view -0
 416              		.cfi_startproc
 417              		@ args = 0, pretend = 0, frame = 8
 418              		@ frame_needed = 0, uses_anonymous_args = 0
 419              		@ link register save eliminated.
  72:src/mathutils.c ****     vec->x -= other.x;
 420              		.loc 1 72 5 view .LVU82
 421              	@ src/mathutils.c:72:     vec->x -= other.x;
 422              		.loc 1 72 12 is_stmt 0 view .LVU83
 423 0000 90ED007A 		vldr.32	s14, [r0]	@ vec_8(D)->x, vec_8(D)->x
 424              	@ src/mathutils.c:71: {
  71:src/mathutils.c ****     vec->x -= other.x;
 425              		.loc 1 71 1 view .LVU84
 426 0004 82B0     		sub	sp, sp, #8	@,,
 427              	.LCFI11:
 428              		.cfi_def_cfa_offset 8
 429              	@ src/mathutils.c:73:     vec->y -= other.y;        
  73:src/mathutils.c ****     vec->y -= other.y;        
 430              		.loc 1 73 12 view .LVU85
 431 0006 D0ED017A 		vldr.32	s15, [r0, #4]	@ vec_8(D)->y, vec_8(D)->y
 432              	@ src/mathutils.c:72:     vec->x -= other.x;
  72:src/mathutils.c ****     vec->x -= other.x;
 433              		.loc 1 72 12 view .LVU86
 434 000a 37EE400A 		vsub.f32	s0, s14, s0	@ tmp119, vec_8(D)->x, tmp126
 435              	@ src/mathutils.c:73:     vec->y -= other.y;        
 436              		.loc 1 73 12 view .LVU87
 437 000e 77EEE00A 		vsub.f32	s1, s15, s1	@ tmp122, vec_8(D)->y, tmp127
 438              	@ src/mathutils.c:72:     vec->x -= other.x;
  72:src/mathutils.c ****     vec->x -= other.x;
 439              		.loc 1 72 12 view .LVU88
 440 0012 80ED000A 		vstr.32	s0, [r0]	@ tmp119, vec_8(D)->x
 441              		.loc 1 73 5 is_stmt 1 view .LVU89
 442              	@ src/mathutils.c:73:     vec->y -= other.y;        
 443              		.loc 1 73 12 is_stmt 0 view .LVU90
 444 0016 C0ED010A 		vstr.32	s1, [r0, #4]	@ tmp122, vec_8(D)->y
 445              	@ src/mathutils.c:74: }
  74:src/mathutils.c **** }
 446              		.loc 1 74 1 view .LVU91
 447 001a 02B0     		add	sp, sp, #8	@,,
 448              	.LCFI12:
 449              		.cfi_def_cfa_offset 0
 450              		@ sp needed	@
 451 001c 7047     		bx	lr	@
 452              		.cfi_endproc
 453              	.LFE5:
 454              		.size	subfromVec2, .-subfromVec2
 455 001e 00BF     		.section	.text.scaleVec2,"ax",%progbits
 456              		.align	1
 457              		.p2align 4,,15
 458              		.global	scaleVec2
 459              		.syntax unified
 460              		.thumb
 461              		.thumb_func
 462              		.fpu fpv5-sp-d16
 463              		.type	scaleVec2, %function
 464              	scaleVec2:
ARM GAS  /tmp/ccJV8Deg.s 			page 11


 465              	.LVL18:
 466              	.LFB6:
  75:src/mathutils.c **** 
  76:src/mathutils.c **** void scaleVec2(struct Vec2 *vec, float a)
  77:src/mathutils.c **** {
 467              		.loc 1 77 1 is_stmt 1 view -0
 468              		.cfi_startproc
 469              		@ args = 0, pretend = 0, frame = 0
 470              		@ frame_needed = 0, uses_anonymous_args = 0
 471              		@ link register save eliminated.
  78:src/mathutils.c ****     vec->x *= a;
 472              		.loc 1 78 5 view .LVU93
 473              	@ src/mathutils.c:78:     vec->x *= a;
 474              		.loc 1 78 12 is_stmt 0 view .LVU94
 475 0000 90ED007A 		vldr.32	s14, [r0]	@ vec_6(D)->x, vec_6(D)->x
 476              	@ src/mathutils.c:79:     vec->y *= a;        
  79:src/mathutils.c ****     vec->y *= a;        
 477              		.loc 1 79 12 view .LVU95
 478 0004 D0ED017A 		vldr.32	s15, [r0, #4]	@ vec_6(D)->y, vec_6(D)->y
 479              	@ src/mathutils.c:78:     vec->x *= a;
  78:src/mathutils.c ****     vec->x *= a;
 480              		.loc 1 78 12 view .LVU96
 481 0008 27EE007A 		vmul.f32	s14, s14, s0	@ tmp116, vec_6(D)->x, a
 482              	@ src/mathutils.c:79:     vec->y *= a;        
 483              		.loc 1 79 12 view .LVU97
 484 000c 27EE800A 		vmul.f32	s0, s15, s0	@ tmp118, vec_6(D)->y, a
 485              	.LVL19:
 486              	@ src/mathutils.c:78:     vec->x *= a;
  78:src/mathutils.c ****     vec->x *= a;
 487              		.loc 1 78 12 view .LVU98
 488 0010 80ED007A 		vstr.32	s14, [r0]	@ tmp116, vec_6(D)->x
 489              		.loc 1 79 5 is_stmt 1 view .LVU99
 490              	@ src/mathutils.c:79:     vec->y *= a;        
 491              		.loc 1 79 12 is_stmt 0 view .LVU100
 492 0014 80ED010A 		vstr.32	s0, [r0, #4]	@ tmp118, vec_6(D)->y
 493              	@ src/mathutils.c:80: }
  80:src/mathutils.c **** }
 494              		.loc 1 80 1 view .LVU101
 495 0018 7047     		bx	lr	@
 496              		.cfi_endproc
 497              	.LFE6:
 498              		.size	scaleVec2, .-scaleVec2
 499 001a 00BF     		.section	.text.scaledVec2,"ax",%progbits
 500              		.align	1
 501              		.p2align 4,,15
 502              		.global	scaledVec2
 503              		.syntax unified
 504              		.thumb
 505              		.thumb_func
 506              		.fpu fpv5-sp-d16
 507              		.type	scaledVec2, %function
 508              	scaledVec2:
 509              	.LVL20:
 510              	.LFB7:
  81:src/mathutils.c **** 
  82:src/mathutils.c **** struct Vec2 scaledVec2(float s, struct Vec2 v)
  83:src/mathutils.c **** {
ARM GAS  /tmp/ccJV8Deg.s 			page 12


 511              		.loc 1 83 1 is_stmt 1 view -0
 512              		.cfi_startproc
 513              		@ args = 0, pretend = 0, frame = 24
 514              		@ frame_needed = 0, uses_anonymous_args = 0
 515              		@ link register save eliminated.
  84:src/mathutils.c ****     struct Vec2 res;
 516              		.loc 1 84 5 view .LVU103
  85:src/mathutils.c ****     res.x = s * v.x;
 517              		.loc 1 85 5 view .LVU104
 518              	@ src/mathutils.c:83: {
  83:src/mathutils.c ****     struct Vec2 res;
 519              		.loc 1 83 1 is_stmt 0 view .LVU105
 520 0000 F0EE407A 		vmov.f32	s15, s0	@ s, tmp124
 521 0004 86B0     		sub	sp, sp, #24	@,,
 522              	.LCFI13:
 523              		.cfi_def_cfa_offset 24
 524              	.LVL21:
  86:src/mathutils.c ****     res.y = s * v.y;
 525              		.loc 1 86 5 is_stmt 1 view .LVU106
  87:src/mathutils.c ****     
  88:src/mathutils.c **** 	return res;
 526              		.loc 1 88 2 view .LVU107
 527              	@ src/mathutils.c:89: }
  89:src/mathutils.c **** }
 528              		.loc 1 89 1 is_stmt 0 view .LVU108
 529 0006 20EE800A 		vmul.f32	s0, s1, s0	@, tmp125, s
 530              	.LVL22:
 531              		.loc 1 89 1 view .LVU109
 532 000a 67EE810A 		vmul.f32	s1, s15, s2	@, s, tmp126
 533 000e 06B0     		add	sp, sp, #24	@,,
 534              	.LCFI14:
 535              		.cfi_def_cfa_offset 0
 536              		@ sp needed	@
 537 0010 7047     		bx	lr	@
 538              		.cfi_endproc
 539              	.LFE7:
 540              		.size	scaledVec2, .-scaledVec2
 541 0012 00BF     		.section	.text.minusVec2,"ax",%progbits
 542              		.align	1
 543              		.p2align 4,,15
 544              		.global	minusVec2
 545              		.syntax unified
 546              		.thumb
 547              		.thumb_func
 548              		.fpu fpv5-sp-d16
 549              		.type	minusVec2, %function
 550              	minusVec2:
 551              	.LFB8:
  90:src/mathutils.c **** 
  91:src/mathutils.c **** struct Vec2 minusVec2(struct Vec2 v)
  92:src/mathutils.c **** {
 552              		.loc 1 92 1 is_stmt 1 view -0
 553              		.cfi_startproc
 554              		@ args = 0, pretend = 0, frame = 24
 555              		@ frame_needed = 0, uses_anonymous_args = 0
 556              		@ link register save eliminated.
  93:src/mathutils.c ****     struct Vec2 res;
ARM GAS  /tmp/ccJV8Deg.s 			page 13


 557              		.loc 1 93 5 view .LVU111
  94:src/mathutils.c ****     res.x = -v.x;
 558              		.loc 1 94 5 view .LVU112
 559              	@ src/mathutils.c:98: }
  95:src/mathutils.c ****     res.y = -v.y;
  96:src/mathutils.c ****     
  97:src/mathutils.c **** 	return res;
  98:src/mathutils.c **** }
 560              		.loc 1 98 1 is_stmt 0 view .LVU113
 561 0000 B1EE400A 		vneg.f32	s0, s0	@, tmp123
 562              	@ src/mathutils.c:92: {
  92:src/mathutils.c ****     struct Vec2 res;
 563              		.loc 1 92 1 view .LVU114
 564 0004 86B0     		sub	sp, sp, #24	@,,
 565              	.LCFI15:
 566              		.cfi_def_cfa_offset 24
 567              	.LVL23:
  95:src/mathutils.c ****     res.y = -v.y;
 568              		.loc 1 95 5 is_stmt 1 view .LVU115
  97:src/mathutils.c **** }
 569              		.loc 1 97 2 view .LVU116
 570              	@ src/mathutils.c:98: }
 571              		.loc 1 98 1 is_stmt 0 view .LVU117
 572 0006 F1EE600A 		vneg.f32	s1, s1	@, tmp124
 573 000a 06B0     		add	sp, sp, #24	@,,
 574              	.LCFI16:
 575              		.cfi_def_cfa_offset 0
 576              		@ sp needed	@
 577 000c 7047     		bx	lr	@
 578              		.cfi_endproc
 579              	.LFE8:
 580              		.size	minusVec2, .-minusVec2
 581 000e 00BF     		.section	.text.sumVec2,"ax",%progbits
 582              		.align	1
 583              		.p2align 4,,15
 584              		.global	sumVec2
 585              		.syntax unified
 586              		.thumb
 587              		.thumb_func
 588              		.fpu fpv5-sp-d16
 589              		.type	sumVec2, %function
 590              	sumVec2:
 591              	.LFB9:
  99:src/mathutils.c **** 
 100:src/mathutils.c **** struct Vec2 sumVec2(struct Vec2 a, struct Vec2 b)
 101:src/mathutils.c **** {
 592              		.loc 1 101 1 is_stmt 1 view -0
 593              		.cfi_startproc
 594              		@ args = 0, pretend = 0, frame = 32
 595              		@ frame_needed = 0, uses_anonymous_args = 0
 596              		@ link register save eliminated.
 102:src/mathutils.c ****     struct Vec2 res;
 597              		.loc 1 102 5 view .LVU119
 103:src/mathutils.c ****     res.x = a.x + b.x;
 598              		.loc 1 103 5 view .LVU120
 599              	@ src/mathutils.c:107: }
 104:src/mathutils.c ****     res.y = a.y + b.y;
ARM GAS  /tmp/ccJV8Deg.s 			page 14


 105:src/mathutils.c ****     
 106:src/mathutils.c **** 	return res;
 107:src/mathutils.c **** }
 600              		.loc 1 107 1 is_stmt 0 view .LVU121
 601 0000 30EE010A 		vadd.f32	s0, s0, s2	@, tmp129, tmp131
 602              	@ src/mathutils.c:101: {
 101:src/mathutils.c ****     struct Vec2 res;
 603              		.loc 1 101 1 view .LVU122
 604 0004 88B0     		sub	sp, sp, #32	@,,
 605              	.LCFI17:
 606              		.cfi_def_cfa_offset 32
 607              	.LVL24:
 104:src/mathutils.c ****     res.y = a.y + b.y;
 608              		.loc 1 104 5 is_stmt 1 view .LVU123
 106:src/mathutils.c **** }
 609              		.loc 1 106 2 view .LVU124
 610              	@ src/mathutils.c:107: }
 611              		.loc 1 107 1 is_stmt 0 view .LVU125
 612 0006 70EEA10A 		vadd.f32	s1, s1, s3	@, tmp130, tmp132
 613 000a 08B0     		add	sp, sp, #32	@,,
 614              	.LCFI18:
 615              		.cfi_def_cfa_offset 0
 616              		@ sp needed	@
 617 000c 7047     		bx	lr	@
 618              		.cfi_endproc
 619              	.LFE9:
 620              		.size	sumVec2, .-sumVec2
 621 000e 00BF     		.section	.text.diffVec2,"ax",%progbits
 622              		.align	1
 623              		.p2align 4,,15
 624              		.global	diffVec2
 625              		.syntax unified
 626              		.thumb
 627              		.thumb_func
 628              		.fpu fpv5-sp-d16
 629              		.type	diffVec2, %function
 630              	diffVec2:
 631              	.LFB10:
 108:src/mathutils.c **** 
 109:src/mathutils.c **** struct Vec2 diffVec2(struct Vec2 a, struct Vec2 b)
 110:src/mathutils.c **** {
 632              		.loc 1 110 1 is_stmt 1 view -0
 633              		.cfi_startproc
 634              		@ args = 0, pretend = 0, frame = 32
 635              		@ frame_needed = 0, uses_anonymous_args = 0
 636              		@ link register save eliminated.
 111:src/mathutils.c ****     struct Vec2 res;
 637              		.loc 1 111 5 view .LVU127
 112:src/mathutils.c ****     res.x = a.x - b.x;
 638              		.loc 1 112 5 view .LVU128
 639              	@ src/mathutils.c:116: }
 113:src/mathutils.c ****     res.y = a.y - b.y;
 114:src/mathutils.c ****     
 115:src/mathutils.c **** 	return res;
 116:src/mathutils.c **** }
 640              		.loc 1 116 1 is_stmt 0 view .LVU129
 641 0000 30EE410A 		vsub.f32	s0, s0, s2	@, tmp129, tmp131
ARM GAS  /tmp/ccJV8Deg.s 			page 15


 642              	@ src/mathutils.c:110: {
 110:src/mathutils.c ****     struct Vec2 res;
 643              		.loc 1 110 1 view .LVU130
 644 0004 88B0     		sub	sp, sp, #32	@,,
 645              	.LCFI19:
 646              		.cfi_def_cfa_offset 32
 647              	.LVL25:
 113:src/mathutils.c ****     res.y = a.y - b.y;
 648              		.loc 1 113 5 is_stmt 1 view .LVU131
 115:src/mathutils.c **** }
 649              		.loc 1 115 2 view .LVU132
 650              	@ src/mathutils.c:116: }
 651              		.loc 1 116 1 is_stmt 0 view .LVU133
 652 0006 70EEE10A 		vsub.f32	s1, s1, s3	@, tmp130, tmp132
 653 000a 08B0     		add	sp, sp, #32	@,,
 654              	.LCFI20:
 655              		.cfi_def_cfa_offset 0
 656              		@ sp needed	@
 657 000c 7047     		bx	lr	@
 658              		.cfi_endproc
 659              	.LFE10:
 660              		.size	diffVec2, .-diffVec2
 661 000e 00BF     		.section	.text.lengthVec2,"ax",%progbits
 662              		.align	1
 663              		.p2align 4,,15
 664              		.global	lengthVec2
 665              		.syntax unified
 666              		.thumb
 667              		.thumb_func
 668              		.fpu fpv5-sp-d16
 669              		.type	lengthVec2, %function
 670              	lengthVec2:
 671              	.LFB11:
 117:src/mathutils.c **** 
 118:src/mathutils.c **** float lengthVec2(struct Vec2 vec)
 119:src/mathutils.c **** {
 672              		.loc 1 119 1 is_stmt 1 view -0
 673              		.cfi_startproc
 674              		@ args = 0, pretend = 0, frame = 8
 675              		@ frame_needed = 0, uses_anonymous_args = 0
 676              	.LVL26:
 120:src/mathutils.c ****     return sqrtf(vec.x * vec.x + vec.y * vec.y);
 677              		.loc 1 120 5 view .LVU135
 678              	@ src/mathutils.c:120:     return sqrtf(vec.x * vec.x + vec.y * vec.y);
 679              		.loc 1 120 40 is_stmt 0 view .LVU136
 680 0000 60EEA00A 		vmul.f32	s1, s1, s1	@ tmp117, tmp121, tmp121
 681              	.LVL27:
 682              	@ src/mathutils.c:119: {
 119:src/mathutils.c ****     return sqrtf(vec.x * vec.x + vec.y * vec.y);
 683              		.loc 1 119 1 view .LVU137
 684 0004 00B5     		push	{lr}	@
 685              	.LCFI21:
 686              		.cfi_def_cfa_offset 4
 687              		.cfi_offset 14, -4
 688              	@ src/mathutils.c:120:     return sqrtf(vec.x * vec.x + vec.y * vec.y);
 689              		.loc 1 120 12 view .LVU138
 690 0006 E0EE000A 		vfma.f32	s1, s0, s0	@ _3, tmp120, tmp120
ARM GAS  /tmp/ccJV8Deg.s 			page 16


 691              	@ src/mathutils.c:119: {
 119:src/mathutils.c ****     return sqrtf(vec.x * vec.x + vec.y * vec.y);
 692              		.loc 1 119 1 view .LVU139
 693 000a 2DED028B 		vpush.64	{d8}	@
 694              	.LCFI22:
 695              		.cfi_def_cfa_offset 12
 696              		.cfi_offset 80, -12
 697              		.cfi_offset 81, -8
 698 000e 83B0     		sub	sp, sp, #12	@,,
 699              	.LCFI23:
 700              		.cfi_def_cfa_offset 24
 701 0010 F5EE400A 		vcmp.f32	s1, #0	@ _3
 702              	@ src/mathutils.c:120:     return sqrtf(vec.x * vec.x + vec.y * vec.y);
 703              		.loc 1 120 12 view .LVU140
 704 0014 B1EEE08A 		vsqrt.f32	s16, s1	@ <retval>, _3
 705 0018 F1EE10FA 		vmrs	APSR_nzcv, FPSCR
 706 001c 06D4     		bmi	.L26		@,
 707              	.LVL28:
 708              	.L23:
 709              	@ src/mathutils.c:121: }
 121:src/mathutils.c **** }
 710              		.loc 1 121 1 view .LVU141
 711 001e B0EE480A 		vmov.f32	s0, s16	@, <retval>
 712 0022 03B0     		add	sp, sp, #12	@,,
 713              	.LCFI24:
 714              		.cfi_remember_state
 715              		.cfi_def_cfa_offset 12
 716              		@ sp needed	@
 717 0024 BDEC028B 		vldm	sp!, {d8}	@
 718              	.LCFI25:
 719              		.cfi_restore 80
 720              		.cfi_restore 81
 721              		.cfi_def_cfa_offset 4
 722 0028 5DF804FB 		ldr	pc, [sp], #4	@
 723              	.LVL29:
 724              	.L26:
 725              	.LCFI26:
 726              		.cfi_restore_state
 727              	@ src/mathutils.c:120:     return sqrtf(vec.x * vec.x + vec.y * vec.y);
 120:src/mathutils.c ****     return sqrtf(vec.x * vec.x + vec.y * vec.y);
 728              		.loc 1 120 12 view .LVU142
 729 002c B0EE600A 		vmov.f32	s0, s1	@, _3
 730              	.LVL30:
 120:src/mathutils.c ****     return sqrtf(vec.x * vec.x + vec.y * vec.y);
 731              		.loc 1 120 12 view .LVU143
 732 0030 FFF7FEFF 		bl	sqrtf		@
 733              	.LVL31:
 734 0034 F3E7     		b	.L23		@
 735              		.cfi_endproc
 736              	.LFE11:
 737              		.size	lengthVec2, .-lengthVec2
 738 0036 00BF     		.section	.text.Dot,"ax",%progbits
 739              		.align	1
 740              		.p2align 4,,15
 741              		.global	Dot
 742              		.syntax unified
 743              		.thumb
ARM GAS  /tmp/ccJV8Deg.s 			page 17


 744              		.thumb_func
 745              		.fpu fpv5-sp-d16
 746              		.type	Dot, %function
 747              	Dot:
 748              	.LFB12:
 122:src/mathutils.c **** 
 123:src/mathutils.c **** float Dot(struct Vec2 a, struct Vec2 b)
 124:src/mathutils.c **** {
 749              		.loc 1 124 1 is_stmt 1 view -0
 750              		.cfi_startproc
 751              		@ args = 0, pretend = 0, frame = 16
 752              		@ frame_needed = 0, uses_anonymous_args = 0
 753              		@ link register save eliminated.
 125:src/mathutils.c **** 	return a.x * b.x + a.y * b.y;
 754              		.loc 1 125 2 view .LVU145
 755              	@ src/mathutils.c:125: 	return a.x * b.x + a.y * b.y;
 756              		.loc 1 125 25 is_stmt 0 view .LVU146
 757 0000 60EEA11A 		vmul.f32	s3, s1, s3	@ tmp120, tmp127, tmp129
 758              	@ src/mathutils.c:124: {
 124:src/mathutils.c **** 	return a.x * b.x + a.y * b.y;
 759              		.loc 1 124 1 view .LVU147
 760 0004 84B0     		sub	sp, sp, #16	@,,
 761              	.LCFI27:
 762              		.cfi_def_cfa_offset 16
 763              	@ src/mathutils.c:126: }
 126:src/mathutils.c **** }
 764              		.loc 1 126 1 view .LVU148
 765 0006 E0EE011A 		vfma.f32	s3, s0, s2	@ tmp120, tmp126, tmp128
 766 000a B0EE610A 		vmov.f32	s0, s3	@, tmp120
 767 000e 04B0     		add	sp, sp, #16	@,,
 768              	.LCFI28:
 769              		.cfi_def_cfa_offset 0
 770              		@ sp needed	@
 771 0010 7047     		bx	lr	@
 772              		.cfi_endproc
 773              	.LFE12:
 774              		.size	Dot, .-Dot
 775 0012 00BF     		.section	.text.Crossvv,"ax",%progbits
 776              		.align	1
 777              		.p2align 4,,15
 778              		.global	Crossvv
 779              		.syntax unified
 780              		.thumb
 781              		.thumb_func
 782              		.fpu fpv5-sp-d16
 783              		.type	Crossvv, %function
 784              	Crossvv:
 785              	.LFB13:
 127:src/mathutils.c **** 
 128:src/mathutils.c **** float Crossvv(struct Vec2 a, struct Vec2 b)
 129:src/mathutils.c **** {
 786              		.loc 1 129 1 is_stmt 1 view -0
 787              		.cfi_startproc
 788              		@ args = 0, pretend = 0, frame = 16
 789              		@ frame_needed = 0, uses_anonymous_args = 0
 790              		@ link register save eliminated.
 130:src/mathutils.c **** 	return a.x * b.y - a.y * b.x;
ARM GAS  /tmp/ccJV8Deg.s 			page 18


 791              		.loc 1 130 2 view .LVU150
 792              	@ src/mathutils.c:130: 	return a.x * b.y - a.y * b.x;
 793              		.loc 1 130 19 is_stmt 0 view .LVU151
 794 0000 61EE600A 		vnmul.f32	s1, s2, s1	@ tmp124, tmp130, tmp129
 795              	@ src/mathutils.c:129: {
 129:src/mathutils.c **** 	return a.x * b.y - a.y * b.x;
 796              		.loc 1 129 1 view .LVU152
 797 0004 84B0     		sub	sp, sp, #16	@,,
 798              	.LCFI29:
 799              		.cfi_def_cfa_offset 16
 800              	@ src/mathutils.c:131: }
 131:src/mathutils.c **** }
 801              		.loc 1 131 1 view .LVU153
 802 0006 E0EE210A 		vfma.f32	s1, s0, s3	@ tmp124, tmp128, tmp131
 803 000a B0EE600A 		vmov.f32	s0, s1	@, tmp124
 804 000e 04B0     		add	sp, sp, #16	@,,
 805              	.LCFI30:
 806              		.cfi_def_cfa_offset 0
 807              		@ sp needed	@
 808 0010 7047     		bx	lr	@
 809              		.cfi_endproc
 810              	.LFE13:
 811              		.size	Crossvv, .-Crossvv
 812 0012 00BF     		.section	.text.Crossvs,"ax",%progbits
 813              		.align	1
 814              		.p2align 4,,15
 815              		.global	Crossvs
 816              		.syntax unified
 817              		.thumb
 818              		.thumb_func
 819              		.fpu fpv5-sp-d16
 820              		.type	Crossvs, %function
 821              	Crossvs:
 822              	.LVL32:
 823              	.LFB14:
 132:src/mathutils.c **** 
 133:src/mathutils.c **** struct Vec2 Crossvs(struct Vec2 a, float s)
 134:src/mathutils.c **** {
 824              		.loc 1 134 1 is_stmt 1 view -0
 825              		.cfi_startproc
 826              		@ args = 0, pretend = 0, frame = 24
 827              		@ frame_needed = 0, uses_anonymous_args = 0
 828              		@ link register save eliminated.
 135:src/mathutils.c ****     struct Vec2 res;
 829              		.loc 1 135 5 view .LVU155
 136:src/mathutils.c ****     res.x=s * a.y;
 830              		.loc 1 136 5 view .LVU156
 831              	@ src/mathutils.c:134: {
 134:src/mathutils.c ****     struct Vec2 res;
 832              		.loc 1 134 1 is_stmt 0 view .LVU157
 833 0000 F0EE407A 		vmov.f32	s15, s0	@ tmp126, a
 834 0004 86B0     		sub	sp, sp, #24	@,,
 835              	.LCFI31:
 836              		.cfi_def_cfa_offset 24
 837              	.LVL33:
 137:src/mathutils.c ****     res.y=-s * a.x;
 838              		.loc 1 137 5 is_stmt 1 view .LVU158
ARM GAS  /tmp/ccJV8Deg.s 			page 19


 138:src/mathutils.c **** 	return res;
 839              		.loc 1 138 2 view .LVU159
 840              	@ src/mathutils.c:139: }
 139:src/mathutils.c **** }
 841              		.loc 1 139 1 is_stmt 0 view .LVU160
 842 0006 20EE810A 		vmul.f32	s0, s1, s2	@, tmp127, s
 843 000a 61EE670A 		vnmul.f32	s1, s2, s15	@, s, tmp126
 844 000e 06B0     		add	sp, sp, #24	@,,
 845              	.LCFI32:
 846              		.cfi_def_cfa_offset 0
 847              		@ sp needed	@
 848 0010 7047     		bx	lr	@
 849              		.cfi_endproc
 850              	.LFE14:
 851              		.size	Crossvs, .-Crossvs
 852 0012 00BF     		.section	.text.Crosssv,"ax",%progbits
 853              		.align	1
 854              		.p2align 4,,15
 855              		.global	Crosssv
 856              		.syntax unified
 857              		.thumb
 858              		.thumb_func
 859              		.fpu fpv5-sp-d16
 860              		.type	Crosssv, %function
 861              	Crosssv:
 862              	.LVL34:
 863              	.LFB15:
 140:src/mathutils.c **** 
 141:src/mathutils.c **** struct Vec2 Crosssv(float s, struct Vec2 a)
 142:src/mathutils.c **** {
 864              		.loc 1 142 1 is_stmt 1 view -0
 865              		.cfi_startproc
 866              		@ args = 0, pretend = 0, frame = 24
 867              		@ frame_needed = 0, uses_anonymous_args = 0
 868              		@ link register save eliminated.
 143:src/mathutils.c ****     struct Vec2 res;
 869              		.loc 1 143 5 view .LVU162
 144:src/mathutils.c ****     res.x=-s * a.y;
 870              		.loc 1 144 5 view .LVU163
 871              	@ src/mathutils.c:142: {
 142:src/mathutils.c ****     struct Vec2 res;
 872              		.loc 1 142 1 is_stmt 0 view .LVU164
 873 0000 F0EE407A 		vmov.f32	s15, s0	@ s, tmp126
 874 0004 86B0     		sub	sp, sp, #24	@,,
 875              	.LCFI33:
 876              		.cfi_def_cfa_offset 24
 877              	.LVL35:
 145:src/mathutils.c ****     res.y=s * a.x;
 878              		.loc 1 145 5 is_stmt 1 view .LVU165
 146:src/mathutils.c **** 	return res;
 879              		.loc 1 146 2 view .LVU166
 880              	@ src/mathutils.c:147: }
 147:src/mathutils.c **** }
 881              		.loc 1 147 1 is_stmt 0 view .LVU167
 882 0006 20EE410A 		vnmul.f32	s0, s0, s2	@, s, tmp128
 883              	.LVL36:
 884              		.loc 1 147 1 view .LVU168
ARM GAS  /tmp/ccJV8Deg.s 			page 20


 885 000a 67EEA00A 		vmul.f32	s1, s15, s1	@, s, tmp127
 886 000e 06B0     		add	sp, sp, #24	@,,
 887              	.LCFI34:
 888              		.cfi_def_cfa_offset 0
 889              		@ sp needed	@
 890 0010 7047     		bx	lr	@
 891              		.cfi_endproc
 892              	.LFE15:
 893              		.size	Crosssv, .-Crosssv
 894 0012 00BF     		.section	.text.Abss,"ax",%progbits
 895              		.align	1
 896              		.p2align 4,,15
 897              		.global	Abss
 898              		.syntax unified
 899              		.thumb
 900              		.thumb_func
 901              		.fpu fpv5-sp-d16
 902              		.type	Abss, %function
 903              	Abss:
 904              	.LVL37:
 905              	.LFB16:
 148:src/mathutils.c **** 
 149:src/mathutils.c **** float Abss(float a)
 150:src/mathutils.c **** {
 906              		.loc 1 150 1 is_stmt 1 view -0
 907              		.cfi_startproc
 908              		@ args = 0, pretend = 0, frame = 0
 909              		@ frame_needed = 0, uses_anonymous_args = 0
 910              		@ link register save eliminated.
 151:src/mathutils.c **** 	return a > 0.0f ? a : -a;
 911              		.loc 1 151 2 view .LVU170
 912              	@ src/mathutils.c:151: 	return a > 0.0f ? a : -a;
 913              		.loc 1 151 22 is_stmt 0 view .LVU171
 914 0000 B5EEC00A 		vcmpe.f32	s0, #0	@ a
 915 0004 F1EE10FA 		vmrs	APSR_nzcv, FPSCR
 916 0008 D8BF     		it	le
 917 000a B1EE400A 		vnegle.f32	s0, s0	@ a, a
 918              	.LVL38:
 919              	@ src/mathutils.c:152: }
 152:src/mathutils.c **** }
 920              		.loc 1 152 1 view .LVU172
 921 000e 7047     		bx	lr	@
 922              		.cfi_endproc
 923              	.LFE16:
 924              		.size	Abss, .-Abss
 925              		.section	.text.Absv,"ax",%progbits
 926              		.align	1
 927              		.p2align 4,,15
 928              		.global	Absv
 929              		.syntax unified
 930              		.thumb
 931              		.thumb_func
 932              		.fpu fpv5-sp-d16
 933              		.type	Absv, %function
 934              	Absv:
 935              	.LFB17:
 153:src/mathutils.c **** 
ARM GAS  /tmp/ccJV8Deg.s 			page 21


 154:src/mathutils.c **** struct Vec2 Absv(struct Vec2 a)
 155:src/mathutils.c **** {
 936              		.loc 1 155 1 is_stmt 1 view -0
 937              		.cfi_startproc
 938              		@ args = 0, pretend = 0, frame = 24
 939              		@ frame_needed = 0, uses_anonymous_args = 0
 940              		@ link register save eliminated.
 156:src/mathutils.c ****     struct Vec2 res;
 941              		.loc 1 156 5 view .LVU174
 157:src/mathutils.c ****     res.x=fabsf(a.x);
 942              		.loc 1 157 5 view .LVU175
 943              	@ src/mathutils.c:160: }
 158:src/mathutils.c ****     res.y=fabsf(a.y);
 159:src/mathutils.c **** 	return res;
 160:src/mathutils.c **** }
 944              		.loc 1 160 1 is_stmt 0 view .LVU176
 945 0000 B0EEC00A 		vabs.f32	s0, s0	@, tmp123
 946              	@ src/mathutils.c:155: {
 155:src/mathutils.c ****     struct Vec2 res;
 947              		.loc 1 155 1 view .LVU177
 948 0004 86B0     		sub	sp, sp, #24	@,,
 949              	.LCFI35:
 950              		.cfi_def_cfa_offset 24
 951              	.LVL39:
 158:src/mathutils.c ****     res.y=fabsf(a.y);
 952              		.loc 1 158 5 is_stmt 1 view .LVU178
 159:src/mathutils.c **** }
 953              		.loc 1 159 2 view .LVU179
 954              	@ src/mathutils.c:160: }
 955              		.loc 1 160 1 is_stmt 0 view .LVU180
 956 0006 F0EEE00A 		vabs.f32	s1, s1	@, tmp124
 957 000a 06B0     		add	sp, sp, #24	@,,
 958              	.LCFI36:
 959              		.cfi_def_cfa_offset 0
 960              		@ sp needed	@
 961 000c 7047     		bx	lr	@
 962              		.cfi_endproc
 963              	.LFE17:
 964              		.size	Absv, .-Absv
 965 000e 00BF     		.section	.text.AbsM,"ax",%progbits
 966              		.align	1
 967              		.p2align 4,,15
 968              		.global	AbsM
 969              		.syntax unified
 970              		.thumb
 971              		.thumb_func
 972              		.fpu fpv5-sp-d16
 973              		.type	AbsM, %function
 974              	AbsM:
 975              	.LFB18:
 161:src/mathutils.c **** 
 162:src/mathutils.c **** struct Mat22 AbsM(struct Mat22 A)
 163:src/mathutils.c **** {
 976              		.loc 1 163 1 is_stmt 1 view -0
 977              		.cfi_startproc
 978              		@ args = 0, pretend = 0, frame = 48
 979              		@ frame_needed = 0, uses_anonymous_args = 0
ARM GAS  /tmp/ccJV8Deg.s 			page 22


 980              		@ link register save eliminated.
 164:src/mathutils.c ****     struct Mat22 res;
 981              		.loc 1 164 5 view .LVU182
 165:src/mathutils.c **** 	res.col1 = Absv(A.col1), 
 982              		.loc 1 165 2 view .LVU183
 983              	@ src/mathutils.c:168: }
 166:src/mathutils.c ****     res.col2 = Absv(A.col2);
 167:src/mathutils.c ****     return res;
 168:src/mathutils.c **** }
 984              		.loc 1 168 1 is_stmt 0 view .LVU184
 985 0000 B0EEC00A 		vabs.f32	s0, s0	@, tmp135
 986              	@ src/mathutils.c:163: {
 163:src/mathutils.c ****     struct Mat22 res;
 987              		.loc 1 163 1 view .LVU185
 988 0004 8CB0     		sub	sp, sp, #48	@,,
 989              	.LCFI37:
 990              		.cfi_def_cfa_offset 48
 991              	.LVL40:
 992              	.LBB23:
 993              	.LBI23:
 154:src/mathutils.c **** {
 994              		.loc 1 154 13 is_stmt 1 view .LVU186
 995              	.LBB24:
 156:src/mathutils.c ****     res.x=fabsf(a.x);
 996              		.loc 1 156 5 view .LVU187
 157:src/mathutils.c ****     res.y=fabsf(a.y);
 997              		.loc 1 157 5 view .LVU188
 158:src/mathutils.c **** 	return res;
 998              		.loc 1 158 5 view .LVU189
 159:src/mathutils.c **** }
 999              		.loc 1 159 2 view .LVU190
 159:src/mathutils.c **** }
 1000              		.loc 1 159 2 is_stmt 0 view .LVU191
 1001              	.LBE24:
 1002              	.LBE23:
 1003              	.LBB25:
 1004              	.LBI25:
 154:src/mathutils.c **** {
 1005              		.loc 1 154 13 is_stmt 1 view .LVU192
 1006              	.LBB26:
 156:src/mathutils.c ****     res.x=fabsf(a.x);
 1007              		.loc 1 156 5 view .LVU193
 157:src/mathutils.c ****     res.y=fabsf(a.y);
 1008              		.loc 1 157 5 view .LVU194
 158:src/mathutils.c **** 	return res;
 1009              		.loc 1 158 5 view .LVU195
 159:src/mathutils.c **** }
 1010              		.loc 1 159 2 view .LVU196
 159:src/mathutils.c **** }
 1011              		.loc 1 159 2 is_stmt 0 view .LVU197
 1012              	.LBE26:
 1013              	.LBE25:
 167:src/mathutils.c **** }
 1014              		.loc 1 167 5 is_stmt 1 view .LVU198
 1015              	@ src/mathutils.c:168: }
 1016              		.loc 1 168 1 is_stmt 0 view .LVU199
 1017 0006 F0EEE00A 		vabs.f32	s1, s1	@, tmp136
ARM GAS  /tmp/ccJV8Deg.s 			page 23


 1018 000a B0EEC11A 		vabs.f32	s2, s2	@, tmp137
 1019 000e F0EEE11A 		vabs.f32	s3, s3	@, tmp138
 1020 0012 0CB0     		add	sp, sp, #48	@,,
 1021              	.LCFI38:
 1022              		.cfi_def_cfa_offset 0
 1023              		@ sp needed	@
 1024 0014 7047     		bx	lr	@
 1025              		.cfi_endproc
 1026              	.LFE18:
 1027              		.size	AbsM, .-AbsM
 1028 0016 00BF     		.section	.text.Sign,"ax",%progbits
 1029              		.align	1
 1030              		.p2align 4,,15
 1031              		.global	Sign
 1032              		.syntax unified
 1033              		.thumb
 1034              		.thumb_func
 1035              		.fpu fpv5-sp-d16
 1036              		.type	Sign, %function
 1037              	Sign:
 1038              	.LVL41:
 1039              	.LFB19:
 169:src/mathutils.c **** 
 170:src/mathutils.c **** 
 171:src/mathutils.c **** float Sign(float x)
 172:src/mathutils.c **** {
 1040              		.loc 1 172 1 is_stmt 1 view -0
 1041              		.cfi_startproc
 1042              		@ args = 0, pretend = 0, frame = 0
 1043              		@ frame_needed = 0, uses_anonymous_args = 0
 1044              		@ link register save eliminated.
 173:src/mathutils.c **** 	return x < 0.0f ? -1.0f : 1.0f;
 1045              		.loc 1 173 2 view .LVU201
 1046              	@ src/mathutils.c:173: 	return x < 0.0f ? -1.0f : 1.0f;
 1047              		.loc 1 173 26 is_stmt 0 view .LVU202
 1048 0000 B5EEC00A 		vcmpe.f32	s0, #0	@ tmp120
 1049 0004 BFEE007A 		vmov.f32	s14, #-1.0e+0	@ tmp118,
 1050 0008 F7EE007A 		vmov.f32	s15, #1.0e+0	@ tmp119,
 1051 000c F1EE10FA 		vmrs	APSR_nzcv, FPSCR
 1052              	@ src/mathutils.c:174: }
 174:src/mathutils.c **** }
 1053              		.loc 1 174 1 view .LVU203
 1054 0010 54BF     		ite	pl	@
 1055 0012 B0EE670A 		vmovpl.f32	s0, s15	@,, tmp119
 1056 0016 B0EE470A 		vmovmi.f32	s0, s14	@,, tmp118
 1057              	.LVL42:
 1058              		.loc 1 174 1 view .LVU204
 1059 001a 7047     		bx	lr	@
 1060              		.cfi_endproc
 1061              	.LFE19:
 1062              		.size	Sign, .-Sign
 1063              		.section	.text.Min,"ax",%progbits
 1064              		.align	1
 1065              		.p2align 4,,15
 1066              		.global	Min
 1067              		.syntax unified
 1068              		.thumb
ARM GAS  /tmp/ccJV8Deg.s 			page 24


 1069              		.thumb_func
 1070              		.fpu fpv5-sp-d16
 1071              		.type	Min, %function
 1072              	Min:
 1073              	.LVL43:
 1074              	.LFB20:
 175:src/mathutils.c **** 
 176:src/mathutils.c **** float Min(float a, float b)
 177:src/mathutils.c **** {
 1075              		.loc 1 177 1 is_stmt 1 view -0
 1076              		.cfi_startproc
 1077              		@ args = 0, pretend = 0, frame = 0
 1078              		@ frame_needed = 0, uses_anonymous_args = 0
 1079              		@ link register save eliminated.
 178:src/mathutils.c **** 	return a < b ? a : b;
 1080              		.loc 1 178 2 view .LVU206
 1081              	@ src/mathutils.c:178: 	return a < b ? a : b;
 1082              		.loc 1 178 19 is_stmt 0 view .LVU207
 1083 0000 B4EEE00A 		vcmpe.f32	s0, s1	@ a, b
 1084 0004 F1EE10FA 		vmrs	APSR_nzcv, FPSCR
 1085              	@ src/mathutils.c:179: }
 179:src/mathutils.c **** }
 1086              		.loc 1 179 1 view .LVU208
 1087 0008 58BF     		it	pl	@
 1088 000a B0EE600A 		vmovpl.f32	s0, s1	@,, b
 1089              	.LVL44:
 1090              		.loc 1 179 1 view .LVU209
 1091 000e 7047     		bx	lr	@
 1092              		.cfi_endproc
 1093              	.LFE20:
 1094              		.size	Min, .-Min
 1095              		.section	.text.Max,"ax",%progbits
 1096              		.align	1
 1097              		.p2align 4,,15
 1098              		.global	Max
 1099              		.syntax unified
 1100              		.thumb
 1101              		.thumb_func
 1102              		.fpu fpv5-sp-d16
 1103              		.type	Max, %function
 1104              	Max:
 1105              	.LVL45:
 1106              	.LFB21:
 180:src/mathutils.c **** 
 181:src/mathutils.c **** float Max(float a, float b)
 182:src/mathutils.c **** {
 1107              		.loc 1 182 1 is_stmt 1 view -0
 1108              		.cfi_startproc
 1109              		@ args = 0, pretend = 0, frame = 0
 1110              		@ frame_needed = 0, uses_anonymous_args = 0
 1111              		@ link register save eliminated.
 183:src/mathutils.c **** 	return a > b ? a : b;
 1112              		.loc 1 183 2 view .LVU211
 1113              	@ src/mathutils.c:183: 	return a > b ? a : b;
 1114              		.loc 1 183 19 is_stmt 0 view .LVU212
 1115 0000 B4EEE00A 		vcmpe.f32	s0, s1	@ a, b
 1116 0004 F1EE10FA 		vmrs	APSR_nzcv, FPSCR
ARM GAS  /tmp/ccJV8Deg.s 			page 25


 1117              	@ src/mathutils.c:184: }
 184:src/mathutils.c **** }
 1118              		.loc 1 184 1 view .LVU213
 1119 0008 30FE200A 		vselgt.f32	s0, s0, s1	@,, a, b
 1120              	.LVL46:
 1121              		.loc 1 184 1 view .LVU214
 1122 000c 7047     		bx	lr	@
 1123              		.cfi_endproc
 1124              	.LFE21:
 1125              		.size	Max, .-Max
 1126 000e 00BF     		.section	.text.Clamp,"ax",%progbits
 1127              		.align	1
 1128              		.p2align 4,,15
 1129              		.global	Clamp
 1130              		.syntax unified
 1131              		.thumb
 1132              		.thumb_func
 1133              		.fpu fpv5-sp-d16
 1134              		.type	Clamp, %function
 1135              	Clamp:
 1136              	.LVL47:
 1137              	.LFB22:
 185:src/mathutils.c **** 
 186:src/mathutils.c **** float Clamp(float a, float low, float high)
 187:src/mathutils.c **** {
 1138              		.loc 1 187 1 is_stmt 1 view -0
 1139              		.cfi_startproc
 1140              		@ args = 0, pretend = 0, frame = 0
 1141              		@ frame_needed = 0, uses_anonymous_args = 0
 1142              		@ link register save eliminated.
 188:src/mathutils.c **** 	return Max(low, Min(a, high));
 1143              		.loc 1 188 2 view .LVU216
 1144              	.LBB27:
 1145              	.LBI27:
 176:src/mathutils.c **** {
 1146              		.loc 1 176 7 view .LVU217
 1147              	.LBB28:
 178:src/mathutils.c **** }
 1148              		.loc 1 178 2 view .LVU218
 1149              	@ src/mathutils.c:178: 	return a < b ? a : b;
 178:src/mathutils.c **** }
 1150              		.loc 1 178 19 is_stmt 0 view .LVU219
 1151 0000 B4EEC10A 		vcmpe.f32	s0, s2	@ a, high
 1152 0004 F1EE10FA 		vmrs	APSR_nzcv, FPSCR
 1153 0008 58BF     		it	pl	@
 1154 000a B0EE410A 		vmovpl.f32	s0, s2	@, a, high
 1155              	.LVL48:
 178:src/mathutils.c **** }
 1156              		.loc 1 178 19 view .LVU220
 1157              	.LBE28:
 1158              	.LBE27:
 1159              	.LBB29:
 1160              	.LBI29:
 181:src/mathutils.c **** {
 1161              		.loc 1 181 7 is_stmt 1 view .LVU221
 1162              	.LBB30:
 183:src/mathutils.c **** }
ARM GAS  /tmp/ccJV8Deg.s 			page 26


 1163              		.loc 1 183 2 view .LVU222
 1164              	@ src/mathutils.c:183: 	return a > b ? a : b;
 183:src/mathutils.c **** }
 1165              		.loc 1 183 19 is_stmt 0 view .LVU223
 1166 000e B4EEE00A 		vcmpe.f32	s0, s1	@ a, low
 1167 0012 F1EE10FA 		vmrs	APSR_nzcv, FPSCR
 1168              	.LBE30:
 1169              	.LBE29:
 1170              	@ src/mathutils.c:189: }
 189:src/mathutils.c **** }
 1171              		.loc 1 189 1 view .LVU224
 1172 0016 48BF     		it	mi	@
 1173 0018 B0EE600A 		vmovmi.f32	s0, s1	@,, low
 1174              	.LVL49:
 1175              		.loc 1 189 1 view .LVU225
 1176 001c 7047     		bx	lr	@
 1177              		.cfi_endproc
 1178              	.LFE22:
 1179              		.size	Clamp, .-Clamp
 1180 001e 00BF     		.section	.text.Random,"ax",%progbits
 1181              		.align	1
 1182              		.p2align 4,,15
 1183              		.global	Random
 1184              		.syntax unified
 1185              		.thumb
 1186              		.thumb_func
 1187              		.fpu fpv5-sp-d16
 1188              		.type	Random, %function
 1189              	Random:
 1190              	.LFB23:
 190:src/mathutils.c **** 
 191:src/mathutils.c **** float Random()
 192:src/mathutils.c **** {
 1191              		.loc 1 192 1 is_stmt 1 view -0
 1192              		.cfi_startproc
 1193              		@ args = 0, pretend = 0, frame = 0
 1194              		@ frame_needed = 0, uses_anonymous_args = 0
 193:src/mathutils.c **** 	float r = (float)rand();
 1195              		.loc 1 193 2 view .LVU227
 1196              	@ src/mathutils.c:192: {
 192:src/mathutils.c **** 	float r = (float)rand();
 1197              		.loc 1 192 1 is_stmt 0 view .LVU228
 1198 0000 08B5     		push	{r3, lr}	@
 1199              	.LCFI39:
 1200              		.cfi_def_cfa_offset 8
 1201              		.cfi_offset 3, -8
 1202              		.cfi_offset 14, -4
 1203              	@ src/mathutils.c:193: 	float r = (float)rand();
 1204              		.loc 1 193 19 view .LVU229
 1205 0002 FFF7FEFF 		bl	rand		@
 1206              	.LVL50:
 194:src/mathutils.c **** 	r /= RAND_MAX;
 1207              		.loc 1 194 2 is_stmt 1 view .LVU230
 1208              	@ src/mathutils.c:194: 	r /= RAND_MAX;
 1209              		.loc 1 194 4 is_stmt 0 view .LVU231
 1210 0006 07EE900A 		vmov	s15, r0	@ int	@ r, tmp118
 1211              	@ src/mathutils.c:195: 	r = 2.0f * r - 1.0f;
ARM GAS  /tmp/ccJV8Deg.s 			page 27


 195:src/mathutils.c **** 	r = 2.0f * r - 1.0f;
 1212              		.loc 1 195 4 view .LVU232
 1213 000a B0EE007A 		vmov.f32	s14, #2.0e+0	@ tmp115,
 1214              	@ src/mathutils.c:194: 	r /= RAND_MAX;
 194:src/mathutils.c **** 	r /= RAND_MAX;
 1215              		.loc 1 194 4 view .LVU233
 1216 000e FAEEE07A 		vcvt.f32.s32	s15, s15, #31	@ r, r,
 1217              	.LVL51:
 1218              		.loc 1 195 2 is_stmt 1 view .LVU234
 1219              	@ src/mathutils.c:195: 	r = 2.0f * r - 1.0f;
 1220              		.loc 1 195 4 is_stmt 0 view .LVU235
 1221 0012 BFEE000A 		vmov.f32	s0, #-1.0e+0	@ tmp116,
 1222              	.LVL52:
 196:src/mathutils.c **** 	return r;
 1223              		.loc 1 196 2 is_stmt 1 view .LVU236
 1224              	@ src/mathutils.c:197: }
 197:src/mathutils.c **** }
 1225              		.loc 1 197 1 is_stmt 0 view .LVU237
 1226 0016 A7EE870A 		vfma.f32	s0, s15, s14	@, r, tmp115
 1227              	.LVL53:
 1228              		.loc 1 197 1 view .LVU238
 1229 001a 08BD     		pop	{r3, pc}	@
 1230              		.cfi_endproc
 1231              	.LFE23:
 1232              		.size	Random, .-Random
 1233              		.section	.text.RandomRange,"ax",%progbits
 1234              		.align	1
 1235              		.p2align 4,,15
 1236              		.global	RandomRange
 1237              		.syntax unified
 1238              		.thumb
 1239              		.thumb_func
 1240              		.fpu fpv5-sp-d16
 1241              		.type	RandomRange, %function
 1242              	RandomRange:
 1243              	.LVL54:
 1244              	.LFB24:
 198:src/mathutils.c **** 
 199:src/mathutils.c **** float RandomRange(float lo, float hi)
 200:src/mathutils.c **** {
 1245              		.loc 1 200 1 is_stmt 1 view -0
 1246              		.cfi_startproc
 1247              		@ args = 0, pretend = 0, frame = 0
 1248              		@ frame_needed = 0, uses_anonymous_args = 0
 201:src/mathutils.c **** 	float r = (float)rand();
 1249              		.loc 1 201 2 view .LVU240
 1250              	@ src/mathutils.c:200: {
 200:src/mathutils.c **** 	float r = (float)rand();
 1251              		.loc 1 200 1 is_stmt 0 view .LVU241
 1252 0000 08B5     		push	{r3, lr}	@
 1253              	.LCFI40:
 1254              		.cfi_def_cfa_offset 8
 1255              		.cfi_offset 3, -8
 1256              		.cfi_offset 14, -4
 1257 0002 2DED028B 		vpush.64	{d8}	@
 1258              	.LCFI41:
 1259              		.cfi_def_cfa_offset 16
ARM GAS  /tmp/ccJV8Deg.s 			page 28


 1260              		.cfi_offset 80, -16
 1261              		.cfi_offset 81, -12
 1262              	@ src/mathutils.c:200: {
 200:src/mathutils.c **** 	float r = (float)rand();
 1263              		.loc 1 200 1 view .LVU242
 1264 0006 F0EE408A 		vmov.f32	s17, s0	@ lo, tmp120
 1265 000a B0EE608A 		vmov.f32	s16, s1	@ hi, tmp121
 1266              	@ src/mathutils.c:201: 	float r = (float)rand();
 1267              		.loc 1 201 19 view .LVU243
 1268 000e FFF7FEFF 		bl	rand		@
 1269              	.LVL55:
 202:src/mathutils.c **** 	r /= RAND_MAX;
 1270              		.loc 1 202 2 is_stmt 1 view .LVU244
 1271              	@ src/mathutils.c:202: 	r /= RAND_MAX;
 1272              		.loc 1 202 4 is_stmt 0 view .LVU245
 1273 0012 07EE900A 		vmov	s15, r0	@ int	@ r, tmp122
 1274              	@ src/mathutils.c:205: }
 203:src/mathutils.c **** 	r = (hi - lo) * r + lo;
 204:src/mathutils.c **** 	return r;
 205:src/mathutils.c **** }
 1275              		.loc 1 205 1 view .LVU246
 1276 0016 B0EE680A 		vmov.f32	s0, s17	@ lo, lo
 1277              	@ src/mathutils.c:203: 	r = (hi - lo) * r + lo;
 203:src/mathutils.c **** 	r = (hi - lo) * r + lo;
 1278              		.loc 1 203 10 view .LVU247
 1279 001a 78EE680A 		vsub.f32	s1, s16, s17	@ tmp118, hi, lo
 1280              	@ src/mathutils.c:202: 	r /= RAND_MAX;
 202:src/mathutils.c **** 	r /= RAND_MAX;
 1281              		.loc 1 202 4 view .LVU248
 1282 001e FAEEE07A 		vcvt.f32.s32	s15, s15, #31	@ r, r,
 1283              	.LVL56:
 203:src/mathutils.c **** 	r = (hi - lo) * r + lo;
 1284              		.loc 1 203 2 is_stmt 1 view .LVU249
 204:src/mathutils.c **** }
 1285              		.loc 1 204 2 view .LVU250
 1286              	@ src/mathutils.c:205: }
 1287              		.loc 1 205 1 is_stmt 0 view .LVU251
 1288 0022 BDEC028B 		vldm	sp!, {d8}	@
 1289              	.LCFI42:
 1290              		.cfi_restore 80
 1291              		.cfi_restore 81
 1292              		.cfi_def_cfa_offset 8
 1293              	.LVL57:
 1294              		.loc 1 205 1 view .LVU252
 1295 0026 A0EEA70A 		vfma.f32	s0, s1, s15	@ lo, tmp118, r
 1296              	.LVL58:
 1297              		.loc 1 205 1 view .LVU253
 1298 002a 08BD     		pop	{r3, pc}	@
 1299              		.cfi_endproc
 1300              	.LFE24:
 1301              		.size	RandomRange, .-RandomRange
 1302              		.text
 1303              	.Letext0:
 1304              		.file 2 "/usr/lib/gcc/arm-none-eabi/9.2.1/include/stddef.h"
 1305              		.file 3 "/usr/include/newlib/sys/_types.h"
 1306              		.file 4 "/usr/include/newlib/sys/reent.h"
 1307              		.file 5 "/usr/include/newlib/sys/lock.h"
ARM GAS  /tmp/ccJV8Deg.s 			page 29


 1308              		.file 6 "/usr/include/newlib/math.h"
 1309              		.file 7 "/usr/include/newlib/stdlib.h"
 1310              		.file 8 "src/mathutils.h"